
Output/test_4.clang.o:     file format elf64-x86-64


Disassembly of section .text:

0000000000000000 <foo>:
   0:	55                   	push   %rbp
   1:	48 89 e5             	mov    %rsp,%rbp
   4:	53                   	push   %rbx
   5:	48 8b 45 28          	mov    0x28(%rbp),%rax
   9:	44 8b 55 20          	mov    0x20(%rbp),%r10d
   d:	4c 8b 5d 18          	mov    0x18(%rbp),%r11
  11:	8b 5d 10             	mov    0x10(%rbp),%ebx
  14:	89 7d f4             	mov    %edi,-0xc(%rbp)
  17:	89 75 f0             	mov    %esi,-0x10(%rbp)
  1a:	89 55 ec             	mov    %edx,-0x14(%rbp)
  1d:	89 4d e8             	mov    %ecx,-0x18(%rbp)
  20:	44 89 45 e4          	mov    %r8d,-0x1c(%rbp)
  24:	44 89 4d e0          	mov    %r9d,-0x20(%rbp)
  28:	89 5d dc             	mov    %ebx,-0x24(%rbp)
  2b:	4c 89 5d d0          	mov    %r11,-0x30(%rbp)
  2f:	44 89 55 cc          	mov    %r10d,-0x34(%rbp)
  33:	48 89 45 c0          	mov    %rax,-0x40(%rbp)
  37:	c7 45 bc 00 00 00 00 	movl   $0x0,-0x44(%rbp)
  3e:	c7 45 b8 00 00 00 00 	movl   $0x0,-0x48(%rbp)
  45:	8b 45 b8             	mov    -0x48(%rbp),%eax
  48:	3b 45 dc             	cmp    -0x24(%rbp),%eax
  4b:	0f 8d 2a 00 00 00    	jge    7b <foo+0x7b>
  51:	48 63 45 b8          	movslq -0x48(%rbp),%rax
  55:	48 8b 4d d0          	mov    -0x30(%rbp),%rcx
  59:	8b 14 81             	mov    (%rcx,%rax,4),%edx
  5c:	48 63 45 b8          	movslq -0x48(%rbp),%rax
  60:	48 8b 4d c0          	mov    -0x40(%rbp),%rcx
  64:	2b 14 81             	sub    (%rcx,%rax,4),%edx
  67:	03 55 bc             	add    -0x44(%rbp),%edx
  6a:	89 55 bc             	mov    %edx,-0x44(%rbp)
  6d:	8b 45 b8             	mov    -0x48(%rbp),%eax
  70:	83 c0 01             	add    $0x1,%eax
  73:	89 45 b8             	mov    %eax,-0x48(%rbp)
  76:	e9 ca ff ff ff       	jmpq   45 <foo+0x45>
  7b:	8b 45 bc             	mov    -0x44(%rbp),%eax
  7e:	8b 4d f4             	mov    -0xc(%rbp),%ecx
  81:	03 4d f0             	add    -0x10(%rbp),%ecx
  84:	03 4d ec             	add    -0x14(%rbp),%ecx
  87:	03 4d e8             	add    -0x18(%rbp),%ecx
  8a:	03 4d e4             	add    -0x1c(%rbp),%ecx
  8d:	03 4d e0             	add    -0x20(%rbp),%ecx
  90:	0f af c1             	imul   %ecx,%eax
  93:	5b                   	pop    %rbx
  94:	5d                   	pop    %rbp
  95:	c3                   	retq   
  96:	66 2e 0f 1f 84 00 00 	nopw   %cs:0x0(%rax,%rax,1)
  9d:	00 00 00 

00000000000000a0 <main>:
  a0:	55                   	push   %rbp
  a1:	48 89 e5             	mov    %rsp,%rbp
  a4:	41 57                	push   %r15
  a6:	41 56                	push   %r14
  a8:	41 55                	push   %r13
  aa:	41 54                	push   %r12
  ac:	53                   	push   %rbx
  ad:	48 81 ec d8 00 00 00 	sub    $0xd8,%rsp
  b4:	b8 64 00 00 00       	mov    $0x64,%eax
  b9:	b9 c8 00 00 00       	mov    $0xc8,%ecx
  be:	ba 2c 01 00 00       	mov    $0x12c,%edx
  c3:	41 b8 90 01 00 00    	mov    $0x190,%r8d
  c9:	41 b9 f4 01 00 00    	mov    $0x1f4,%r9d
  cf:	41 ba 58 02 00 00    	mov    $0x258,%r10d
  d5:	41 bb 0a 00 00 00    	mov    $0xa,%r11d
  db:	48 8d 9d 70 ff ff ff 	lea    -0x90(%rbp),%rbx
  e2:	4c 8d 75 a0          	lea    -0x60(%rbp),%r14
  e6:	49 bf 00 00 00 00 00 	movabs $0x0,%r15
  ed:	00 00 00 
  f0:	41 bc 28 00 00 00    	mov    $0x28,%r12d
  f6:	45 89 e5             	mov    %r12d,%r13d
  f9:	49 bc 00 00 00 00 00 	movabs $0x0,%r12
 100:	00 00 00 
 103:	c7 45 d4 00 00 00 00 	movl   $0x0,-0x2c(%rbp)
 10a:	89 7d d0             	mov    %edi,-0x30(%rbp)
 10d:	48 89 75 c8          	mov    %rsi,-0x38(%rbp)
 111:	4c 89 f6             	mov    %r14,%rsi
 114:	48 89 f7             	mov    %rsi,%rdi
 117:	4c 89 e6             	mov    %r12,%rsi
 11a:	89 95 68 ff ff ff    	mov    %edx,-0x98(%rbp)
 120:	4c 89 ea             	mov    %r13,%rdx
 123:	4c 89 bd 60 ff ff ff 	mov    %r15,-0xa0(%rbp)
 12a:	4c 89 ad 58 ff ff ff 	mov    %r13,-0xa8(%rbp)
 131:	89 85 54 ff ff ff    	mov    %eax,-0xac(%rbp)
 137:	89 8d 50 ff ff ff    	mov    %ecx,-0xb0(%rbp)
 13d:	4c 89 b5 48 ff ff ff 	mov    %r14,-0xb8(%rbp)
 144:	44 89 85 44 ff ff ff 	mov    %r8d,-0xbc(%rbp)
 14b:	44 89 8d 40 ff ff ff 	mov    %r9d,-0xc0(%rbp)
 152:	44 89 95 3c ff ff ff 	mov    %r10d,-0xc4(%rbp)
 159:	44 89 9d 38 ff ff ff 	mov    %r11d,-0xc8(%rbp)
 160:	48 89 9d 30 ff ff ff 	mov    %rbx,-0xd0(%rbp)
 167:	e8 00 00 00 00       	callq  16c <main+0xcc>
 16c:	48 8b 95 30 ff ff ff 	mov    -0xd0(%rbp),%rdx
 173:	48 89 d7             	mov    %rdx,%rdi
 176:	48 8b b5 60 ff ff ff 	mov    -0xa0(%rbp),%rsi
 17d:	48 8b 95 58 ff ff ff 	mov    -0xa8(%rbp),%rdx
 184:	e8 00 00 00 00       	callq  189 <main+0xe9>
 189:	8b bd 54 ff ff ff    	mov    -0xac(%rbp),%edi
 18f:	8b b5 50 ff ff ff    	mov    -0xb0(%rbp),%esi
 195:	8b 95 68 ff ff ff    	mov    -0x98(%rbp),%edx
 19b:	8b 8d 44 ff ff ff    	mov    -0xbc(%rbp),%ecx
 1a1:	44 8b 85 40 ff ff ff 	mov    -0xc0(%rbp),%r8d
 1a8:	44 8b 8d 3c ff ff ff 	mov    -0xc4(%rbp),%r9d
 1af:	c7 04 24 0a 00 00 00 	movl   $0xa,(%rsp)
 1b6:	48 8b 9d 48 ff ff ff 	mov    -0xb8(%rbp),%rbx
 1bd:	48 89 5c 24 08       	mov    %rbx,0x8(%rsp)
 1c2:	c7 44 24 10 0a 00 00 	movl   $0xa,0x10(%rsp)
 1c9:	00 
 1ca:	4c 8b b5 30 ff ff ff 	mov    -0xd0(%rbp),%r14
 1d1:	4c 89 74 24 18       	mov    %r14,0x18(%rsp)
 1d6:	e8 25 fe ff ff       	callq  0 <foo>
 1db:	48 bf 00 00 00 00 00 	movabs $0x0,%rdi
 1e2:	00 00 00 
 1e5:	89 85 6c ff ff ff    	mov    %eax,-0x94(%rbp)
 1eb:	8b b5 6c ff ff ff    	mov    -0x94(%rbp),%esi
 1f1:	b0 00                	mov    $0x0,%al
 1f3:	e8 00 00 00 00       	callq  1f8 <main+0x158>
 1f8:	8b 8d 6c ff ff ff    	mov    -0x94(%rbp),%ecx
 1fe:	89 85 2c ff ff ff    	mov    %eax,-0xd4(%rbp)
 204:	89 c8                	mov    %ecx,%eax
 206:	48 81 c4 d8 00 00 00 	add    $0xd8,%rsp
 20d:	5b                   	pop    %rbx
 20e:	41 5c                	pop    %r12
 210:	41 5d                	pop    %r13
 212:	41 5e                	pop    %r14
 214:	41 5f                	pop    %r15
 216:	5d                   	pop    %rbp
 217:	c3                   	retq   
