
test_20.o:     file format elf64-x86-64


Disassembly of section .text:

0000000000000000 <switches>:
   0:	55                   	push   %rbp
   1:	48 89 e5             	mov    %rsp,%rbp
   4:	48 83 ec 10          	sub    $0x10,%rsp
   8:	89 7d fc             	mov    %edi,-0x4(%rbp)
   b:	8b 45 fc             	mov    -0x4(%rbp),%eax
   e:	3d 89 23 01 00       	cmp    $0x12389,%eax
  13:	0f 84 77 01 00 00    	je     190 <switches+0x190>
  19:	3d 89 23 01 00       	cmp    $0x12389,%eax
  1e:	7f 75                	jg     95 <switches+0x95>
  20:	83 f8 06             	cmp    $0x6,%eax
  23:	0f 84 1c 01 00 00    	je     145 <switches+0x145>
  29:	83 f8 06             	cmp    $0x6,%eax
  2c:	7f 32                	jg     60 <switches+0x60>
  2e:	83 f8 01             	cmp    $0x1,%eax
  31:	0f 84 e1 00 00 00    	je     118 <switches+0x118>
  37:	83 f8 01             	cmp    $0x1,%eax
  3a:	7f 0d                	jg     49 <switches+0x49>
  3c:	85 c0                	test   %eax,%eax
  3e:	0f 84 c5 00 00 00    	je     109 <switches+0x109>
  44:	e9 c2 01 00 00       	jmpq   20b <switches+0x20b>
  49:	83 f8 02             	cmp    $0x2,%eax
  4c:	0f 84 d5 00 00 00    	je     127 <switches+0x127>
  52:	83 f8 04             	cmp    $0x4,%eax
  55:	0f 84 db 00 00 00    	je     136 <switches+0x136>
  5b:	e9 ab 01 00 00       	jmpq   20b <switches+0x20b>
  60:	83 f8 0d             	cmp    $0xd,%eax
  63:	0f 84 fa 00 00 00    	je     163 <switches+0x163>
  69:	83 f8 0d             	cmp    $0xd,%eax
  6c:	7f 0e                	jg     7c <switches+0x7c>
  6e:	83 f8 0c             	cmp    $0xc,%eax
  71:	0f 84 dd 00 00 00    	je     154 <switches+0x154>
  77:	e9 8f 01 00 00       	jmpq   20b <switches+0x20b>
  7c:	83 f8 13             	cmp    $0x13,%eax
  7f:	0f 84 ed 00 00 00    	je     172 <switches+0x172>
  85:	3d ff 00 00 00       	cmp    $0xff,%eax
  8a:	0f 84 f1 00 00 00    	je     181 <switches+0x181>
  90:	e9 76 01 00 00       	jmpq   20b <switches+0x20b>
  95:	3d 8f 23 01 00       	cmp    $0x1238f,%eax
  9a:	0f 84 2f 01 00 00    	je     1cf <switches+0x1cf>
  a0:	3d 8f 23 01 00       	cmp    $0x1238f,%eax
  a5:	7f 31                	jg     d8 <switches+0xd8>
  a7:	3d 8b 23 01 00       	cmp    $0x1238b,%eax
  ac:	0f 84 f9 00 00 00    	je     1ab <switches+0x1ab>
  b2:	3d 8b 23 01 00       	cmp    $0x1238b,%eax
  b7:	0f 8c e2 00 00 00    	jl     19f <switches+0x19f>
  bd:	3d 8c 23 01 00       	cmp    $0x1238c,%eax
  c2:	0f 84 ef 00 00 00    	je     1b7 <switches+0x1b7>
  c8:	3d 8d 23 01 00       	cmp    $0x1238d,%eax
  cd:	0f 84 f0 00 00 00    	je     1c3 <switches+0x1c3>
  d3:	e9 33 01 00 00       	jmpq   20b <switches+0x20b>
  d8:	3d 91 23 01 00       	cmp    $0x12391,%eax
  dd:	0f 84 04 01 00 00    	je     1e7 <switches+0x1e7>
  e3:	3d 91 23 01 00       	cmp    $0x12391,%eax
  e8:	0f 8c ed 00 00 00    	jl     1db <switches+0x1db>
  ee:	3d 92 23 01 00       	cmp    $0x12392,%eax
  f3:	0f 84 fa 00 00 00    	je     1f3 <switches+0x1f3>
  f9:	3d 93 23 01 00       	cmp    $0x12393,%eax
  fe:	0f 84 fb 00 00 00    	je     1ff <switches+0x1ff>
 104:	e9 02 01 00 00       	jmpq   20b <switches+0x20b>
 109:	bf 00 00 00 00       	mov    $0x0,%edi
 10e:	e8 00 00 00 00       	callq  113 <switches+0x113>
 113:	e9 07 01 00 00       	jmpq   21f <switches+0x21f>
 118:	bf 00 00 00 00       	mov    $0x0,%edi
 11d:	e8 00 00 00 00       	callq  122 <switches+0x122>
 122:	e9 f8 00 00 00       	jmpq   21f <switches+0x21f>
 127:	bf 00 00 00 00       	mov    $0x0,%edi
 12c:	e8 00 00 00 00       	callq  131 <switches+0x131>
 131:	e9 e9 00 00 00       	jmpq   21f <switches+0x21f>
 136:	bf 00 00 00 00       	mov    $0x0,%edi
 13b:	e8 00 00 00 00       	callq  140 <switches+0x140>
 140:	e9 da 00 00 00       	jmpq   21f <switches+0x21f>
 145:	bf 00 00 00 00       	mov    $0x0,%edi
 14a:	e8 00 00 00 00       	callq  14f <switches+0x14f>
 14f:	e9 cb 00 00 00       	jmpq   21f <switches+0x21f>
 154:	bf 00 00 00 00       	mov    $0x0,%edi
 159:	e8 00 00 00 00       	callq  15e <switches+0x15e>
 15e:	e9 bc 00 00 00       	jmpq   21f <switches+0x21f>
 163:	bf 00 00 00 00       	mov    $0x0,%edi
 168:	e8 00 00 00 00       	callq  16d <switches+0x16d>
 16d:	e9 ad 00 00 00       	jmpq   21f <switches+0x21f>
 172:	bf 00 00 00 00       	mov    $0x0,%edi
 177:	e8 00 00 00 00       	callq  17c <switches+0x17c>
 17c:	e9 9e 00 00 00       	jmpq   21f <switches+0x21f>
 181:	bf 00 00 00 00       	mov    $0x0,%edi
 186:	e8 00 00 00 00       	callq  18b <switches+0x18b>
 18b:	e9 8f 00 00 00       	jmpq   21f <switches+0x21f>
 190:	bf 00 00 00 00       	mov    $0x0,%edi
 195:	e8 00 00 00 00       	callq  19a <switches+0x19a>
 19a:	e9 80 00 00 00       	jmpq   21f <switches+0x21f>
 19f:	bf 00 00 00 00       	mov    $0x0,%edi
 1a4:	e8 00 00 00 00       	callq  1a9 <switches+0x1a9>
 1a9:	eb 74                	jmp    21f <switches+0x21f>
 1ab:	bf 00 00 00 00       	mov    $0x0,%edi
 1b0:	e8 00 00 00 00       	callq  1b5 <switches+0x1b5>
 1b5:	eb 68                	jmp    21f <switches+0x21f>
 1b7:	bf 00 00 00 00       	mov    $0x0,%edi
 1bc:	e8 00 00 00 00       	callq  1c1 <switches+0x1c1>
 1c1:	eb 5c                	jmp    21f <switches+0x21f>
 1c3:	bf 00 00 00 00       	mov    $0x0,%edi
 1c8:	e8 00 00 00 00       	callq  1cd <switches+0x1cd>
 1cd:	eb 50                	jmp    21f <switches+0x21f>
 1cf:	bf 00 00 00 00       	mov    $0x0,%edi
 1d4:	e8 00 00 00 00       	callq  1d9 <switches+0x1d9>
 1d9:	eb 44                	jmp    21f <switches+0x21f>
 1db:	bf 00 00 00 00       	mov    $0x0,%edi
 1e0:	e8 00 00 00 00       	callq  1e5 <switches+0x1e5>
 1e5:	eb 38                	jmp    21f <switches+0x21f>
 1e7:	bf 00 00 00 00       	mov    $0x0,%edi
 1ec:	e8 00 00 00 00       	callq  1f1 <switches+0x1f1>
 1f1:	eb 2c                	jmp    21f <switches+0x21f>
 1f3:	bf 00 00 00 00       	mov    $0x0,%edi
 1f8:	e8 00 00 00 00       	callq  1fd <switches+0x1fd>
 1fd:	eb 20                	jmp    21f <switches+0x21f>
 1ff:	bf 00 00 00 00       	mov    $0x0,%edi
 204:	e8 00 00 00 00       	callq  209 <switches+0x209>
 209:	eb 14                	jmp    21f <switches+0x21f>
 20b:	8b 45 fc             	mov    -0x4(%rbp),%eax
 20e:	89 c6                	mov    %eax,%esi
 210:	bf 00 00 00 00       	mov    $0x0,%edi
 215:	b8 00 00 00 00       	mov    $0x0,%eax
 21a:	e8 00 00 00 00       	callq  21f <switches+0x21f>
 21f:	b8 00 00 00 00       	mov    $0x0,%eax
 224:	c9                   	leaveq 
 225:	c3                   	retq   
