grep  -A 40  "ListItem"  Output/fp-cmp-4.kstate  | sed -e '/RIP/d' 1> /tmp/tmpfileiq5a6 2>&1 
numOfInstrs: 152

	0:	55	push   %rbp
	1:	48 89 e5	mov    %rsp,%rbp
	2:	48 83 ec 10	sub    $0x10,%rsp
	3:	c7 45 fc 06 00 00 00	movl   $0x6,-0x4(%rbp)
	4:	c7 45 f8 00 00 00 00	movl   $0x0,-0x8(%rbp)
	5:	e9 9a 02 00 00	jmpq   0x400758 <L70>
	6:	8b 45 f8	mov    -0x8(%rbp),%eax
	7:	3b 45 fc	cmp    -0x4(%rbp),%eax
	8:	0f 8c 5a fd ff ff	jl     0x4004be <L71>
	9:	8b 45 f8	mov    -0x8(%rbp),%eax
	10:	48 63 d0	movslq %eax,%rdx
	11:	48 89 d0	mov    %rdx,%rax
	12:	48 01 c0	add    %rax,%rax
	13:	48 01 d0	add    %rdx,%rax
	14:	48 c1 e0 03	shl    $0x3,%rax
	15:	48 05 6e 07 40 00	add    $0x40076e,%rax
	16:	0f b6 40 10	movzbl 0x10(%rax),%eax
	17:	83 e0 01	and    $0x1,%eax
	18:	0f b6 c8	movzbl %al,%ecx
	19:	8b 45 f8	mov    -0x8(%rbp),%eax
	20:	48 63 d0	movslq %eax,%rdx
	21:	48 89 d0	mov    %rdx,%rax
	22:	48 01 c0	add    %rax,%rax
	23:	48 01 d0	add    %rdx,%rax
	24:	48 c1 e0 03	shl    $0x3,%rax
	25:	48 05 76 07 40 00	add    $0x400776,%rax
	26:	c5 fb 10 00	vmovsd (%rax),%xmm0
	27:	8b 45 f8	mov    -0x8(%rbp),%eax
	28:	48 63 d0	movslq %eax,%rdx
	29:	48 89 d0	mov    %rdx,%rax
	30:	48 01 c0	add    %rax,%rax
	31:	48 01 d0	add    %rdx,%rax
	32:	48 c1 e0 03	shl    $0x3,%rax
	33:	48 05 6e 07 40 00	add    $0x40076e,%rax
	34:	48 8b 00	mov    (%rax),%rax
	35:	89 cf	mov    %ecx,%edi
	36:	c5 f9 28 c8	vmovapd %xmm0,%xmm1
	37:	c4 e1 f9 6e c0	vmovq  %rax,%xmm0
	38:	e8 f5 fd ff ff	callq  0x40031f <test_isunordered>
	39:	55	push   %rbp
	40:	48 89 e5	mov    %rsp,%rbp
	41:	48 83 ec 18	sub    $0x18,%rsp
	42:	c5 fb 11 45 f8	vmovsd %xmm0,-0x8(%rbp)
	43:	c5 fb 11 4d f0	vmovsd %xmm1,-0x10(%rbp)
	44:	89 7d ec	mov    %edi,-0x14(%rbp)
	45:	c5 fb 10 45 f8	vmovsd -0x8(%rbp),%xmm0
	46:	c5 f9 2e 45 f0	vucomisd -0x10(%rbp),%xmm0
	47:	7b 0b	jnp    0x40034b <L46>
	48:	83 7d ec 00	cmpl   $0x0,-0x14(%rbp)
	49:	75 10	jne    0x400356 <L48>
	50:	90	nop
	51:	c9	leaveq 
	52:	c3	retq   
	53:	8b 45 f8	mov    -0x8(%rbp),%eax
	54:	48 63 d0	movslq %eax,%rdx
	55:	48 89 d0	mov    %rdx,%rax
	56:	48 01 c0	add    %rax,%rax
	57:	48 01 d0	add    %rdx,%rax
	58:	48 c1 e0 03	shl    $0x3,%rax
	59:	48 05 6e 07 40 00	add    $0x40076e,%rax
	60:	0f b6 40 10	movzbl 0x10(%rax),%eax
	61:	d0 e8	shr    %al
	62:	83 e0 01	and    $0x1,%eax
	63:	0f b6 c8	movzbl %al,%ecx
	64:	8b 45 f8	mov    -0x8(%rbp),%eax
	65:	48 63 d0	movslq %eax,%rdx
	66:	48 89 d0	mov    %rdx,%rax
	67:	48 01 c0	add    %rax,%rax
	68:	48 01 d0	add    %rdx,%rax
	69:	48 c1 e0 03	shl    $0x3,%rax
	70:	48 05 76 07 40 00	add    $0x400776,%rax
	71:	c5 fb 10 00	vmovsd (%rax),%xmm0
	72:	8b 45 f8	mov    -0x8(%rbp),%eax
	73:	48 63 d0	movslq %eax,%rdx
	74:	48 89 d0	mov    %rdx,%rax
	75:	48 01 c0	add    %rax,%rax
	76:	48 01 d0	add    %rdx,%rax
	77:	48 c1 e0 03	shl    $0x3,%rax
	78:	48 05 6e 07 40 00	add    $0x40076e,%rax
	79:	48 8b 00	mov    (%rax),%rax
	80:	89 cf	mov    %ecx,%edi
	81:	c5 f9 28 c8	vmovapd %xmm0,%xmm1
	82:	c4 e1 f9 6e c0	vmovq  %rax,%xmm0
	83:	e8 c1 fd ff ff	callq  0x400359 <test_isless>
	84:	55	push   %rbp
	85:	48 89 e5	mov    %rsp,%rbp
	86:	48 83 ec 18	sub    $0x18,%rsp
	87:	c5 fb 11 45 f8	vmovsd %xmm0,-0x8(%rbp)
	88:	c5 fb 11 4d f0	vmovsd %xmm1,-0x10(%rbp)
	89:	89 7d ec	mov    %edi,-0x14(%rbp)
	90:	c5 fb 10 45 f0	vmovsd -0x10(%rbp),%xmm0
	91:	c5 f9 2e 45 f8	vucomisd -0x8(%rbp),%xmm0
	92:	0f 96 c0	setbe  %al
	93:	83 f0 01	xor    $0x1,%eax
	94:	84 c0	test   %al,%al
	95:	74 0b	je     0x40038d <L50>
	96:	83 7d ec 00	cmpl   $0x0,-0x14(%rbp)
	97:	74 05	je     0x400398 <L52>
	98:	90	nop
	99:	c9	leaveq 
	100:	c3	retq   
	101:	8b 45 f8	mov    -0x8(%rbp),%eax
	102:	48 63 d0	movslq %eax,%rdx
	103:	48 89 d0	mov    %rdx,%rax
	104:	48 01 c0	add    %rax,%rax
	105:	48 01 d0	add    %rdx,%rax
	106:	48 c1 e0 03	shl    $0x3,%rax
	107:	48 05 6e 07 40 00	add    $0x40076e,%rax
	108:	0f b6 40 10	movzbl 0x10(%rax),%eax
	109:	c0 e8 02	shr    $0x2,%al
	110:	83 e0 01	and    $0x1,%eax
	111:	0f b6 c8	movzbl %al,%ecx
	112:	8b 45 f8	mov    -0x8(%rbp),%eax
	113:	48 63 d0	movslq %eax,%rdx
	114:	48 89 d0	mov    %rdx,%rax
	115:	48 01 c0	add    %rax,%rax
	116:	48 01 d0	add    %rdx,%rax
	117:	48 c1 e0 03	shl    $0x3,%rax
	118:	48 05 76 07 40 00	add    $0x400776,%rax
	119:	c5 fb 10 00	vmovsd (%rax),%xmm0
	120:	8b 45 f8	mov    -0x8(%rbp),%eax
	121:	48 63 d0	movslq %eax,%rdx
	122:	48 89 d0	mov    %rdx,%rax
	123:	48 01 c0	add    %rax,%rax
	124:	48 01 d0	add    %rdx,%rax
	125:	48 c1 e0 03	shl    $0x3,%rax
	126:	48 05 6e 07 40 00	add    $0x40076e,%rax
	127:	48 8b 00	mov    (%rax),%rax
	128:	89 cf	mov    %ecx,%edi
	129:	c5 f9 28 c8	vmovapd %xmm0,%xmm1
	130:	c4 e1 f9 6e c0	vmovq  %rax,%xmm0
	131:	e8 94 fd ff ff	callq  0x40039b <test_islessequal>
	132:	55	push   %rbp
	133:	48 89 e5	mov    %rsp,%rbp
	134:	48 83 ec 18	sub    $0x18,%rsp
	135:	c5 fb 11 45 f8	vmovsd %xmm0,-0x8(%rbp)
	136:	c5 fb 11 4d f0	vmovsd %xmm1,-0x10(%rbp)
	137:	89 7d ec	mov    %edi,-0x14(%rbp)
	138:	c5 fb 10 45 f0	vmovsd -0x10(%rbp),%xmm0
	139:	c5 f9 2e 45 f8	vucomisd -0x8(%rbp),%xmm0
	140:	0f 92 c0	setb   %al
	141:	83 f0 01	xor    $0x1,%eax
	142:	84 c0	test   %al,%al
	143:	74 0b	je     0x4003cf <L54>
	144:	83 7d ec 00	cmpl   $0x0,-0x14(%rbp)
	145:	74 05	je     0x4003da <L56>
	146:	90	nop
	147:	c9	leaveq 
	148:	c3	retq   
	149:	8b 45 f8	mov    -0x8(%rbp),%eax
	150:	48 63 d0	movslq %eax,%rdx
	151:	48 89 d0	mov    %rdx,%rax
	152:	48 01 c0	add    %rax,%rax
	153:	48 01 d0	add    %rdx,%rax
	154:	48 c1 e0 03	shl    $0x3,%rax
	155:	48 05 6e 07 40 00	add    $0x40076e,%rax
	156:	0f b6 40 10	movzbl 0x10(%rax),%eax
	157:	c0 e8 03	shr    $0x3,%al
	158:	83 e0 01	and    $0x1,%eax
	159:	0f b6 c8	movzbl %al,%ecx
	160:	8b 45 f8	mov    -0x8(%rbp),%eax
	161:	48 63 d0	movslq %eax,%rdx
	162:	48 89 d0	mov    %rdx,%rax
	163:	48 01 c0	add    %rax,%rax
	164:	48 01 d0	add    %rdx,%rax
	165:	48 c1 e0 03	shl    $0x3,%rax
	166:	48 05 76 07 40 00	add    $0x400776,%rax
	167:	c5 fb 10 00	vmovsd (%rax),%xmm0
	168:	8b 45 f8	mov    -0x8(%rbp),%eax
	169:	48 63 d0	movslq %eax,%rdx
	170:	48 89 d0	mov    %rdx,%rax
	171:	48 01 c0	add    %rax,%rax
	172:	48 01 d0	add    %rdx,%rax
	173:	48 c1 e0 03	shl    $0x3,%rax
	174:	48 05 6e 07 40 00	add    $0x40076e,%rax
	175:	48 8b 00	mov    (%rax),%rax
	176:	89 cf	mov    %ecx,%edi
	177:	c5 f9 28 c8	vmovapd %xmm0,%xmm1
	178:	c4 e1 f9 6e c0	vmovq  %rax,%xmm0
	179:	e8 67 fd ff ff	callq  0x4003dd <test_isgreater>
	180:	55	push   %rbp
	181:	48 89 e5	mov    %rsp,%rbp
	182:	48 83 ec 18	sub    $0x18,%rsp
	183:	c5 fb 11 45 f8	vmovsd %xmm0,-0x8(%rbp)
	184:	c5 fb 11 4d f0	vmovsd %xmm1,-0x10(%rbp)
	185:	89 7d ec	mov    %edi,-0x14(%rbp)
	186:	c5 fb 10 45 f8	vmovsd -0x8(%rbp),%xmm0
	187:	c5 f9 2e 45 f0	vucomisd -0x10(%rbp),%xmm0
	188:	0f 96 c0	setbe  %al
	189:	83 f0 01	xor    $0x1,%eax
	190:	84 c0	test   %al,%al
	191:	74 0b	je     0x400411 <L58>
	192:	83 7d ec 00	cmpl   $0x0,-0x14(%rbp)
	193:	74 05	je     0x40041c <L60>
	194:	90	nop
	195:	c9	leaveq 
	196:	c3	retq   
	197:	8b 45 f8	mov    -0x8(%rbp),%eax
	198:	48 63 d0	movslq %eax,%rdx
	199:	48 89 d0	mov    %rdx,%rax
	200:	48 01 c0	add    %rax,%rax
	201:	48 01 d0	add    %rdx,%rax
	202:	48 c1 e0 03	shl    $0x3,%rax
	203:	48 05 6e 07 40 00	add    $0x40076e,%rax
	204:	0f b6 40 10	movzbl 0x10(%rax),%eax
	205:	c0 e8 04	shr    $0x4,%al
	206:	83 e0 01	and    $0x1,%eax
	207:	0f b6 c8	movzbl %al,%ecx
	208:	8b 45 f8	mov    -0x8(%rbp),%eax
	209:	48 63 d0	movslq %eax,%rdx
	210:	48 89 d0	mov    %rdx,%rax
	211:	48 01 c0	add    %rax,%rax
	212:	48 01 d0	add    %rdx,%rax
	213:	48 c1 e0 03	shl    $0x3,%rax
	214:	48 05 76 07 40 00	add    $0x400776,%rax
	215:	c5 fb 10 00	vmovsd (%rax),%xmm0
	216:	8b 45 f8	mov    -0x8(%rbp),%eax
	217:	48 63 d0	movslq %eax,%rdx
	218:	48 89 d0	mov    %rdx,%rax
	219:	48 01 c0	add    %rax,%rax
	220:	48 01 d0	add    %rdx,%rax
	221:	48 c1 e0 03	shl    $0x3,%rax
	222:	48 05 6e 07 40 00	add    $0x40076e,%rax
	223:	48 8b 00	mov    (%rax),%rax
	224:	89 cf	mov    %ecx,%edi
	225:	c5 f9 28 c8	vmovapd %xmm0,%xmm1
	226:	c4 e1 f9 6e c0	vmovq  %rax,%xmm0
	227:	e8 3a fd ff ff	callq  0x40041f <test_isgreaterequal>
	228:	55	push   %rbp
	229:	48 89 e5	mov    %rsp,%rbp
	230:	48 83 ec 18	sub    $0x18,%rsp
	231:	c5 fb 11 45 f8	vmovsd %xmm0,-0x8(%rbp)
	232:	c5 fb 11 4d f0	vmovsd %xmm1,-0x10(%rbp)
	233:	89 7d ec	mov    %edi,-0x14(%rbp)
	234:	c5 fb 10 45 f8	vmovsd -0x8(%rbp),%xmm0
	235:	c5 f9 2e 45 f0	vucomisd -0x10(%rbp),%xmm0
	236:	0f 92 c0	setb   %al
	237:	83 f0 01	xor    $0x1,%eax
	238:	84 c0	test   %al,%al
	239:	74 0b	je     0x400453 <L62>
	240:	83 7d ec 00	cmpl   $0x0,-0x14(%rbp)
	241:	74 05	je     0x40045e <L64>
	242:	90	nop
	243:	c9	leaveq 
	244:	c3	retq   
	245:	8b 45 f8	mov    -0x8(%rbp),%eax
	246:	48 63 d0	movslq %eax,%rdx
	247:	48 89 d0	mov    %rdx,%rax
	248:	48 01 c0	add    %rax,%rax
	249:	48 01 d0	add    %rdx,%rax
	250:	48 c1 e0 03	shl    $0x3,%rax
	251:	48 05 6e 07 40 00	add    $0x40076e,%rax
	252:	0f b6 40 10	movzbl 0x10(%rax),%eax
	253:	c0 e8 05	shr    $0x5,%al
	254:	83 e0 01	and    $0x1,%eax
	255:	0f b6 c8	movzbl %al,%ecx
	256:	8b 45 f8	mov    -0x8(%rbp),%eax
	257:	48 63 d0	movslq %eax,%rdx
	258:	48 89 d0	mov    %rdx,%rax
	259:	48 01 c0	add    %rax,%rax
	260:	48 01 d0	add    %rdx,%rax
	261:	48 c1 e0 03	shl    $0x3,%rax
	262:	48 05 76 07 40 00	add    $0x400776,%rax
	263:	c5 fb 10 00	vmovsd (%rax),%xmm0
	264:	8b 45 f8	mov    -0x8(%rbp),%eax
	265:	48 63 d0	movslq %eax,%rdx
	266:	48 89 d0	mov    %rdx,%rax
	267:	48 01 c0	add    %rax,%rax
	268:	48 01 d0	add    %rdx,%rax
	269:	48 c1 e0 03	shl    $0x3,%rax
	270:	48 05 6e 07 40 00	add    $0x40076e,%rax
	271:	48 8b 00	mov    (%rax),%rax
	272:	89 cf	mov    %ecx,%edi
	273:	c5 f9 28 c8	vmovapd %xmm0,%xmm1
	274:	c4 e1 f9 6e c0	vmovq  %rax,%xmm0
	275:	e8 0d fd ff ff	callq  0x400461 <test_islessgreater>
	276:	55	push   %rbp
	277:	48 89 e5	mov    %rsp,%rbp
	278:	48 83 ec 18	sub    $0x18,%rsp
	279:	c5 fb 11 45 f8	vmovsd %xmm0,-0x8(%rbp)
	280:	c5 fb 11 4d f0	vmovsd %xmm1,-0x10(%rbp)
	281:	89 7d ec	mov    %edi,-0x14(%rbp)
	282:	c5 fb 10 45 f8	vmovsd -0x8(%rbp),%xmm0
	283:	c5 f9 2e 45 f0	vucomisd -0x10(%rbp),%xmm0
	284:	0f 94 c0	sete   %al
	285:	83 f0 01	xor    $0x1,%eax
	286:	84 c0	test   %al,%al
	287:	74 0b	je     0x400495 <L66>
	288:	83 7d ec 00	cmpl   $0x0,-0x14(%rbp)
	289:	74 05	je     0x4004a0 <L68>
	290:	90	nop
	291:	c9	leaveq 
	292:	c3	retq   
	293:	83 45 f8 01	addl   $0x1,-0x8(%rbp)
	294:	8b 45 f8	mov    -0x8(%rbp),%eax
	295:	3b 45 fc	cmp    -0x4(%rbp),%eax
	296:	0f 8c 5a fd ff ff	jl     0x4004be <L71>
	297:	8b 45 f8	mov    -0x8(%rbp),%eax
	298:	48 63 d0	movslq %eax,%rdx
	299:	48 89 d0	mov    %rdx,%rax
	300:	48 01 c0	add    %rax,%rax
	301:	48 01 d0	add    %rdx,%rax
	302:	48 c1 e0 03	shl    $0x3,%rax
	303:	48 05 6e 07 40 00	add    $0x40076e,%rax
	304:	0f b6 40 10	movzbl 0x10(%rax),%eax
	305:	83 e0 01	and    $0x1,%eax
	306:	0f b6 c8	movzbl %al,%ecx
	307:	8b 45 f8	mov    -0x8(%rbp),%eax
	308:	48 63 d0	movslq %eax,%rdx
	309:	48 89 d0	mov    %rdx,%rax
	310:	48 01 c0	add    %rax,%rax
	311:	48 01 d0	add    %rdx,%rax
	312:	48 c1 e0 03	shl    $0x3,%rax
	313:	48 05 76 07 40 00	add    $0x400776,%rax
	314:	c5 fb 10 00	vmovsd (%rax),%xmm0
	315:	8b 45 f8	mov    -0x8(%rbp),%eax
	316:	48 63 d0	movslq %eax,%rdx
	317:	48 89 d0	mov    %rdx,%rax
	318:	48 01 c0	add    %rax,%rax
	319:	48 01 d0	add    %rdx,%rax
	320:	48 c1 e0 03	shl    $0x3,%rax
	321:	48 05 6e 07 40 00	add    $0x40076e,%rax
	322:	48 8b 00	mov    (%rax),%rax
	323:	89 cf	mov    %ecx,%edi
	324:	c5 f9 28 c8	vmovapd %xmm0,%xmm1
	325:	c4 e1 f9 6e c0	vmovq  %rax,%xmm0
	326:	e8 f5 fd ff ff	callq  0x40031f <test_isunordered>
	327:	55	push   %rbp
	328:	48 89 e5	mov    %rsp,%rbp
	329:	48 83 ec 18	sub    $0x18,%rsp
	330:	c5 fb 11 45 f8	vmovsd %xmm0,-0x8(%rbp)
	331:	c5 fb 11 4d f0	vmovsd %xmm1,-0x10(%rbp)
	332:	89 7d ec	mov    %edi,-0x14(%rbp)
	333:	c5 fb 10 45 f8	vmovsd -0x8(%rbp),%xmm0
	334:	c5 f9 2e 45 f0	vucomisd -0x10(%rbp),%xmm0
	335:	7b 0b	jnp    0x40034b <L46>
	336:	83 7d ec 00	cmpl   $0x0,-0x14(%rbp)
	337:	75 10	jne    0x400356 <L48>
	338:	90	nop
	339:	c9	leaveq 
	340:	c3	retq   
	341:	8b 45 f8	mov    -0x8(%rbp),%eax
	342:	48 63 d0	movslq %eax,%rdx
	343:	48 89 d0	mov    %rdx,%rax
	344:	48 01 c0	add    %rax,%rax
	345:	48 01 d0	add    %rdx,%rax
	346:	48 c1 e0 03	shl    $0x3,%rax
	347:	48 05 6e 07 40 00	add    $0x40076e,%rax
	348:	0f b6 40 10	movzbl 0x10(%rax),%eax
	349:	d0 e8	shr    %al
	350:	83 e0 01	and    $0x1,%eax
	351:	0f b6 c8	movzbl %al,%ecx
	352:	8b 45 f8	mov    -0x8(%rbp),%eax
	353:	48 63 d0	movslq %eax,%rdx
	354:	48 89 d0	mov    %rdx,%rax
	355:	48 01 c0	add    %rax,%rax
	356:	48 01 d0	add    %rdx,%rax
	357:	48 c1 e0 03	shl    $0x3,%rax
	358:	48 05 76 07 40 00	add    $0x400776,%rax
	359:	c5 fb 10 00	vmovsd (%rax),%xmm0
	360:	8b 45 f8	mov    -0x8(%rbp),%eax
	361:	48 63 d0	movslq %eax,%rdx
	362:	48 89 d0	mov    %rdx,%rax
	363:	48 01 c0	add    %rax,%rax
	364:	48 01 d0	add    %rdx,%rax
	365:	48 c1 e0 03	shl    $0x3,%rax
	366:	48 05 6e 07 40 00	add    $0x40076e,%rax
	367:	48 8b 00	mov    (%rax),%rax
	368:	89 cf	mov    %ecx,%edi
	369:	c5 f9 28 c8	vmovapd %xmm0,%xmm1
	370:	c4 e1 f9 6e c0	vmovq  %rax,%xmm0
	371:	e8 c1 fd ff ff	callq  0x400359 <test_isless>
	372:	55	push   %rbp
	373:	48 89 e5	mov    %rsp,%rbp
	374:	48 83 ec 18	sub    $0x18,%rsp
	375:	c5 fb 11 45 f8	vmovsd %xmm0,-0x8(%rbp)
	376:	c5 fb 11 4d f0	vmovsd %xmm1,-0x10(%rbp)
	377:	89 7d ec	mov    %edi,-0x14(%rbp)
	378:	c5 fb 10 45 f0	vmovsd -0x10(%rbp),%xmm0
	379:	c5 f9 2e 45 f8	vucomisd -0x8(%rbp),%xmm0
	380:	0f 96 c0	setbe  %al
	381:	83 f0 01	xor    $0x1,%eax
	382:	84 c0	test   %al,%al
	383:	74 0b	je     0x40038d <L50>
	384:	83 7d ec 00	cmpl   $0x0,-0x14(%rbp)
	385:	74 05	je     0x400398 <L52>
	386:	90	nop
	387:	c9	leaveq 
	388:	c3	retq   
	389:	8b 45 f8	mov    -0x8(%rbp),%eax
	390:	48 63 d0	movslq %eax,%rdx
	391:	48 89 d0	mov    %rdx,%rax
	392:	48 01 c0	add    %rax,%rax
	393:	48 01 d0	add    %rdx,%rax
	394:	48 c1 e0 03	shl    $0x3,%rax
	395:	48 05 6e 07 40 00	add    $0x40076e,%rax
	396:	0f b6 40 10	movzbl 0x10(%rax),%eax
	397:	c0 e8 02	shr    $0x2,%al
	398:	83 e0 01	and    $0x1,%eax
	399:	0f b6 c8	movzbl %al,%ecx
	400:	8b 45 f8	mov    -0x8(%rbp),%eax
	401:	48 63 d0	movslq %eax,%rdx
	402:	48 89 d0	mov    %rdx,%rax
	403:	48 01 c0	add    %rax,%rax
	404:	48 01 d0	add    %rdx,%rax
	405:	48 c1 e0 03	shl    $0x3,%rax
	406:	48 05 76 07 40 00	add    $0x400776,%rax
	407:	c5 fb 10 00	vmovsd (%rax),%xmm0
	408:	8b 45 f8	mov    -0x8(%rbp),%eax
	409:	48 63 d0	movslq %eax,%rdx
	410:	48 89 d0	mov    %rdx,%rax
	411:	48 01 c0	add    %rax,%rax
	412:	48 01 d0	add    %rdx,%rax
	413:	48 c1 e0 03	shl    $0x3,%rax
	414:	48 05 6e 07 40 00	add    $0x40076e,%rax
	415:	48 8b 00	mov    (%rax),%rax
	416:	89 cf	mov    %ecx,%edi
	417:	c5 f9 28 c8	vmovapd %xmm0,%xmm1
	418:	c4 e1 f9 6e c0	vmovq  %rax,%xmm0
	419:	e8 94 fd ff ff	callq  0x40039b <test_islessequal>
	420:	55	push   %rbp
	421:	48 89 e5	mov    %rsp,%rbp
	422:	48 83 ec 18	sub    $0x18,%rsp
	423:	c5 fb 11 45 f8	vmovsd %xmm0,-0x8(%rbp)
	424:	c5 fb 11 4d f0	vmovsd %xmm1,-0x10(%rbp)
	425:	89 7d ec	mov    %edi,-0x14(%rbp)
	426:	c5 fb 10 45 f0	vmovsd -0x10(%rbp),%xmm0
	427:	c5 f9 2e 45 f8	vucomisd -0x8(%rbp),%xmm0
	428:	0f 92 c0	setb   %al
	429:	83 f0 01	xor    $0x1,%eax
	430:	84 c0	test   %al,%al
	431:	74 0b	je     0x4003cf <L54>
	432:	83 7d ec 00	cmpl   $0x0,-0x14(%rbp)
	433:	74 05	je     0x4003da <L56>
	434:	90	nop
	435:	c9	leaveq 
	436:	c3	retq   
	437:	8b 45 f8	mov    -0x8(%rbp),%eax
	438:	48 63 d0	movslq %eax,%rdx
	439:	48 89 d0	mov    %rdx,%rax
	440:	48 01 c0	add    %rax,%rax
	441:	48 01 d0	add    %rdx,%rax
	442:	48 c1 e0 03	shl    $0x3,%rax
	443:	48 05 6e 07 40 00	add    $0x40076e,%rax
	444:	0f b6 40 10	movzbl 0x10(%rax),%eax
	445:	c0 e8 03	shr    $0x3,%al
	446:	83 e0 01	and    $0x1,%eax
	447:	0f b6 c8	movzbl %al,%ecx
	448:	8b 45 f8	mov    -0x8(%rbp),%eax
	449:	48 63 d0	movslq %eax,%rdx
	450:	48 89 d0	mov    %rdx,%rax
	451:	48 01 c0	add    %rax,%rax
	452:	48 01 d0	add    %rdx,%rax
	453:	48 c1 e0 03	shl    $0x3,%rax
	454:	48 05 76 07 40 00	add    $0x400776,%rax
	455:	c5 fb 10 00	vmovsd (%rax),%xmm0
	456:	8b 45 f8	mov    -0x8(%rbp),%eax
	457:	48 63 d0	movslq %eax,%rdx
	458:	48 89 d0	mov    %rdx,%rax
	459:	48 01 c0	add    %rax,%rax
	460:	48 01 d0	add    %rdx,%rax
	461:	48 c1 e0 03	shl    $0x3,%rax
	462:	48 05 6e 07 40 00	add    $0x40076e,%rax
	463:	48 8b 00	mov    (%rax),%rax
	464:	89 cf	mov    %ecx,%edi
	465:	c5 f9 28 c8	vmovapd %xmm0,%xmm1
	466:	c4 e1 f9 6e c0	vmovq  %rax,%xmm0
	467:	e8 67 fd ff ff	callq  0x4003dd <test_isgreater>
	468:	55	push   %rbp
	469:	48 89 e5	mov    %rsp,%rbp
	470:	48 83 ec 18	sub    $0x18,%rsp
	471:	c5 fb 11 45 f8	vmovsd %xmm0,-0x8(%rbp)
	472:	c5 fb 11 4d f0	vmovsd %xmm1,-0x10(%rbp)
	473:	89 7d ec	mov    %edi,-0x14(%rbp)
	474:	c5 fb 10 45 f8	vmovsd -0x8(%rbp),%xmm0
	475:	c5 f9 2e 45 f0	vucomisd -0x10(%rbp),%xmm0
	476:	0f 96 c0	setbe  %al
	477:	83 f0 01	xor    $0x1,%eax
	478:	84 c0	test   %al,%al
	479:	74 0b	je     0x400411 <L58>
	480:	83 7d ec 00	cmpl   $0x0,-0x14(%rbp)
	481:	74 05	je     0x40041c <L60>
	482:	90	nop
	483:	c9	leaveq 
	484:	c3	retq   
	485:	8b 45 f8	mov    -0x8(%rbp),%eax
	486:	48 63 d0	movslq %eax,%rdx
	487:	48 89 d0	mov    %rdx,%rax
	488:	48 01 c0	add    %rax,%rax
	489:	48 01 d0	add    %rdx,%rax
	490:	48 c1 e0 03	shl    $0x3,%rax
	491:	48 05 6e 07 40 00	add    $0x40076e,%rax
	492:	0f b6 40 10	movzbl 0x10(%rax),%eax
	493:	c0 e8 04	shr    $0x4,%al
	494:	83 e0 01	and    $0x1,%eax
	495:	0f b6 c8	movzbl %al,%ecx
	496:	8b 45 f8	mov    -0x8(%rbp),%eax
	497:	48 63 d0	movslq %eax,%rdx
	498:	48 89 d0	mov    %rdx,%rax
	499:	48 01 c0	add    %rax,%rax
	500:	48 01 d0	add    %rdx,%rax
	501:	48 c1 e0 03	shl    $0x3,%rax
	502:	48 05 76 07 40 00	add    $0x400776,%rax
	503:	c5 fb 10 00	vmovsd (%rax),%xmm0
	504:	8b 45 f8	mov    -0x8(%rbp),%eax
	505:	48 63 d0	movslq %eax,%rdx
	506:	48 89 d0	mov    %rdx,%rax
	507:	48 01 c0	add    %rax,%rax
	508:	48 01 d0	add    %rdx,%rax
	509:	48 c1 e0 03	shl    $0x3,%rax
	510:	48 05 6e 07 40 00	add    $0x40076e,%rax
	511:	48 8b 00	mov    (%rax),%rax
	512:	89 cf	mov    %ecx,%edi
	513:	c5 f9 28 c8	vmovapd %xmm0,%xmm1
	514:	c4 e1 f9 6e c0	vmovq  %rax,%xmm0
	515:	e8 3a fd ff ff	callq  0x40041f <test_isgreaterequal>
	516:	55	push   %rbp
	517:	48 89 e5	mov    %rsp,%rbp
	518:	48 83 ec 18	sub    $0x18,%rsp
	519:	c5 fb 11 45 f8	vmovsd %xmm0,-0x8(%rbp)
	520:	c5 fb 11 4d f0	vmovsd %xmm1,-0x10(%rbp)
	521:	89 7d ec	mov    %edi,-0x14(%rbp)
	522:	c5 fb 10 45 f8	vmovsd -0x8(%rbp),%xmm0
	523:	c5 f9 2e 45 f0	vucomisd -0x10(%rbp),%xmm0
	524:	0f 92 c0	setb   %al
	525:	83 f0 01	xor    $0x1,%eax
	526:	84 c0	test   %al,%al
	527:	74 0b	je     0x400453 <L62>
	528:	83 7d ec 00	cmpl   $0x0,-0x14(%rbp)
	529:	74 05	je     0x40045e <L64>
	530:	90	nop
	531:	c9	leaveq 
	532:	c3	retq   
	533:	8b 45 f8	mov    -0x8(%rbp),%eax
	534:	48 63 d0	movslq %eax,%rdx
	535:	48 89 d0	mov    %rdx,%rax
	536:	48 01 c0	add    %rax,%rax
	537:	48 01 d0	add    %rdx,%rax
	538:	48 c1 e0 03	shl    $0x3,%rax
	539:	48 05 6e 07 40 00	add    $0x40076e,%rax
	540:	0f b6 40 10	movzbl 0x10(%rax),%eax
	541:	c0 e8 05	shr    $0x5,%al
	542:	83 e0 01	and    $0x1,%eax
	543:	0f b6 c8	movzbl %al,%ecx
	544:	8b 45 f8	mov    -0x8(%rbp),%eax
	545:	48 63 d0	movslq %eax,%rdx
	546:	48 89 d0	mov    %rdx,%rax
	547:	48 01 c0	add    %rax,%rax
	548:	48 01 d0	add    %rdx,%rax
	549:	48 c1 e0 03	shl    $0x3,%rax
	550:	48 05 76 07 40 00	add    $0x400776,%rax
	551:	c5 fb 10 00	vmovsd (%rax),%xmm0
	552:	8b 45 f8	mov    -0x8(%rbp),%eax
	553:	48 63 d0	movslq %eax,%rdx
	554:	48 89 d0	mov    %rdx,%rax
	555:	48 01 c0	add    %rax,%rax
	556:	48 01 d0	add    %rdx,%rax
	557:	48 c1 e0 03	shl    $0x3,%rax
	558:	48 05 6e 07 40 00	add    $0x40076e,%rax
	559:	48 8b 00	mov    (%rax),%rax
	560:	89 cf	mov    %ecx,%edi
	561:	c5 f9 28 c8	vmovapd %xmm0,%xmm1
	562:	c4 e1 f9 6e c0	vmovq  %rax,%xmm0
	563:	e8 0d fd ff ff	callq  0x400461 <test_islessgreater>
	564:	55	push   %rbp
	565:	48 89 e5	mov    %rsp,%rbp
	566:	48 83 ec 18	sub    $0x18,%rsp
	567:	c5 fb 11 45 f8	vmovsd %xmm0,-0x8(%rbp)
	568:	c5 fb 11 4d f0	vmovsd %xmm1,-0x10(%rbp)
	569:	89 7d ec	mov    %edi,-0x14(%rbp)
	570:	c5 fb 10 45 f8	vmovsd -0x8(%rbp),%xmm0
	571:	c5 f9 2e 45 f0	vucomisd -0x10(%rbp),%xmm0
	572:	0f 94 c0	sete   %al
	573:	83 f0 01	xor    $0x1,%eax
	574:	84 c0	test   %al,%al
	575:	74 0b	je     0x400495 <L66>
	576:	83 7d ec 00	cmpl   $0x0,-0x14(%rbp)
	577:	74 05	je     0x4004a0 <L68>
	578:	90	nop
	579:	c9	leaveq 
	580:	c3	retq   
	581:	83 45 f8 01	addl   $0x1,-0x8(%rbp)
	582:	8b 45 f8	mov    -0x8(%rbp),%eax
	583:	3b 45 fc	cmp    -0x4(%rbp),%eax
	584:	0f 8c 5a fd ff ff	jl     0x4004be <L71>
	585:	8b 45 f8	mov    -0x8(%rbp),%eax
	586:	48 63 d0	movslq %eax,%rdx
	587:	48 89 d0	mov    %rdx,%rax
	588:	48 01 c0	add    %rax,%rax
	589:	48 01 d0	add    %rdx,%rax
	590:	48 c1 e0 03	shl    $0x3,%rax
	591:	48 05 6e 07 40 00	add    $0x40076e,%rax
	592:	0f b6 40 10	movzbl 0x10(%rax),%eax
	593:	83 e0 01	and    $0x1,%eax
	594:	0f b6 c8	movzbl %al,%ecx
	595:	8b 45 f8	mov    -0x8(%rbp),%eax
	596:	48 63 d0	movslq %eax,%rdx
	597:	48 89 d0	mov    %rdx,%rax
	598:	48 01 c0	add    %rax,%rax
	599:	48 01 d0	add    %rdx,%rax
	600:	48 c1 e0 03	shl    $0x3,%rax
	601:	48 05 76 07 40 00	add    $0x400776,%rax
	602:	c5 fb 10 00	vmovsd (%rax),%xmm0
	603:	8b 45 f8	mov    -0x8(%rbp),%eax
	604:	48 63 d0	movslq %eax,%rdx
	605:	48 89 d0	mov    %rdx,%rax
	606:	48 01 c0	add    %rax,%rax
	607:	48 01 d0	add    %rdx,%rax
	608:	48 c1 e0 03	shl    $0x3,%rax
	609:	48 05 6e 07 40 00	add    $0x40076e,%rax
	610:	48 8b 00	mov    (%rax),%rax
	611:	89 cf	mov    %ecx,%edi
	612:	c5 f9 28 c8	vmovapd %xmm0,%xmm1
	613:	c4 e1 f9 6e c0	vmovq  %rax,%xmm0
	614:	e8 f5 fd ff ff	callq  0x40031f <test_isunordered>
	615:	55	push   %rbp
	616:	48 89 e5	mov    %rsp,%rbp
	617:	48 83 ec 18	sub    $0x18,%rsp
	618:	c5 fb 11 45 f8	vmovsd %xmm0,-0x8(%rbp)
	619:	c5 fb 11 4d f0	vmovsd %xmm1,-0x10(%rbp)
	620:	89 7d ec	mov    %edi,-0x14(%rbp)
	621:	c5 fb 10 45 f8	vmovsd -0x8(%rbp),%xmm0
	622:	c5 f9 2e 45 f0	vucomisd -0x10(%rbp),%xmm0
	623:	7b 0b	jnp    0x40034b <L46>
	624:	83 7d ec 00	cmpl   $0x0,-0x14(%rbp)
	625:	75 10	jne    0x400356 <L48>
	626:	90	nop
	627:	c9	leaveq 
	628:	c3	retq   
	629:	8b 45 f8	mov    -0x8(%rbp),%eax
	630:	48 63 d0	movslq %eax,%rdx
	631:	48 89 d0	mov    %rdx,%rax
	632:	48 01 c0	add    %rax,%rax
	633:	48 01 d0	add    %rdx,%rax
	634:	48 c1 e0 03	shl    $0x3,%rax
	635:	48 05 6e 07 40 00	add    $0x40076e,%rax
	636:	0f b6 40 10	movzbl 0x10(%rax),%eax
	637:	d0 e8	shr    %al
	638:	83 e0 01	and    $0x1,%eax
	639:	0f b6 c8	movzbl %al,%ecx
	640:	8b 45 f8	mov    -0x8(%rbp),%eax
	641:	48 63 d0	movslq %eax,%rdx
	642:	48 89 d0	mov    %rdx,%rax
	643:	48 01 c0	add    %rax,%rax
	644:	48 01 d0	add    %rdx,%rax
	645:	48 c1 e0 03	shl    $0x3,%rax
	646:	48 05 76 07 40 00	add    $0x400776,%rax
	647:	c5 fb 10 00	vmovsd (%rax),%xmm0
	648:	8b 45 f8	mov    -0x8(%rbp),%eax
	649:	48 63 d0	movslq %eax,%rdx
	650:	48 89 d0	mov    %rdx,%rax
	651:	48 01 c0	add    %rax,%rax
	652:	48 01 d0	add    %rdx,%rax
	653:	48 c1 e0 03	shl    $0x3,%rax
	654:	48 05 6e 07 40 00	add    $0x40076e,%rax
	655:	48 8b 00	mov    (%rax),%rax
	656:	89 cf	mov    %ecx,%edi
	657:	c5 f9 28 c8	vmovapd %xmm0,%xmm1
	658:	c4 e1 f9 6e c0	vmovq  %rax,%xmm0
	659:	e8 c1 fd ff ff	callq  0x400359 <test_isless>
	660:	55	push   %rbp
	661:	48 89 e5	mov    %rsp,%rbp
	662:	48 83 ec 18	sub    $0x18,%rsp
	663:	c5 fb 11 45 f8	vmovsd %xmm0,-0x8(%rbp)
	664:	c5 fb 11 4d f0	vmovsd %xmm1,-0x10(%rbp)
	665:	89 7d ec	mov    %edi,-0x14(%rbp)
	666:	c5 fb 10 45 f0	vmovsd -0x10(%rbp),%xmm0
	667:	c5 f9 2e 45 f8	vucomisd -0x8(%rbp),%xmm0
	668:	0f 96 c0	setbe  %al
	669:	83 f0 01	xor    $0x1,%eax
	670:	84 c0	test   %al,%al
	671:	74 0b	je     0x40038d <L50>
	672:	83 7d ec 00	cmpl   $0x0,-0x14(%rbp)
	673:	74 05	je     0x400398 <L52>
	674:	90	nop
	675:	c9	leaveq 
	676:	c3	retq   
	677:	8b 45 f8	mov    -0x8(%rbp),%eax
	678:	48 63 d0	movslq %eax,%rdx
	679:	48 89 d0	mov    %rdx,%rax
	680:	48 01 c0	add    %rax,%rax
	681:	48 01 d0	add    %rdx,%rax
	682:	48 c1 e0 03	shl    $0x3,%rax
	683:	48 05 6e 07 40 00	add    $0x40076e,%rax
	684:	0f b6 40 10	movzbl 0x10(%rax),%eax
	685:	c0 e8 02	shr    $0x2,%al
	686:	83 e0 01	and    $0x1,%eax
	687:	0f b6 c8	movzbl %al,%ecx
	688:	8b 45 f8	mov    -0x8(%rbp),%eax
	689:	48 63 d0	movslq %eax,%rdx
	690:	48 89 d0	mov    %rdx,%rax
	691:	48 01 c0	add    %rax,%rax
	692:	48 01 d0	add    %rdx,%rax
	693:	48 c1 e0 03	shl    $0x3,%rax
	694:	48 05 76 07 40 00	add    $0x400776,%rax
	695:	c5 fb 10 00	vmovsd (%rax),%xmm0
	696:	8b 45 f8	mov    -0x8(%rbp),%eax
	697:	48 63 d0	movslq %eax,%rdx
	698:	48 89 d0	mov    %rdx,%rax
	699:	48 01 c0	add    %rax,%rax
	700:	48 01 d0	add    %rdx,%rax
	701:	48 c1 e0 03	shl    $0x3,%rax
	702:	48 05 6e 07 40 00	add    $0x40076e,%rax
	703:	48 8b 00	mov    (%rax),%rax
	704:	89 cf	mov    %ecx,%edi
	705:	c5 f9 28 c8	vmovapd %xmm0,%xmm1
	706:	c4 e1 f9 6e c0	vmovq  %rax,%xmm0
	707:	e8 94 fd ff ff	callq  0x40039b <test_islessequal>
	708:	55	push   %rbp
	709:	48 89 e5	mov    %rsp,%rbp
	710:	48 83 ec 18	sub    $0x18,%rsp
	711:	c5 fb 11 45 f8	vmovsd %xmm0,-0x8(%rbp)
	712:	c5 fb 11 4d f0	vmovsd %xmm1,-0x10(%rbp)
	713:	89 7d ec	mov    %edi,-0x14(%rbp)
	714:	c5 fb 10 45 f0	vmovsd -0x10(%rbp),%xmm0
	715:	c5 f9 2e 45 f8	vucomisd -0x8(%rbp),%xmm0
	716:	0f 92 c0	setb   %al
	717:	83 f0 01	xor    $0x1,%eax
	718:	84 c0	test   %al,%al
	719:	74 0b	je     0x4003cf <L54>
	720:	83 7d ec 00	cmpl   $0x0,-0x14(%rbp)
	721:	74 05	je     0x4003da <L56>
	722:	90	nop
	723:	c9	leaveq 
	724:	c3	retq   
	725:	8b 45 f8	mov    -0x8(%rbp),%eax
	726:	48 63 d0	movslq %eax,%rdx
	727:	48 89 d0	mov    %rdx,%rax
	728:	48 01 c0	add    %rax,%rax
	729:	48 01 d0	add    %rdx,%rax
	730:	48 c1 e0 03	shl    $0x3,%rax
	731:	48 05 6e 07 40 00	add    $0x40076e,%rax
	732:	0f b6 40 10	movzbl 0x10(%rax),%eax
	733:	c0 e8 03	shr    $0x3,%al
	734:	83 e0 01	and    $0x1,%eax
	735:	0f b6 c8	movzbl %al,%ecx
	736:	8b 45 f8	mov    -0x8(%rbp),%eax
	737:	48 63 d0	movslq %eax,%rdx
	738:	48 89 d0	mov    %rdx,%rax
	739:	48 01 c0	add    %rax,%rax
	740:	48 01 d0	add    %rdx,%rax
	741:	48 c1 e0 03	shl    $0x3,%rax
	742:	48 05 76 07 40 00	add    $0x400776,%rax
	743:	c5 fb 10 00	vmovsd (%rax),%xmm0
	744:	8b 45 f8	mov    -0x8(%rbp),%eax
	745:	48 63 d0	movslq %eax,%rdx
	746:	48 89 d0	mov    %rdx,%rax
	747:	48 01 c0	add    %rax,%rax
	748:	48 01 d0	add    %rdx,%rax
	749:	48 c1 e0 03	shl    $0x3,%rax
	750:	48 05 6e 07 40 00	add    $0x40076e,%rax
	751:	48 8b 00	mov    (%rax),%rax
	752:	89 cf	mov    %ecx,%edi
	753:	c5 f9 28 c8	vmovapd %xmm0,%xmm1
	754:	c4 e1 f9 6e c0	vmovq  %rax,%xmm0
	755:	e8 67 fd ff ff	callq  0x4003dd <test_isgreater>
	756:	55	push   %rbp
	757:	48 89 e5	mov    %rsp,%rbp
	758:	48 83 ec 18	sub    $0x18,%rsp
	759:	c5 fb 11 45 f8	vmovsd %xmm0,-0x8(%rbp)
	760:	c5 fb 11 4d f0	vmovsd %xmm1,-0x10(%rbp)
	761:	89 7d ec	mov    %edi,-0x14(%rbp)
	762:	c5 fb 10 45 f8	vmovsd -0x8(%rbp),%xmm0
	763:	c5 f9 2e 45 f0	vucomisd -0x10(%rbp),%xmm0
	764:	0f 96 c0	setbe  %al
	765:	83 f0 01	xor    $0x1,%eax
	766:	84 c0	test   %al,%al
	767:	74 0b	je     0x400411 <L58>
	768:	83 7d ec 00	cmpl   $0x0,-0x14(%rbp)
	769:	74 05	je     0x40041c <L60>
	770:	90	nop
	771:	c9	leaveq 
	772:	c3	retq   
	773:	8b 45 f8	mov    -0x8(%rbp),%eax
	774:	48 63 d0	movslq %eax,%rdx
	775:	48 89 d0	mov    %rdx,%rax
	776:	48 01 c0	add    %rax,%rax
	777:	48 01 d0	add    %rdx,%rax
	778:	48 c1 e0 03	shl    $0x3,%rax
	779:	48 05 6e 07 40 00	add    $0x40076e,%rax
	780:	0f b6 40 10	movzbl 0x10(%rax),%eax
	781:	c0 e8 04	shr    $0x4,%al
	782:	83 e0 01	and    $0x1,%eax
	783:	0f b6 c8	movzbl %al,%ecx
	784:	8b 45 f8	mov    -0x8(%rbp),%eax
	785:	48 63 d0	movslq %eax,%rdx
	786:	48 89 d0	mov    %rdx,%rax
	787:	48 01 c0	add    %rax,%rax
	788:	48 01 d0	add    %rdx,%rax
	789:	48 c1 e0 03	shl    $0x3,%rax
	790:	48 05 76 07 40 00	add    $0x400776,%rax
	791:	c5 fb 10 00	vmovsd (%rax),%xmm0
	792:	8b 45 f8	mov    -0x8(%rbp),%eax
	793:	48 63 d0	movslq %eax,%rdx
	794:	48 89 d0	mov    %rdx,%rax
	795:	48 01 c0	add    %rax,%rax
	796:	48 01 d0	add    %rdx,%rax
	797:	48 c1 e0 03	shl    $0x3,%rax
	798:	48 05 6e 07 40 00	add    $0x40076e,%rax
	799:	48 8b 00	mov    (%rax),%rax
	800:	89 cf	mov    %ecx,%edi
	801:	c5 f9 28 c8	vmovapd %xmm0,%xmm1
	802:	c4 e1 f9 6e c0	vmovq  %rax,%xmm0
	803:	e8 3a fd ff ff	callq  0x40041f <test_isgreaterequal>
	804:	55	push   %rbp
	805:	48 89 e5	mov    %rsp,%rbp
	806:	48 83 ec 18	sub    $0x18,%rsp
	807:	c5 fb 11 45 f8	vmovsd %xmm0,-0x8(%rbp)
	808:	c5 fb 11 4d f0	vmovsd %xmm1,-0x10(%rbp)
	809:	89 7d ec	mov    %edi,-0x14(%rbp)
	810:	c5 fb 10 45 f8	vmovsd -0x8(%rbp),%xmm0
	811:	c5 f9 2e 45 f0	vucomisd -0x10(%rbp),%xmm0
	812:	0f 92 c0	setb   %al
	813:	83 f0 01	xor    $0x1,%eax
	814:	84 c0	test   %al,%al
	815:	74 0b	je     0x400453 <L62>
	816:	83 7d ec 00	cmpl   $0x0,-0x14(%rbp)
	817:	74 05	je     0x40045e <L64>
	818:	90	nop
	819:	c9	leaveq 
	820:	c3	retq   
	821:	8b 45 f8	mov    -0x8(%rbp),%eax
	822:	48 63 d0	movslq %eax,%rdx
	823:	48 89 d0	mov    %rdx,%rax
	824:	48 01 c0	add    %rax,%rax
	825:	48 01 d0	add    %rdx,%rax
	826:	48 c1 e0 03	shl    $0x3,%rax
	827:	48 05 6e 07 40 00	add    $0x40076e,%rax
	828:	0f b6 40 10	movzbl 0x10(%rax),%eax
	829:	c0 e8 05	shr    $0x5,%al
	830:	83 e0 01	and    $0x1,%eax
	831:	0f b6 c8	movzbl %al,%ecx
	832:	8b 45 f8	mov    -0x8(%rbp),%eax
	833:	48 63 d0	movslq %eax,%rdx
	834:	48 89 d0	mov    %rdx,%rax
	835:	48 01 c0	add    %rax,%rax
	836:	48 01 d0	add    %rdx,%rax
	837:	48 c1 e0 03	shl    $0x3,%rax
	838:	48 05 76 07 40 00	add    $0x400776,%rax
	839:	c5 fb 10 00	vmovsd (%rax),%xmm0
	840:	8b 45 f8	mov    -0x8(%rbp),%eax
	841:	48 63 d0	movslq %eax,%rdx
	842:	48 89 d0	mov    %rdx,%rax
	843:	48 01 c0	add    %rax,%rax
	844:	48 01 d0	add    %rdx,%rax
	845:	48 c1 e0 03	shl    $0x3,%rax
	846:	48 05 6e 07 40 00	add    $0x40076e,%rax
	847:	48 8b 00	mov    (%rax),%rax
	848:	89 cf	mov    %ecx,%edi
	849:	c5 f9 28 c8	vmovapd %xmm0,%xmm1
	850:	c4 e1 f9 6e c0	vmovq  %rax,%xmm0
	851:	e8 0d fd ff ff	callq  0x400461 <test_islessgreater>
	852:	55	push   %rbp
	853:	48 89 e5	mov    %rsp,%rbp
	854:	48 83 ec 18	sub    $0x18,%rsp
	855:	c5 fb 11 45 f8	vmovsd %xmm0,-0x8(%rbp)
	856:	c5 fb 11 4d f0	vmovsd %xmm1,-0x10(%rbp)
	857:	89 7d ec	mov    %edi,-0x14(%rbp)
	858:	c5 fb 10 45 f8	vmovsd -0x8(%rbp),%xmm0
	859:	c5 f9 2e 45 f0	vucomisd -0x10(%rbp),%xmm0
	860:	0f 94 c0	sete   %al
	861:	83 f0 01	xor    $0x1,%eax
	862:	84 c0	test   %al,%al
	863:	74 0b	je     0x400495 <L66>
	864:	83 7d ec 00	cmpl   $0x0,-0x14(%rbp)
	865:	74 05	je     0x4004a0 <L68>
	866:	90	nop
	867:	c9	leaveq 
	868:	c3	retq   
	869:	83 45 f8 01	addl   $0x1,-0x8(%rbp)
	870:	8b 45 f8	mov    -0x8(%rbp),%eax
	871:	3b 45 fc	cmp    -0x4(%rbp),%eax
	872:	0f 8c 5a fd ff ff	jl     0x4004be <L71>
	873:	8b 45 f8	mov    -0x8(%rbp),%eax
	874:	48 63 d0	movslq %eax,%rdx
	875:	48 89 d0	mov    %rdx,%rax
	876:	48 01 c0	add    %rax,%rax
	877:	48 01 d0	add    %rdx,%rax
	878:	48 c1 e0 03	shl    $0x3,%rax
	879:	48 05 6e 07 40 00	add    $0x40076e,%rax
	880:	0f b6 40 10	movzbl 0x10(%rax),%eax
	881:	83 e0 01	and    $0x1,%eax
	882:	0f b6 c8	movzbl %al,%ecx
	883:	8b 45 f8	mov    -0x8(%rbp),%eax
	884:	48 63 d0	movslq %eax,%rdx
	885:	48 89 d0	mov    %rdx,%rax
	886:	48 01 c0	add    %rax,%rax
	887:	48 01 d0	add    %rdx,%rax
	888:	48 c1 e0 03	shl    $0x3,%rax
	889:	48 05 76 07 40 00	add    $0x400776,%rax
	890:	c5 fb 10 00	vmovsd (%rax),%xmm0
	891:	8b 45 f8	mov    -0x8(%rbp),%eax
	892:	48 63 d0	movslq %eax,%rdx
	893:	48 89 d0	mov    %rdx,%rax
	894:	48 01 c0	add    %rax,%rax
	895:	48 01 d0	add    %rdx,%rax
	896:	48 c1 e0 03	shl    $0x3,%rax
	897:	48 05 6e 07 40 00	add    $0x40076e,%rax
	898:	48 8b 00	mov    (%rax),%rax
	899:	89 cf	mov    %ecx,%edi
	900:	c5 f9 28 c8	vmovapd %xmm0,%xmm1
	901:	c4 e1 f9 6e c0	vmovq  %rax,%xmm0
	902:	e8 f5 fd ff ff	callq  0x40031f <test_isunordered>
	903:	55	push   %rbp
	904:	48 89 e5	mov    %rsp,%rbp
	905:	48 83 ec 18	sub    $0x18,%rsp
	906:	c5 fb 11 45 f8	vmovsd %xmm0,-0x8(%rbp)
	907:	c5 fb 11 4d f0	vmovsd %xmm1,-0x10(%rbp)
	908:	89 7d ec	mov    %edi,-0x14(%rbp)
	909:	c5 fb 10 45 f8	vmovsd -0x8(%rbp),%xmm0
	910:	c5 f9 2e 45 f0	vucomisd -0x10(%rbp),%xmm0
	911:	7b 0b	jnp    0x40034b <L46>
	912:	83 7d ec 00	cmpl   $0x0,-0x14(%rbp)
	913:	74 05	je     0x400356 <L48>
	914:	90	nop
	915:	c9	leaveq 
	916:	c3	retq   
	917:	8b 45 f8	mov    -0x8(%rbp),%eax
	918:	48 63 d0	movslq %eax,%rdx
	919:	48 89 d0	mov    %rdx,%rax
	920:	48 01 c0	add    %rax,%rax
	921:	48 01 d0	add    %rdx,%rax
	922:	48 c1 e0 03	shl    $0x3,%rax
	923:	48 05 6e 07 40 00	add    $0x40076e,%rax
	924:	0f b6 40 10	movzbl 0x10(%rax),%eax
	925:	d0 e8	shr    %al
	926:	83 e0 01	and    $0x1,%eax
	927:	0f b6 c8	movzbl %al,%ecx
	928:	8b 45 f8	mov    -0x8(%rbp),%eax
	929:	48 63 d0	movslq %eax,%rdx
	930:	48 89 d0	mov    %rdx,%rax
	931:	48 01 c0	add    %rax,%rax
	932:	48 01 d0	add    %rdx,%rax
	933:	48 c1 e0 03	shl    $0x3,%rax
	934:	48 05 76 07 40 00	add    $0x400776,%rax
	935:	c5 fb 10 00	vmovsd (%rax),%xmm0
	936:	8b 45 f8	mov    -0x8(%rbp),%eax
	937:	48 63 d0	movslq %eax,%rdx
	938:	48 89 d0	mov    %rdx,%rax
	939:	48 01 c0	add    %rax,%rax
	940:	48 01 d0	add    %rdx,%rax
	941:	48 c1 e0 03	shl    $0x3,%rax
	942:	48 05 6e 07 40 00	add    $0x40076e,%rax
	943:	48 8b 00	mov    (%rax),%rax
	944:	89 cf	mov    %ecx,%edi
	945:	c5 f9 28 c8	vmovapd %xmm0,%xmm1
	946:	c4 e1 f9 6e c0	vmovq  %rax,%xmm0
	947:	e8 c1 fd ff ff	callq  0x400359 <test_isless>
	948:	55	push   %rbp
	949:	48 89 e5	mov    %rsp,%rbp
	950:	48 83 ec 18	sub    $0x18,%rsp
	951:	c5 fb 11 45 f8	vmovsd %xmm0,-0x8(%rbp)
	952:	c5 fb 11 4d f0	vmovsd %xmm1,-0x10(%rbp)
	953:	89 7d ec	mov    %edi,-0x14(%rbp)
	954:	c5 fb 10 45 f0	vmovsd -0x10(%rbp),%xmm0
	955:	c5 f9 2e 45 f8	vucomisd -0x8(%rbp),%xmm0
	956:	0f 96 c0	setbe  %al
	957:	83 f0 01	xor    $0x1,%eax
	958:	84 c0	test   %al,%al
	959:	74 0b	je     0x40038d <L50>
	960:	83 7d ec 00	cmpl   $0x0,-0x14(%rbp)
	961:	74 05	je     0x400398 <L52>
	962:	90	nop
	963:	c9	leaveq 
	964:	c3	retq   
	965:	8b 45 f8	mov    -0x8(%rbp),%eax
	966:	48 63 d0	movslq %eax,%rdx
	967:	48 89 d0	mov    %rdx,%rax
	968:	48 01 c0	add    %rax,%rax
	969:	48 01 d0	add    %rdx,%rax
	970:	48 c1 e0 03	shl    $0x3,%rax
	971:	48 05 6e 07 40 00	add    $0x40076e,%rax
	972:	0f b6 40 10	movzbl 0x10(%rax),%eax
	973:	c0 e8 02	shr    $0x2,%al
	974:	83 e0 01	and    $0x1,%eax
	975:	0f b6 c8	movzbl %al,%ecx
	976:	8b 45 f8	mov    -0x8(%rbp),%eax
	977:	48 63 d0	movslq %eax,%rdx
	978:	48 89 d0	mov    %rdx,%rax
	979:	48 01 c0	add    %rax,%rax
	980:	48 01 d0	add    %rdx,%rax
	981:	48 c1 e0 03	shl    $0x3,%rax
	982:	48 05 76 07 40 00	add    $0x400776,%rax
	983:	c5 fb 10 00	vmovsd (%rax),%xmm0
	984:	8b 45 f8	mov    -0x8(%rbp),%eax
	985:	48 63 d0	movslq %eax,%rdx
	986:	48 89 d0	mov    %rdx,%rax
	987:	48 01 c0	add    %rax,%rax
	988:	48 01 d0	add    %rdx,%rax
	989:	48 c1 e0 03	shl    $0x3,%rax
	990:	48 05 6e 07 40 00	add    $0x40076e,%rax
	991:	48 8b 00	mov    (%rax),%rax
	992:	89 cf	mov    %ecx,%edi
	993:	c5 f9 28 c8	vmovapd %xmm0,%xmm1
	994:	c4 e1 f9 6e c0	vmovq  %rax,%xmm0
	995:	e8 94 fd ff ff	callq  0x40039b <test_islessequal>
	996:	55	push   %rbp
	997:	48 89 e5	mov    %rsp,%rbp
	998:	48 83 ec 18	sub    $0x18,%rsp
	999:	c5 fb 11 45 f8	vmovsd %xmm0,-0x8(%rbp)
	1000:	c5 fb 11 4d f0	vmovsd %xmm1,-0x10(%rbp)
	1001:	89 7d ec	mov    %edi,-0x14(%rbp)
	1002:	c5 fb 10 45 f0	vmovsd -0x10(%rbp),%xmm0
	1003:	c5 f9 2e 45 f8	vucomisd -0x8(%rbp),%xmm0
	1004:	0f 92 c0	setb   %al
	1005:	83 f0 01	xor    $0x1,%eax
	1006:	84 c0	test   %al,%al
	1007:	74 0b	je     0x4003cf <L54>
	1008:	83 7d ec 00	cmpl   $0x0,-0x14(%rbp)
	1009:	75 10	jne    0x4003da <L56>
	1010:	90	nop
	1011:	c9	leaveq 
	1012:	c3	retq   
	1013:	8b 45 f8	mov    -0x8(%rbp),%eax
	1014:	48 63 d0	movslq %eax,%rdx
	1015:	48 89 d0	mov    %rdx,%rax
	1016:	48 01 c0	add    %rax,%rax
	1017:	48 01 d0	add    %rdx,%rax
	1018:	48 c1 e0 03	shl    $0x3,%rax
	1019:	48 05 6e 07 40 00	add    $0x40076e,%rax
	1020:	0f b6 40 10	movzbl 0x10(%rax),%eax
	1021:	c0 e8 03	shr    $0x3,%al
	1022:	83 e0 01	and    $0x1,%eax
	1023:	0f b6 c8	movzbl %al,%ecx
	1024:	8b 45 f8	mov    -0x8(%rbp),%eax
	1025:	48 63 d0	movslq %eax,%rdx
	1026:	48 89 d0	mov    %rdx,%rax
	1027:	48 01 c0	add    %rax,%rax
	1028:	48 01 d0	add    %rdx,%rax
	1029:	48 c1 e0 03	shl    $0x3,%rax
	1030:	48 05 76 07 40 00	add    $0x400776,%rax
	1031:	c5 fb 10 00	vmovsd (%rax),%xmm0
	1032:	8b 45 f8	mov    -0x8(%rbp),%eax
	1033:	48 63 d0	movslq %eax,%rdx
	1034:	48 89 d0	mov    %rdx,%rax
	1035:	48 01 c0	add    %rax,%rax
	1036:	48 01 d0	add    %rdx,%rax
	1037:	48 c1 e0 03	shl    $0x3,%rax
	1038:	48 05 6e 07 40 00	add    $0x40076e,%rax
	1039:	48 8b 00	mov    (%rax),%rax
	1040:	89 cf	mov    %ecx,%edi
	1041:	c5 f9 28 c8	vmovapd %xmm0,%xmm1
	1042:	c4 e1 f9 6e c0	vmovq  %rax,%xmm0
	1043:	e8 67 fd ff ff	callq  0x4003dd <test_isgreater>
	1044:	55	push   %rbp
	1045:	48 89 e5	mov    %rsp,%rbp
	1046:	48 83 ec 18	sub    $0x18,%rsp
	1047:	c5 fb 11 45 f8	vmovsd %xmm0,-0x8(%rbp)
	1048:	c5 fb 11 4d f0	vmovsd %xmm1,-0x10(%rbp)
	1049:	89 7d ec	mov    %edi,-0x14(%rbp)
	1050:	c5 fb 10 45 f8	vmovsd -0x8(%rbp),%xmm0
	1051:	c5 f9 2e 45 f0	vucomisd -0x10(%rbp),%xmm0
	1052:	0f 96 c0	setbe  %al
	1053:	83 f0 01	xor    $0x1,%eax
	1054:	84 c0	test   %al,%al
	1055:	74 0b	je     0x400411 <L58>
	1056:	83 7d ec 00	cmpl   $0x0,-0x14(%rbp)
	1057:	74 05	je     0x40041c <L60>
	1058:	90	nop
	1059:	c9	leaveq 
	1060:	c3	retq   
	1061:	8b 45 f8	mov    -0x8(%rbp),%eax
	1062:	48 63 d0	movslq %eax,%rdx
	1063:	48 89 d0	mov    %rdx,%rax
	1064:	48 01 c0	add    %rax,%rax
	1065:	48 01 d0	add    %rdx,%rax
	1066:	48 c1 e0 03	shl    $0x3,%rax
	1067:	48 05 6e 07 40 00	add    $0x40076e,%rax
	1068:	0f b6 40 10	movzbl 0x10(%rax),%eax
	1069:	c0 e8 04	shr    $0x4,%al
	1070:	83 e0 01	and    $0x1,%eax
	1071:	0f b6 c8	movzbl %al,%ecx
	1072:	8b 45 f8	mov    -0x8(%rbp),%eax
	1073:	48 63 d0	movslq %eax,%rdx
	1074:	48 89 d0	mov    %rdx,%rax
	1075:	48 01 c0	add    %rax,%rax
	1076:	48 01 d0	add    %rdx,%rax
	1077:	48 c1 e0 03	shl    $0x3,%rax
	1078:	48 05 76 07 40 00	add    $0x400776,%rax
	1079:	c5 fb 10 00	vmovsd (%rax),%xmm0
	1080:	8b 45 f8	mov    -0x8(%rbp),%eax
	1081:	48 63 d0	movslq %eax,%rdx
	1082:	48 89 d0	mov    %rdx,%rax
	1083:	48 01 c0	add    %rax,%rax
	1084:	48 01 d0	add    %rdx,%rax
	1085:	48 c1 e0 03	shl    $0x3,%rax
	1086:	48 05 6e 07 40 00	add    $0x40076e,%rax
	1087:	48 8b 00	mov    (%rax),%rax
	1088:	89 cf	mov    %ecx,%edi
	1089:	c5 f9 28 c8	vmovapd %xmm0,%xmm1
	1090:	c4 e1 f9 6e c0	vmovq  %rax,%xmm0
	1091:	e8 3a fd ff ff	callq  0x40041f <test_isgreaterequal>
	1092:	55	push   %rbp
	1093:	48 89 e5	mov    %rsp,%rbp
	1094:	48 83 ec 18	sub    $0x18,%rsp
	1095:	c5 fb 11 45 f8	vmovsd %xmm0,-0x8(%rbp)
	1096:	c5 fb 11 4d f0	vmovsd %xmm1,-0x10(%rbp)
	1097:	89 7d ec	mov    %edi,-0x14(%rbp)
	1098:	c5 fb 10 45 f8	vmovsd -0x8(%rbp),%xmm0
	1099:	c5 f9 2e 45 f0	vucomisd -0x10(%rbp),%xmm0
	1100:	0f 92 c0	setb   %al
	1101:	83 f0 01	xor    $0x1,%eax
	1102:	84 c0	test   %al,%al
	1103:	74 0b	je     0x400453 <L62>
	1104:	83 7d ec 00	cmpl   $0x0,-0x14(%rbp)
	1105:	75 10	jne    0x40045e <L64>
	1106:	90	nop
	1107:	c9	leaveq 
	1108:	c3	retq   
	1109:	8b 45 f8	mov    -0x8(%rbp),%eax
	1110:	48 63 d0	movslq %eax,%rdx
	1111:	48 89 d0	mov    %rdx,%rax
	1112:	48 01 c0	add    %rax,%rax
	1113:	48 01 d0	add    %rdx,%rax
	1114:	48 c1 e0 03	shl    $0x3,%rax
	1115:	48 05 6e 07 40 00	add    $0x40076e,%rax
	1116:	0f b6 40 10	movzbl 0x10(%rax),%eax
	1117:	c0 e8 05	shr    $0x5,%al
	1118:	83 e0 01	and    $0x1,%eax
	1119:	0f b6 c8	movzbl %al,%ecx
	1120:	8b 45 f8	mov    -0x8(%rbp),%eax
	1121:	48 63 d0	movslq %eax,%rdx
	1122:	48 89 d0	mov    %rdx,%rax
	1123:	48 01 c0	add    %rax,%rax
	1124:	48 01 d0	add    %rdx,%rax
	1125:	48 c1 e0 03	shl    $0x3,%rax
	1126:	48 05 76 07 40 00	add    $0x400776,%rax
	1127:	c5 fb 10 00	vmovsd (%rax),%xmm0
	1128:	8b 45 f8	mov    -0x8(%rbp),%eax
	1129:	48 63 d0	movslq %eax,%rdx
	1130:	48 89 d0	mov    %rdx,%rax
	1131:	48 01 c0	add    %rax,%rax
	1132:	48 01 d0	add    %rdx,%rax
	1133:	48 c1 e0 03	shl    $0x3,%rax
	1134:	48 05 6e 07 40 00	add    $0x40076e,%rax
	1135:	48 8b 00	mov    (%rax),%rax
	1136:	89 cf	mov    %ecx,%edi
	1137:	c5 f9 28 c8	vmovapd %xmm0,%xmm1
	1138:	c4 e1 f9 6e c0	vmovq  %rax,%xmm0
	1139:	e8 0d fd ff ff	callq  0x400461 <test_islessgreater>
	1140:	55	push   %rbp
	1141:	48 89 e5	mov    %rsp,%rbp
	1142:	48 83 ec 18	sub    $0x18,%rsp
	1143:	c5 fb 11 45 f8	vmovsd %xmm0,-0x8(%rbp)
	1144:	c5 fb 11 4d f0	vmovsd %xmm1,-0x10(%rbp)
	1145:	89 7d ec	mov    %edi,-0x14(%rbp)
	1146:	c5 fb 10 45 f8	vmovsd -0x8(%rbp),%xmm0
	1147:	c5 f9 2e 45 f0	vucomisd -0x10(%rbp),%xmm0
	1148:	0f 94 c0	sete   %al
	1149:	83 f0 01	xor    $0x1,%eax
	1150:	84 c0	test   %al,%al
	1151:	74 0b	je     0x400495 <L66>
	1152:	83 7d ec 00	cmpl   $0x0,-0x14(%rbp)
	1153:	74 05	je     0x4004a0 <L68>
	1154:	90	nop
	1155:	c9	leaveq 
	1156:	c3	retq   
	1157:	83 45 f8 01	addl   $0x1,-0x8(%rbp)
	1158:	8b 45 f8	mov    -0x8(%rbp),%eax
	1159:	3b 45 fc	cmp    -0x4(%rbp),%eax
	1160:	0f 8c 5a fd ff ff	jl     0x4004be <L71>
	1161:	8b 45 f8	mov    -0x8(%rbp),%eax
	1162:	48 63 d0	movslq %eax,%rdx
	1163:	48 89 d0	mov    %rdx,%rax
	1164:	48 01 c0	add    %rax,%rax
	1165:	48 01 d0	add    %rdx,%rax
	1166:	48 c1 e0 03	shl    $0x3,%rax
	1167:	48 05 6e 07 40 00	add    $0x40076e,%rax
	1168:	0f b6 40 10	movzbl 0x10(%rax),%eax
	1169:	83 e0 01	and    $0x1,%eax
	1170:	0f b6 c8	movzbl %al,%ecx
	1171:	8b 45 f8	mov    -0x8(%rbp),%eax
	1172:	48 63 d0	movslq %eax,%rdx
	1173:	48 89 d0	mov    %rdx,%rax
	1174:	48 01 c0	add    %rax,%rax
	1175:	48 01 d0	add    %rdx,%rax
	1176:	48 c1 e0 03	shl    $0x3,%rax
	1177:	48 05 76 07 40 00	add    $0x400776,%rax
	1178:	c5 fb 10 00	vmovsd (%rax),%xmm0
	1179:	8b 45 f8	mov    -0x8(%rbp),%eax
	1180:	48 63 d0	movslq %eax,%rdx
	1181:	48 89 d0	mov    %rdx,%rax
	1182:	48 01 c0	add    %rax,%rax
	1183:	48 01 d0	add    %rdx,%rax
	1184:	48 c1 e0 03	shl    $0x3,%rax
	1185:	48 05 6e 07 40 00	add    $0x40076e,%rax
	1186:	48 8b 00	mov    (%rax),%rax
	1187:	89 cf	mov    %ecx,%edi
	1188:	c5 f9 28 c8	vmovapd %xmm0,%xmm1
	1189:	c4 e1 f9 6e c0	vmovq  %rax,%xmm0
	1190:	e8 f5 fd ff ff	callq  0x40031f <test_isunordered>
	1191:	55	push   %rbp
	1192:	48 89 e5	mov    %rsp,%rbp
	1193:	48 83 ec 18	sub    $0x18,%rsp
	1194:	c5 fb 11 45 f8	vmovsd %xmm0,-0x8(%rbp)
	1195:	c5 fb 11 4d f0	vmovsd %xmm1,-0x10(%rbp)
	1196:	89 7d ec	mov    %edi,-0x14(%rbp)
	1197:	c5 fb 10 45 f8	vmovsd -0x8(%rbp),%xmm0
	1198:	c5 f9 2e 45 f0	vucomisd -0x10(%rbp),%xmm0
	1199:	7b 0b	jnp    0x40034b <L46>
	1200:	83 7d ec 00	cmpl   $0x0,-0x14(%rbp)
	1201:	74 05	je     0x400356 <L48>
	1202:	90	nop
	1203:	c9	leaveq 
	1204:	c3	retq   
	1205:	8b 45 f8	mov    -0x8(%rbp),%eax
	1206:	48 63 d0	movslq %eax,%rdx
	1207:	48 89 d0	mov    %rdx,%rax
	1208:	48 01 c0	add    %rax,%rax
	1209:	48 01 d0	add    %rdx,%rax
	1210:	48 c1 e0 03	shl    $0x3,%rax
	1211:	48 05 6e 07 40 00	add    $0x40076e,%rax
	1212:	0f b6 40 10	movzbl 0x10(%rax),%eax
	1213:	d0 e8	shr    %al
	1214:	83 e0 01	and    $0x1,%eax
	1215:	0f b6 c8	movzbl %al,%ecx
	1216:	8b 45 f8	mov    -0x8(%rbp),%eax
	1217:	48 63 d0	movslq %eax,%rdx
	1218:	48 89 d0	mov    %rdx,%rax
	1219:	48 01 c0	add    %rax,%rax
	1220:	48 01 d0	add    %rdx,%rax
	1221:	48 c1 e0 03	shl    $0x3,%rax
	1222:	48 05 76 07 40 00	add    $0x400776,%rax
	1223:	c5 fb 10 00	vmovsd (%rax),%xmm0
	1224:	8b 45 f8	mov    -0x8(%rbp),%eax
	1225:	48 63 d0	movslq %eax,%rdx
	1226:	48 89 d0	mov    %rdx,%rax
	1227:	48 01 c0	add    %rax,%rax
	1228:	48 01 d0	add    %rdx,%rax
	1229:	48 c1 e0 03	shl    $0x3,%rax
	1230:	48 05 6e 07 40 00	add    $0x40076e,%rax
	1231:	48 8b 00	mov    (%rax),%rax
	1232:	89 cf	mov    %ecx,%edi
	1233:	c5 f9 28 c8	vmovapd %xmm0,%xmm1
	1234:	c4 e1 f9 6e c0	vmovq  %rax,%xmm0
	1235:	e8 c1 fd ff ff	callq  0x400359 <test_isless>
	1236:	55	push   %rbp
	1237:	48 89 e5	mov    %rsp,%rbp
	1238:	48 83 ec 18	sub    $0x18,%rsp
	1239:	c5 fb 11 45 f8	vmovsd %xmm0,-0x8(%rbp)
	1240:	c5 fb 11 4d f0	vmovsd %xmm1,-0x10(%rbp)
	1241:	89 7d ec	mov    %edi,-0x14(%rbp)
	1242:	c5 fb 10 45 f0	vmovsd -0x10(%rbp),%xmm0
	1243:	c5 f9 2e 45 f8	vucomisd -0x8(%rbp),%xmm0
	1244:	0f 96 c0	setbe  %al
	1245:	83 f0 01	xor    $0x1,%eax
	1246:	84 c0	test   %al,%al
	1247:	74 0b	je     0x40038d <L50>
	1248:	83 7d ec 00	cmpl   $0x0,-0x14(%rbp)
	1249:	75 10	jne    0x400398 <L52>
	1250:	90	nop
	1251:	c9	leaveq 
	1252:	c3	retq   
	1253:	8b 45 f8	mov    -0x8(%rbp),%eax
	1254:	48 63 d0	movslq %eax,%rdx
	1255:	48 89 d0	mov    %rdx,%rax
	1256:	48 01 c0	add    %rax,%rax
	1257:	48 01 d0	add    %rdx,%rax
	1258:	48 c1 e0 03	shl    $0x3,%rax
	1259:	48 05 6e 07 40 00	add    $0x40076e,%rax
	1260:	0f b6 40 10	movzbl 0x10(%rax),%eax
	1261:	c0 e8 02	shr    $0x2,%al
	1262:	83 e0 01	and    $0x1,%eax
	1263:	0f b6 c8	movzbl %al,%ecx
	1264:	8b 45 f8	mov    -0x8(%rbp),%eax
	1265:	48 63 d0	movslq %eax,%rdx
	1266:	48 89 d0	mov    %rdx,%rax
	1267:	48 01 c0	add    %rax,%rax
	1268:	48 01 d0	add    %rdx,%rax
	1269:	48 c1 e0 03	shl    $0x3,%rax
	1270:	48 05 76 07 40 00	add    $0x400776,%rax
	1271:	c5 fb 10 00	vmovsd (%rax),%xmm0
	1272:	8b 45 f8	mov    -0x8(%rbp),%eax
	1273:	48 63 d0	movslq %eax,%rdx
	1274:	48 89 d0	mov    %rdx,%rax
	1275:	48 01 c0	add    %rax,%rax
	1276:	48 01 d0	add    %rdx,%rax
	1277:	48 c1 e0 03	shl    $0x3,%rax
	1278:	48 05 6e 07 40 00	add    $0x40076e,%rax
	1279:	48 8b 00	mov    (%rax),%rax
	1280:	89 cf	mov    %ecx,%edi
	1281:	c5 f9 28 c8	vmovapd %xmm0,%xmm1
	1282:	c4 e1 f9 6e c0	vmovq  %rax,%xmm0
	1283:	e8 94 fd ff ff	callq  0x40039b <test_islessequal>
	1284:	55	push   %rbp
	1285:	48 89 e5	mov    %rsp,%rbp
	1286:	48 83 ec 18	sub    $0x18,%rsp
	1287:	c5 fb 11 45 f8	vmovsd %xmm0,-0x8(%rbp)
	1288:	c5 fb 11 4d f0	vmovsd %xmm1,-0x10(%rbp)
	1289:	89 7d ec	mov    %edi,-0x14(%rbp)
	1290:	c5 fb 10 45 f0	vmovsd -0x10(%rbp),%xmm0
	1291:	c5 f9 2e 45 f8	vucomisd -0x8(%rbp),%xmm0
	1292:	0f 92 c0	setb   %al
	1293:	83 f0 01	xor    $0x1,%eax
	1294:	84 c0	test   %al,%al
	1295:	74 0b	je     0x4003cf <L54>
	1296:	83 7d ec 00	cmpl   $0x0,-0x14(%rbp)
	1297:	75 10	jne    0x4003da <L56>
	1298:	90	nop
	1299:	c9	leaveq 
	1300:	c3	retq   
	1301:	8b 45 f8	mov    -0x8(%rbp),%eax
	1302:	48 63 d0	movslq %eax,%rdx
	1303:	48 89 d0	mov    %rdx,%rax
	1304:	48 01 c0	add    %rax,%rax
	1305:	48 01 d0	add    %rdx,%rax
	1306:	48 c1 e0 03	shl    $0x3,%rax
	1307:	48 05 6e 07 40 00	add    $0x40076e,%rax
	1308:	0f b6 40 10	movzbl 0x10(%rax),%eax
	1309:	c0 e8 03	shr    $0x3,%al
	1310:	83 e0 01	and    $0x1,%eax
	1311:	0f b6 c8	movzbl %al,%ecx
	1312:	8b 45 f8	mov    -0x8(%rbp),%eax
	1313:	48 63 d0	movslq %eax,%rdx
	1314:	48 89 d0	mov    %rdx,%rax
	1315:	48 01 c0	add    %rax,%rax
	1316:	48 01 d0	add    %rdx,%rax
	1317:	48 c1 e0 03	shl    $0x3,%rax
	1318:	48 05 76 07 40 00	add    $0x400776,%rax
	1319:	c5 fb 10 00	vmovsd (%rax),%xmm0
	1320:	8b 45 f8	mov    -0x8(%rbp),%eax
	1321:	48 63 d0	movslq %eax,%rdx
	1322:	48 89 d0	mov    %rdx,%rax
	1323:	48 01 c0	add    %rax,%rax
	1324:	48 01 d0	add    %rdx,%rax
	1325:	48 c1 e0 03	shl    $0x3,%rax
	1326:	48 05 6e 07 40 00	add    $0x40076e,%rax
	1327:	48 8b 00	mov    (%rax),%rax
	1328:	89 cf	mov    %ecx,%edi
	1329:	c5 f9 28 c8	vmovapd %xmm0,%xmm1
	1330:	c4 e1 f9 6e c0	vmovq  %rax,%xmm0
	1331:	e8 67 fd ff ff	callq  0x4003dd <test_isgreater>
	1332:	55	push   %rbp
	1333:	48 89 e5	mov    %rsp,%rbp
	1334:	48 83 ec 18	sub    $0x18,%rsp
	1335:	c5 fb 11 45 f8	vmovsd %xmm0,-0x8(%rbp)
	1336:	c5 fb 11 4d f0	vmovsd %xmm1,-0x10(%rbp)
	1337:	89 7d ec	mov    %edi,-0x14(%rbp)
	1338:	c5 fb 10 45 f8	vmovsd -0x8(%rbp),%xmm0
	1339:	c5 f9 2e 45 f0	vucomisd -0x10(%rbp),%xmm0
	1340:	0f 96 c0	setbe  %al
	1341:	83 f0 01	xor    $0x1,%eax
	1342:	84 c0	test   %al,%al
	1343:	74 0b	je     0x400411 <L58>
	1344:	83 7d ec 00	cmpl   $0x0,-0x14(%rbp)
	1345:	74 05	je     0x40041c <L60>
	1346:	90	nop
	1347:	c9	leaveq 
	1348:	c3	retq   
	1349:	8b 45 f8	mov    -0x8(%rbp),%eax
	1350:	48 63 d0	movslq %eax,%rdx
	1351:	48 89 d0	mov    %rdx,%rax
	1352:	48 01 c0	add    %rax,%rax
	1353:	48 01 d0	add    %rdx,%rax
	1354:	48 c1 e0 03	shl    $0x3,%rax
	1355:	48 05 6e 07 40 00	add    $0x40076e,%rax
	1356:	0f b6 40 10	movzbl 0x10(%rax),%eax
	1357:	c0 e8 04	shr    $0x4,%al
	1358:	83 e0 01	and    $0x1,%eax
	1359:	0f b6 c8	movzbl %al,%ecx
	1360:	8b 45 f8	mov    -0x8(%rbp),%eax
	1361:	48 63 d0	movslq %eax,%rdx
	1362:	48 89 d0	mov    %rdx,%rax
	1363:	48 01 c0	add    %rax,%rax
	1364:	48 01 d0	add    %rdx,%rax
	1365:	48 c1 e0 03	shl    $0x3,%rax
	1366:	48 05 76 07 40 00	add    $0x400776,%rax
	1367:	c5 fb 10 00	vmovsd (%rax),%xmm0
	1368:	8b 45 f8	mov    -0x8(%rbp),%eax
	1369:	48 63 d0	movslq %eax,%rdx
	1370:	48 89 d0	mov    %rdx,%rax
	1371:	48 01 c0	add    %rax,%rax
	1372:	48 01 d0	add    %rdx,%rax
	1373:	48 c1 e0 03	shl    $0x3,%rax
	1374:	48 05 6e 07 40 00	add    $0x40076e,%rax
	1375:	48 8b 00	mov    (%rax),%rax
	1376:	89 cf	mov    %ecx,%edi
	1377:	c5 f9 28 c8	vmovapd %xmm0,%xmm1
	1378:	c4 e1 f9 6e c0	vmovq  %rax,%xmm0
	1379:	e8 3a fd ff ff	callq  0x40041f <test_isgreaterequal>
	1380:	55	push   %rbp
	1381:	48 89 e5	mov    %rsp,%rbp
	1382:	48 83 ec 18	sub    $0x18,%rsp
	1383:	c5 fb 11 45 f8	vmovsd %xmm0,-0x8(%rbp)
	1384:	c5 fb 11 4d f0	vmovsd %xmm1,-0x10(%rbp)
	1385:	89 7d ec	mov    %edi,-0x14(%rbp)
	1386:	c5 fb 10 45 f8	vmovsd -0x8(%rbp),%xmm0
	1387:	c5 f9 2e 45 f0	vucomisd -0x10(%rbp),%xmm0
	1388:	0f 92 c0	setb   %al
	1389:	83 f0 01	xor    $0x1,%eax
	1390:	84 c0	test   %al,%al
	1391:	74 0b	je     0x400453 <L62>
	1392:	83 7d ec 00	cmpl   $0x0,-0x14(%rbp)
	1393:	74 05	je     0x40045e <L64>
	1394:	90	nop
	1395:	c9	leaveq 
	1396:	c3	retq   
	1397:	8b 45 f8	mov    -0x8(%rbp),%eax
	1398:	48 63 d0	movslq %eax,%rdx
	1399:	48 89 d0	mov    %rdx,%rax
	1400:	48 01 c0	add    %rax,%rax
	1401:	48 01 d0	add    %rdx,%rax
	1402:	48 c1 e0 03	shl    $0x3,%rax
	1403:	48 05 6e 07 40 00	add    $0x40076e,%rax
	1404:	0f b6 40 10	movzbl 0x10(%rax),%eax
	1405:	c0 e8 05	shr    $0x5,%al
	1406:	83 e0 01	and    $0x1,%eax
	1407:	0f b6 c8	movzbl %al,%ecx
	1408:	8b 45 f8	mov    -0x8(%rbp),%eax
	1409:	48 63 d0	movslq %eax,%rdx
	1410:	48 89 d0	mov    %rdx,%rax
	1411:	48 01 c0	add    %rax,%rax
	1412:	48 01 d0	add    %rdx,%rax
	1413:	48 c1 e0 03	shl    $0x3,%rax
	1414:	48 05 76 07 40 00	add    $0x400776,%rax
	1415:	c5 fb 10 00	vmovsd (%rax),%xmm0
	1416:	8b 45 f8	mov    -0x8(%rbp),%eax
	1417:	48 63 d0	movslq %eax,%rdx
	1418:	48 89 d0	mov    %rdx,%rax
	1419:	48 01 c0	add    %rax,%rax
	1420:	48 01 d0	add    %rdx,%rax
	1421:	48 c1 e0 03	shl    $0x3,%rax
	1422:	48 05 6e 07 40 00	add    $0x40076e,%rax
	1423:	48 8b 00	mov    (%rax),%rax
	1424:	89 cf	mov    %ecx,%edi
	1425:	c5 f9 28 c8	vmovapd %xmm0,%xmm1
	1426:	c4 e1 f9 6e c0	vmovq  %rax,%xmm0
	1427:	e8 0d fd ff ff	callq  0x400461 <test_islessgreater>
	1428:	55	push   %rbp
	1429:	48 89 e5	mov    %rsp,%rbp
	1430:	48 83 ec 18	sub    $0x18,%rsp
	1431:	c5 fb 11 45 f8	vmovsd %xmm0,-0x8(%rbp)
	1432:	c5 fb 11 4d f0	vmovsd %xmm1,-0x10(%rbp)
	1433:	89 7d ec	mov    %edi,-0x14(%rbp)
	1434:	c5 fb 10 45 f8	vmovsd -0x8(%rbp),%xmm0
	1435:	c5 f9 2e 45 f0	vucomisd -0x10(%rbp),%xmm0
	1436:	0f 94 c0	sete   %al
	1437:	83 f0 01	xor    $0x1,%eax
	1438:	84 c0	test   %al,%al
	1439:	74 0b	je     0x400495 <L66>
	1440:	83 7d ec 00	cmpl   $0x0,-0x14(%rbp)
	1441:	75 10	jne    0x4004a0 <L68>
	1442:	90	nop
	1443:	c9	leaveq 
	1444:	c3	retq   
	1445:	83 45 f8 01	addl   $0x1,-0x8(%rbp)
	1446:	8b 45 f8	mov    -0x8(%rbp),%eax
	1447:	3b 45 fc	cmp    -0x4(%rbp),%eax
	1448:	0f 8c 5a fd ff ff	jl     0x4004be <L71>
	1449:	8b 45 f8	mov    -0x8(%rbp),%eax
	1450:	48 63 d0	movslq %eax,%rdx
	1451:	48 89 d0	mov    %rdx,%rax
	1452:	48 01 c0	add    %rax,%rax
	1453:	48 01 d0	add    %rdx,%rax
	1454:	48 c1 e0 03	shl    $0x3,%rax
	1455:	48 05 6e 07 40 00	add    $0x40076e,%rax
	1456:	0f b6 40 10	movzbl 0x10(%rax),%eax
	1457:	83 e0 01	and    $0x1,%eax
	1458:	0f b6 c8	movzbl %al,%ecx
	1459:	8b 45 f8	mov    -0x8(%rbp),%eax
	1460:	48 63 d0	movslq %eax,%rdx
	1461:	48 89 d0	mov    %rdx,%rax
	1462:	48 01 c0	add    %rax,%rax
	1463:	48 01 d0	add    %rdx,%rax
	1464:	48 c1 e0 03	shl    $0x3,%rax
	1465:	48 05 76 07 40 00	add    $0x400776,%rax
	1466:	c5 fb 10 00	vmovsd (%rax),%xmm0
	1467:	8b 45 f8	mov    -0x8(%rbp),%eax
	1468:	48 63 d0	movslq %eax,%rdx
	1469:	48 89 d0	mov    %rdx,%rax
	1470:	48 01 c0	add    %rax,%rax
	1471:	48 01 d0	add    %rdx,%rax
	1472:	48 c1 e0 03	shl    $0x3,%rax
	1473:	48 05 6e 07 40 00	add    $0x40076e,%rax
	1474:	48 8b 00	mov    (%rax),%rax
	1475:	89 cf	mov    %ecx,%edi
	1476:	c5 f9 28 c8	vmovapd %xmm0,%xmm1
	1477:	c4 e1 f9 6e c0	vmovq  %rax,%xmm0
	1478:	e8 f5 fd ff ff	callq  0x40031f <test_isunordered>
	1479:	55	push   %rbp
	1480:	48 89 e5	mov    %rsp,%rbp
	1481:	48 83 ec 18	sub    $0x18,%rsp
	1482:	c5 fb 11 45 f8	vmovsd %xmm0,-0x8(%rbp)
	1483:	c5 fb 11 4d f0	vmovsd %xmm1,-0x10(%rbp)
	1484:	89 7d ec	mov    %edi,-0x14(%rbp)
	1485:	c5 fb 10 45 f8	vmovsd -0x8(%rbp),%xmm0
	1486:	c5 f9 2e 45 f0	vucomisd -0x10(%rbp),%xmm0
	1487:	7b 0b	jnp    0x40034b <L46>
	1488:	83 7d ec 00	cmpl   $0x0,-0x14(%rbp)
	1489:	74 05	je     0x400356 <L48>
	1490:	90	nop
	1491:	c9	leaveq 
	1492:	c3	retq   
	1493:	8b 45 f8	mov    -0x8(%rbp),%eax
	1494:	48 63 d0	movslq %eax,%rdx
	1495:	48 89 d0	mov    %rdx,%rax
	1496:	48 01 c0	add    %rax,%rax
	1497:	48 01 d0	add    %rdx,%rax
	1498:	48 c1 e0 03	shl    $0x3,%rax
	1499:	48 05 6e 07 40 00	add    $0x40076e,%rax
	1500:	0f b6 40 10	movzbl 0x10(%rax),%eax
	1501:	d0 e8	shr    %al
	1502:	83 e0 01	and    $0x1,%eax
	1503:	0f b6 c8	movzbl %al,%ecx
	1504:	8b 45 f8	mov    -0x8(%rbp),%eax
	1505:	48 63 d0	movslq %eax,%rdx
	1506:	48 89 d0	mov    %rdx,%rax
	1507:	48 01 c0	add    %rax,%rax
	1508:	48 01 d0	add    %rdx,%rax
	1509:	48 c1 e0 03	shl    $0x3,%rax
	1510:	48 05 76 07 40 00	add    $0x400776,%rax
	1511:	c5 fb 10 00	vmovsd (%rax),%xmm0
	1512:	8b 45 f8	mov    -0x8(%rbp),%eax
	1513:	48 63 d0	movslq %eax,%rdx
	1514:	48 89 d0	mov    %rdx,%rax
	1515:	48 01 c0	add    %rax,%rax
	1516:	48 01 d0	add    %rdx,%rax
	1517:	48 c1 e0 03	shl    $0x3,%rax
	1518:	48 05 6e 07 40 00	add    $0x40076e,%rax
	1519:	48 8b 00	mov    (%rax),%rax
	1520:	89 cf	mov    %ecx,%edi
	1521:	c5 f9 28 c8	vmovapd %xmm0,%xmm1
	1522:	c4 e1 f9 6e c0	vmovq  %rax,%xmm0
	1523:	e8 c1 fd ff ff	callq  0x400359 <test_isless>
	1524:	55	push   %rbp
	1525:	48 89 e5	mov    %rsp,%rbp
	1526:	48 83 ec 18	sub    $0x18,%rsp
	1527:	c5 fb 11 45 f8	vmovsd %xmm0,-0x8(%rbp)
	1528:	c5 fb 11 4d f0	vmovsd %xmm1,-0x10(%rbp)
	1529:	89 7d ec	mov    %edi,-0x14(%rbp)
	1530:	c5 fb 10 45 f0	vmovsd -0x10(%rbp),%xmm0
	1531:	c5 f9 2e 45 f8	vucomisd -0x8(%rbp),%xmm0
	1532:	0f 96 c0	setbe  %al
	1533:	83 f0 01	xor    $0x1,%eax
	1534:	84 c0	test   %al,%al
	1535:	74 0b	je     0x40038d <L50>
	1536:	83 7d ec 00	cmpl   $0x0,-0x14(%rbp)
	1537:	74 05	je     0x400398 <L52>
	1538:	90	nop
	1539:	c9	leaveq 
	1540:	c3	retq   
	1541:	8b 45 f8	mov    -0x8(%rbp),%eax
	1542:	48 63 d0	movslq %eax,%rdx
	1543:	48 89 d0	mov    %rdx,%rax
	1544:	48 01 c0	add    %rax,%rax
	1545:	48 01 d0	add    %rdx,%rax
	1546:	48 c1 e0 03	shl    $0x3,%rax
	1547:	48 05 6e 07 40 00	add    $0x40076e,%rax
	1548:	0f b6 40 10	movzbl 0x10(%rax),%eax
	1549:	c0 e8 02	shr    $0x2,%al
	1550:	83 e0 01	and    $0x1,%eax
	1551:	0f b6 c8	movzbl %al,%ecx
	1552:	8b 45 f8	mov    -0x8(%rbp),%eax
	1553:	48 63 d0	movslq %eax,%rdx
	1554:	48 89 d0	mov    %rdx,%rax
	1555:	48 01 c0	add    %rax,%rax
	1556:	48 01 d0	add    %rdx,%rax
	1557:	48 c1 e0 03	shl    $0x3,%rax
	1558:	48 05 76 07 40 00	add    $0x400776,%rax
	1559:	c5 fb 10 00	vmovsd (%rax),%xmm0
	1560:	8b 45 f8	mov    -0x8(%rbp),%eax
	1561:	48 63 d0	movslq %eax,%rdx
	1562:	48 89 d0	mov    %rdx,%rax
	1563:	48 01 c0	add    %rax,%rax
	1564:	48 01 d0	add    %rdx,%rax
	1565:	48 c1 e0 03	shl    $0x3,%rax
	1566:	48 05 6e 07 40 00	add    $0x40076e,%rax
	1567:	48 8b 00	mov    (%rax),%rax
	1568:	89 cf	mov    %ecx,%edi
	1569:	c5 f9 28 c8	vmovapd %xmm0,%xmm1
	1570:	c4 e1 f9 6e c0	vmovq  %rax,%xmm0
	1571:	e8 94 fd ff ff	callq  0x40039b <test_islessequal>
	1572:	55	push   %rbp
	1573:	48 89 e5	mov    %rsp,%rbp
	1574:	48 83 ec 18	sub    $0x18,%rsp
	1575:	c5 fb 11 45 f8	vmovsd %xmm0,-0x8(%rbp)
	1576:	c5 fb 11 4d f0	vmovsd %xmm1,-0x10(%rbp)
	1577:	89 7d ec	mov    %edi,-0x14(%rbp)
	1578:	c5 fb 10 45 f0	vmovsd -0x10(%rbp),%xmm0
	1579:	c5 f9 2e 45 f8	vucomisd -0x8(%rbp),%xmm0
	1580:	0f 92 c0	setb   %al
	1581:	83 f0 01	xor    $0x1,%eax
	1582:	84 c0	test   %al,%al
	1583:	74 0b	je     0x4003cf <L54>
	1584:	83 7d ec 00	cmpl   $0x0,-0x14(%rbp)
	1585:	74 05	je     0x4003da <L56>
	1586:	90	nop
	1587:	c9	leaveq 
	1588:	c3	retq   
	1589:	8b 45 f8	mov    -0x8(%rbp),%eax
	1590:	48 63 d0	movslq %eax,%rdx
	1591:	48 89 d0	mov    %rdx,%rax
	1592:	48 01 c0	add    %rax,%rax
	1593:	48 01 d0	add    %rdx,%rax
	1594:	48 c1 e0 03	shl    $0x3,%rax
	1595:	48 05 6e 07 40 00	add    $0x40076e,%rax
	1596:	0f b6 40 10	movzbl 0x10(%rax),%eax
	1597:	c0 e8 03	shr    $0x3,%al
	1598:	83 e0 01	and    $0x1,%eax
	1599:	0f b6 c8	movzbl %al,%ecx
	1600:	8b 45 f8	mov    -0x8(%rbp),%eax
	1601:	48 63 d0	movslq %eax,%rdx
	1602:	48 89 d0	mov    %rdx,%rax
	1603:	48 01 c0	add    %rax,%rax
	1604:	48 01 d0	add    %rdx,%rax
	1605:	48 c1 e0 03	shl    $0x3,%rax
	1606:	48 05 76 07 40 00	add    $0x400776,%rax
	1607:	c5 fb 10 00	vmovsd (%rax),%xmm0
	1608:	8b 45 f8	mov    -0x8(%rbp),%eax
	1609:	48 63 d0	movslq %eax,%rdx
	1610:	48 89 d0	mov    %rdx,%rax
	1611:	48 01 c0	add    %rax,%rax
	1612:	48 01 d0	add    %rdx,%rax
	1613:	48 c1 e0 03	shl    $0x3,%rax
	1614:	48 05 6e 07 40 00	add    $0x40076e,%rax
	1615:	48 8b 00	mov    (%rax),%rax
	1616:	89 cf	mov    %ecx,%edi
	1617:	c5 f9 28 c8	vmovapd %xmm0,%xmm1
	1618:	c4 e1 f9 6e c0	vmovq  %rax,%xmm0
	1619:	e8 67 fd ff ff	callq  0x4003dd <test_isgreater>
	1620:	55	push   %rbp
	1621:	48 89 e5	mov    %rsp,%rbp
	1622:	48 83 ec 18	sub    $0x18,%rsp
	1623:	c5 fb 11 45 f8	vmovsd %xmm0,-0x8(%rbp)
	1624:	c5 fb 11 4d f0	vmovsd %xmm1,-0x10(%rbp)
	1625:	89 7d ec	mov    %edi,-0x14(%rbp)
	1626:	c5 fb 10 45 f8	vmovsd -0x8(%rbp),%xmm0
	1627:	c5 f9 2e 45 f0	vucomisd -0x10(%rbp),%xmm0
	1628:	0f 96 c0	setbe  %al
	1629:	83 f0 01	xor    $0x1,%eax
	1630:	84 c0	test   %al,%al
	1631:	74 0b	je     0x400411 <L58>
	1632:	83 7d ec 00	cmpl   $0x0,-0x14(%rbp)
	1633:	75 10	jne    0x40041c <L60>
	1634:	90	nop
	1635:	c9	leaveq 
	1636:	c3	retq   
	1637:	8b 45 f8	mov    -0x8(%rbp),%eax
	1638:	48 63 d0	movslq %eax,%rdx
	1639:	48 89 d0	mov    %rdx,%rax
	1640:	48 01 c0	add    %rax,%rax
	1641:	48 01 d0	add    %rdx,%rax
	1642:	48 c1 e0 03	shl    $0x3,%rax
	1643:	48 05 6e 07 40 00	add    $0x40076e,%rax
	1644:	0f b6 40 10	movzbl 0x10(%rax),%eax
	1645:	c0 e8 04	shr    $0x4,%al
	1646:	83 e0 01	and    $0x1,%eax
	1647:	0f b6 c8	movzbl %al,%ecx
	1648:	8b 45 f8	mov    -0x8(%rbp),%eax
	1649:	48 63 d0	movslq %eax,%rdx
	1650:	48 89 d0	mov    %rdx,%rax
	1651:	48 01 c0	add    %rax,%rax
	1652:	48 01 d0	add    %rdx,%rax
	1653:	48 c1 e0 03	shl    $0x3,%rax
	1654:	48 05 76 07 40 00	add    $0x400776,%rax
	1655:	c5 fb 10 00	vmovsd (%rax),%xmm0
	1656:	8b 45 f8	mov    -0x8(%rbp),%eax
	1657:	48 63 d0	movslq %eax,%rdx
	1658:	48 89 d0	mov    %rdx,%rax
	1659:	48 01 c0	add    %rax,%rax
	1660:	48 01 d0	add    %rdx,%rax
	1661:	48 c1 e0 03	shl    $0x3,%rax
	1662:	48 05 6e 07 40 00	add    $0x40076e,%rax
	1663:	48 8b 00	mov    (%rax),%rax
	1664:	89 cf	mov    %ecx,%edi
	1665:	c5 f9 28 c8	vmovapd %xmm0,%xmm1
	1666:	c4 e1 f9 6e c0	vmovq  %rax,%xmm0
	1667:	e8 3a fd ff ff	callq  0x40041f <test_isgreaterequal>
	1668:	55	push   %rbp
	1669:	48 89 e5	mov    %rsp,%rbp
	1670:	48 83 ec 18	sub    $0x18,%rsp
	1671:	c5 fb 11 45 f8	vmovsd %xmm0,-0x8(%rbp)
	1672:	c5 fb 11 4d f0	vmovsd %xmm1,-0x10(%rbp)
	1673:	89 7d ec	mov    %edi,-0x14(%rbp)
	1674:	c5 fb 10 45 f8	vmovsd -0x8(%rbp),%xmm0
	1675:	c5 f9 2e 45 f0	vucomisd -0x10(%rbp),%xmm0
	1676:	0f 92 c0	setb   %al
	1677:	83 f0 01	xor    $0x1,%eax
	1678:	84 c0	test   %al,%al
	1679:	74 0b	je     0x400453 <L62>
	1680:	83 7d ec 00	cmpl   $0x0,-0x14(%rbp)
	1681:	75 10	jne    0x40045e <L64>
	1682:	90	nop
	1683:	c9	leaveq 
	1684:	c3	retq   
	1685:	8b 45 f8	mov    -0x8(%rbp),%eax
	1686:	48 63 d0	movslq %eax,%rdx
	1687:	48 89 d0	mov    %rdx,%rax
	1688:	48 01 c0	add    %rax,%rax
	1689:	48 01 d0	add    %rdx,%rax
	1690:	48 c1 e0 03	shl    $0x3,%rax
	1691:	48 05 6e 07 40 00	add    $0x40076e,%rax
	1692:	0f b6 40 10	movzbl 0x10(%rax),%eax
	1693:	c0 e8 05	shr    $0x5,%al
	1694:	83 e0 01	and    $0x1,%eax
	1695:	0f b6 c8	movzbl %al,%ecx
	1696:	8b 45 f8	mov    -0x8(%rbp),%eax
	1697:	48 63 d0	movslq %eax,%rdx
	1698:	48 89 d0	mov    %rdx,%rax
	1699:	48 01 c0	add    %rax,%rax
	1700:	48 01 d0	add    %rdx,%rax
	1701:	48 c1 e0 03	shl    $0x3,%rax
	1702:	48 05 76 07 40 00	add    $0x400776,%rax
	1703:	c5 fb 10 00	vmovsd (%rax),%xmm0
	1704:	8b 45 f8	mov    -0x8(%rbp),%eax
	1705:	48 63 d0	movslq %eax,%rdx
	1706:	48 89 d0	mov    %rdx,%rax
	1707:	48 01 c0	add    %rax,%rax
	1708:	48 01 d0	add    %rdx,%rax
	1709:	48 c1 e0 03	shl    $0x3,%rax
	1710:	48 05 6e 07 40 00	add    $0x40076e,%rax
	1711:	48 8b 00	mov    (%rax),%rax
	1712:	89 cf	mov    %ecx,%edi
	1713:	c5 f9 28 c8	vmovapd %xmm0,%xmm1
	1714:	c4 e1 f9 6e c0	vmovq  %rax,%xmm0
	1715:	e8 0d fd ff ff	callq  0x400461 <test_islessgreater>
	1716:	55	push   %rbp
	1717:	48 89 e5	mov    %rsp,%rbp
	1718:	48 83 ec 18	sub    $0x18,%rsp
	1719:	c5 fb 11 45 f8	vmovsd %xmm0,-0x8(%rbp)
	1720:	c5 fb 11 4d f0	vmovsd %xmm1,-0x10(%rbp)
	1721:	89 7d ec	mov    %edi,-0x14(%rbp)
	1722:	c5 fb 10 45 f8	vmovsd -0x8(%rbp),%xmm0
	1723:	c5 f9 2e 45 f0	vucomisd -0x10(%rbp),%xmm0
	1724:	0f 94 c0	sete   %al
	1725:	83 f0 01	xor    $0x1,%eax
	1726:	84 c0	test   %al,%al
	1727:	74 0b	je     0x400495 <L66>
	1728:	83 7d ec 00	cmpl   $0x0,-0x14(%rbp)
	1729:	75 10	jne    0x4004a0 <L68>
	1730:	90	nop
	1731:	c9	leaveq 
	1732:	c3	retq   
	1733:	83 45 f8 01	addl   $0x1,-0x8(%rbp)
	1734:	8b 45 f8	mov    -0x8(%rbp),%eax
	1735:	3b 45 fc	cmp    -0x4(%rbp),%eax
	1736:	0f 8c 5a fd ff ff	jl     0x4004be <L71>
	1737:	bf 00 00 00 00	mov    $0x0,%edi
	1738:	e8 83 fa ff ff	callq  0x4001f1 <exit>
	1739:	55	push   %rbp
	1740:	48 89 e5	mov    %rsp,%rbp
	1741:	89 7d fc	mov    %edi,-0x4(%rbp)
	1742:	48 c7 c0 ff ff ff ff	mov    $0xffffffffffffffff,%rax
	1743:	ff e0	jmpq   *%rax


Count 0) reg	kstate	xstate		55	push   %rbp
---------------------
rax	64'0	0
rbx	64'0	0
rcx	64'0	0
rdx	64'0	0
rsi	64'0	0
rdi	64'0	0
rsp	ptr ( symloc ( 1 , 128 ) , 64'1016 )	140737488345616
rbp	ptr ( symloc ( 1 , 128 ) , 64'1016 )	0
r8	64'0	0
r9	64'0	0
r10	64'0	0
r11	64'0	0
r12	64'0	0
r13	64'0	0
r14	64'0	0
r15	64'0	0
cf	1'0	0
pf	1'0	0
af	1'0	0
zf	1'0	0
sf	1'0	0
of	1'0	0
ymm0	256'0	0x0000000000000000000000000000000000000000000000000000000000000000
ymm1	256'0	0x0000000000000000000000000000000000000000000000000000000000000000
ymm2	256'0	0x0000000000000000000000000000000000000000000000000000000000000000
ymm3	256'0	0x0000000000000000000000000000000000000000000000000000000000000000
ymm4	256'0	0x0000000000000000000000000000000000000000000000000000000000000000
ymm5	256'0	0x0000000000000000000000000000000000000000000000000000000000000000
ymm6	256'0	0x0000000000000000000000000000000000000000000000000000000000000000
ymm7	256'0	0x0000000000000000000000000000000000000000000000000000000000000000
ymm8	256'0	0x0000000000000000000000000000000000000000000000000000000000000000
ymm9	256'0	0x0000000000000000000000000000000000000000000000000000000000000000
ymm10	256'0	0x0000000000000000000000000000000000000000000000000000000000000000
ymm11	256'0	0x0000000000000000000000000000000000000000000000000000000000000000
ymm12	256'0	0x0000000000000000000000000000000000000000000000000000000000000000
ymm13	256'0	0x0000000000000000000000000000000000000000000000000000000000000000
ymm14	256'0	0x0000000000000000000000000000000000000000000000000000000000000000
ymm15	256'0	0x0000000000000000000000000000000000000000000000000000000000000000

Count 1) reg	kstate	xstate		48 89 e5	mov    %rsp,%rbp
---------------------
rax	64'0	0
rbx	64'0	0
rcx	64'0	0
rdx	64'0	0
rsi	64'0	0
rdi	64'0	0
rsp	ptr ( symloc ( 1 , 128 ) , 64'1008 )	140737488345608
rbp	ptr ( symloc ( 1 , 128 ) , 64'1016 )	0
r8	64'0	0
r9	64'0	0
r10	64'0	0
r11	64'0	0
r12	64'0	0
r13	64'0	0
r14	64'0	0
r15	64'0	0
cf	1'0	0
pf	1'0	0
af	1'0	0
zf	1'0	0
sf	1'0	0
of	1'0	0
ymm0	256'0	0x0000000000000000000000000000000000000000000000000000000000000000
ymm1	256'0	0x0000000000000000000000000000000000000000000000000000000000000000
ymm2	256'0	0x0000000000000000000000000000000000000000000000000000000000000000
ymm3	256'0	0x0000000000000000000000000000000000000000000000000000000000000000
ymm4	256'0	0x0000000000000000000000000000000000000000000000000000000000000000
ymm5	256'0	0x0000000000000000000000000000000000000000000000000000000000000000
ymm6	256'0	0x0000000000000000000000000000000000000000000000000000000000000000
ymm7	256'0	0x0000000000000000000000000000000000000000000000000000000000000000
ymm8	256'0	0x0000000000000000000000000000000000000000000000000000000000000000
ymm9	256'0	0x0000000000000000000000000000000000000000000000000000000000000000
ymm10	256'0	0x0000000000000000000000000000000000000000000000000000000000000000
ymm11	256'0	0x0000000000000000000000000000000000000000000000000000000000000000
ymm12	256'0	0x0000000000000000000000000000000000000000000000000000000000000000
ymm13	256'0	0x0000000000000000000000000000000000000000000000000000000000000000
ymm14	256'0	0x0000000000000000000000000000000000000000000000000000000000000000
ymm15	256'0	0x0000000000000000000000000000000000000000000000000000000000000000

Count 2) reg	kstate	xstate		48 83 ec 10	sub    $0x10,%rsp
---------------------
rax	64'0	0
rbx	64'0	0
rcx	64'0	0
rdx	64'0	0
rsi	64'0	0
rdi	64'0	0
rsp	ptr ( symloc ( 1 , 128 ) , 64'1008 )	140737488345608
rbp	ptr ( symloc ( 1 , 128 ) , 64'1008 )	140737488345608
r8	64'0	0
r9	64'0	0
r10	64'0	0
r11	64'0	0
r12	64'0	0
r13	64'0	0
r14	64'0	0
r15	64'0	0
cf	1'0	0
pf	1'0	0
af	1'0	0
zf	1'0	0
sf	1'0	0
of	1'0	0
ymm0	256'0	0x0000000000000000000000000000000000000000000000000000000000000000
ymm1	256'0	0x0000000000000000000000000000000000000000000000000000000000000000
ymm2	256'0	0x0000000000000000000000000000000000000000000000000000000000000000
ymm3	256'0	0x0000000000000000000000000000000000000000000000000000000000000000
ymm4	256'0	0x0000000000000000000000000000000000000000000000000000000000000000
ymm5	256'0	0x0000000000000000000000000000000000000000000000000000000000000000
ymm6	256'0	0x0000000000000000000000000000000000000000000000000000000000000000
ymm7	256'0	0x0000000000000000000000000000000000000000000000000000000000000000
ymm8	256'0	0x0000000000000000000000000000000000000000000000000000000000000000
ymm9	256'0	0x0000000000000000000000000000000000000000000000000000000000000000
ymm10	256'0	0x0000000000000000000000000000000000000000000000000000000000000000
ymm11	256'0	0x0000000000000000000000000000000000000000000000000000000000000000
ymm12	256'0	0x0000000000000000000000000000000000000000000000000000000000000000
ymm13	256'0	0x0000000000000000000000000000000000000000000000000000000000000000
ymm14	256'0	0x0000000000000000000000000000000000000000000000000000000000000000
ymm15	256'0	0x0000000000000000000000000000000000000000000000000000000000000000

Count 3) reg	kstate	xstate		c7 45 fc 06 00 00 00	movl   $0x6,-0x4(%rbp)
---------------------
rax	64'0	0
rbx	64'0	0
rcx	64'0	0
rdx	64'0	0
rsi	64'0	0
rdi	64'0	0
rsp	ptr ( symloc ( 1 , 128 ) , 64'992 )	140737488345592
rbp	ptr ( symloc ( 1 , 128 ) , 64'1008 )	140737488345608
r8	64'0	0
r9	64'0	0
r10	64'0	0
r11	64'0	0
r12	64'0	0
r13	64'0	0
r14	64'0	0
r15	64'0	0
cf	1'0	0
pf	1'0	0
af	ptr ( symloc ( 1 , 128 ) , 1'0 )	0
zf	1'0	0
sf	ptr ( symloc ( 1 , 128 ) , 1'0 )	0
of	1'0	0
ymm0	256'0	0x0000000000000000000000000000000000000000000000000000000000000000
ymm1	256'0	0x0000000000000000000000000000000000000000000000000000000000000000
ymm2	256'0	0x0000000000000000000000000000000000000000000000000000000000000000
ymm3	256'0	0x0000000000000000000000000000000000000000000000000000000000000000
ymm4	256'0	0x0000000000000000000000000000000000000000000000000000000000000000
ymm5	256'0	0x0000000000000000000000000000000000000000000000000000000000000000
ymm6	256'0	0x0000000000000000000000000000000000000000000000000000000000000000
ymm7	256'0	0x0000000000000000000000000000000000000000000000000000000000000000
ymm8	256'0	0x0000000000000000000000000000000000000000000000000000000000000000
ymm9	256'0	0x0000000000000000000000000000000000000000000000000000000000000000
ymm10	256'0	0x0000000000000000000000000000000000000000000000000000000000000000
ymm11	256'0	0x0000000000000000000000000000000000000000000000000000000000000000
ymm12	256'0	0x0000000000000000000000000000000000000000000000000000000000000000
ymm13	256'0	0x0000000000000000000000000000000000000000000000000000000000000000
ymm14	256'0	0x0000000000000000000000000000000000000000000000000000000000000000
ymm15	256'0	0x0000000000000000000000000000000000000000000000000000000000000000

Count 4) reg	kstate	xstate		c7 45 f8 00 00 00 00	movl   $0x0,-0x8(%rbp)
---------------------
rax	64'0	0
rbx	64'0	0
rcx	64'0	0
rdx	64'0	0
rsi	64'0	0
rdi	64'0	0
rsp	ptr ( symloc ( 1 , 128 ) , 64'992 )	140737488345592
rbp	ptr ( symloc ( 1 , 128 ) , 64'1008 )	140737488345608
r8	64'0	0
r9	64'0	0
r10	64'0	0
r11	64'0	0
r12	64'0	0
r13	64'0	0
r14	64'0	0
r15	64'0	0
cf	1'0	0
pf	1'0	0
af	ptr ( symloc ( 1 , 128 ) , 1'0 )	0
zf	1'0	0
sf	ptr ( symloc ( 1 , 128 ) , 1'0 )	0
of	1'0	0
ymm0	256'0	0x0000000000000000000000000000000000000000000000000000000000000000
ymm1	256'0	0x0000000000000000000000000000000000000000000000000000000000000000
ymm2	256'0	0x0000000000000000000000000000000000000000000000000000000000000000
ymm3	256'0	0x0000000000000000000000000000000000000000000000000000000000000000
ymm4	256'0	0x0000000000000000000000000000000000000000000000000000000000000000
ymm5	256'0	0x0000000000000000000000000000000000000000000000000000000000000000
ymm6	256'0	0x0000000000000000000000000000000000000000000000000000000000000000
ymm7	256'0	0x0000000000000000000000000000000000000000000000000000000000000000
ymm8	256'0	0x0000000000000000000000000000000000000000000000000000000000000000
ymm9	256'0	0x0000000000000000000000000000000000000000000000000000000000000000
ymm10	256'0	0x0000000000000000000000000000000000000000000000000000000000000000
ymm11	256'0	0x0000000000000000000000000000000000000000000000000000000000000000
ymm12	256'0	0x0000000000000000000000000000000000000000000000000000000000000000
ymm13	256'0	0x0000000000000000000000000000000000000000000000000000000000000000
ymm14	256'0	0x0000000000000000000000000000000000000000000000000000000000000000
ymm15	256'0	0x0000000000000000000000000000000000000000000000000000000000000000

Count 5) reg	kstate	xstate		e9 9a 02 00 00	jmpq   0x400758 <L70>
---------------------
rax	64'0	0
rbx	64'0	0
rcx	64'0	0
rdx	64'0	0
rsi	64'0	0
rdi	64'0	0
rsp	ptr ( symloc ( 1 , 128 ) , 64'992 )	140737488345592
rbp	ptr ( symloc ( 1 , 128 ) , 64'1008 )	140737488345608
r8	64'0	0
r9	64'0	0
r10	64'0	0
r11	64'0	0
r12	64'0	0
r13	64'0	0
r14	64'0	0
r15	64'0	0
cf	1'0	0
pf	1'0	0
af	ptr ( symloc ( 1 , 128 ) , 1'0 )	0
zf	1'0	0
sf	ptr ( symloc ( 1 , 128 ) , 1'0 )	0
of	1'0	0
ymm0	256'0	0x0000000000000000000000000000000000000000000000000000000000000000
ymm1	256'0	0x0000000000000000000000000000000000000000000000000000000000000000
ymm2	256'0	0x0000000000000000000000000000000000000000000000000000000000000000
ymm3	256'0	0x0000000000000000000000000000000000000000000000000000000000000000
ymm4	256'0	0x0000000000000000000000000000000000000000000000000000000000000000
ymm5	256'0	0x0000000000000000000000000000000000000000000000000000000000000000
ymm6	256'0	0x0000000000000000000000000000000000000000000000000000000000000000
ymm7	256'0	0x0000000000000000000000000000000000000000000000000000000000000000
ymm8	256'0	0x0000000000000000000000000000000000000000000000000000000000000000
ymm9	256'0	0x0000000000000000000000000000000000000000000000000000000000000000
ymm10	256'0	0x0000000000000000000000000000000000000000000000000000000000000000
ymm11	256'0	0x0000000000000000000000000000000000000000000000000000000000000000
ymm12	256'0	0x0000000000000000000000000000000000000000000000000000000000000000
ymm13	256'0	0x0000000000000000000000000000000000000000000000000000000000000000
ymm14	256'0	0x0000000000000000000000000000000000000000000000000000000000000000
ymm15	256'0	0x0000000000000000000000000000000000000000000000000000000000000000

Count 6) reg	kstate	xstate		8b 45 f8	mov    -0x8(%rbp),%eax
---------------------
rax	64'0	0
rbx	64'0	0
rcx	64'0	0
rdx	64'0	0
rsi	64'0	0
rdi	64'0	0
rsp	ptr ( symloc ( 1 , 128 ) , 64'992 )	140737488345592
rbp	ptr ( symloc ( 1 , 128 ) , 64'1008 )	140737488345608
r8	64'0	0
r9	64'0	0
r10	64'0	0
r11	64'0	0
r12	64'0	0
r13	64'0	0
r14	64'0	0
r15	64'0	0
cf	1'0	0
pf	1'0	0
af	ptr ( symloc ( 1 , 128 ) , 1'0 )	0
zf	1'0	0
sf	ptr ( symloc ( 1 , 128 ) , 1'0 )	0
of	1'0	0
ymm0	256'0	0x0000000000000000000000000000000000000000000000000000000000000000
ymm1	256'0	0x0000000000000000000000000000000000000000000000000000000000000000
ymm2	256'0	0x0000000000000000000000000000000000000000000000000000000000000000
ymm3	256'0	0x0000000000000000000000000000000000000000000000000000000000000000
ymm4	256'0	0x0000000000000000000000000000000000000000000000000000000000000000
ymm5	256'0	0x0000000000000000000000000000000000000000000000000000000000000000
ymm6	256'0	0x0000000000000000000000000000000000000000000000000000000000000000
ymm7	256'0	0x0000000000000000000000000000000000000000000000000000000000000000
ymm8	256'0	0x0000000000000000000000000000000000000000000000000000000000000000
ymm9	256'0	0x0000000000000000000000000000000000000000000000000000000000000000
ymm10	256'0	0x0000000000000000000000000000000000000000000000000000000000000000
ymm11	256'0	0x0000000000000000000000000000000000000000000000000000000000000000
ymm12	256'0	0x0000000000000000000000000000000000000000000000000000000000000000
ymm13	256'0	0x0000000000000000000000000000000000000000000000000000000000000000
ymm14	256'0	0x0000000000000000000000000000000000000000000000000000000000000000
ymm15	256'0	0x0000000000000000000000000000000000000000000000000000000000000000

Count 7) reg	kstate	xstate		3b 45 fc	cmp    -0x4(%rbp),%eax
---------------------
rax	64'0	0
rbx	64'0	0
rcx	64'0	0
rdx	64'0	0
rsi	64'0	0
rdi	64'0	0
rsp	ptr ( symloc ( 1 , 128 ) , 64'992 )	140737488345592
rbp	ptr ( symloc ( 1 , 128 ) , 64'1008 )	140737488345608
r8	64'0	0
r9	64'0	0
r10	64'0	0
r11	64'0	0
r12	64'0	0
r13	64'0	0
r14	64'0	0
r15	64'0	0
cf	1'0	0
pf	1'0	0
af	ptr ( symloc ( 1 , 128 ) , 1'0 )	0
zf	1'0	0
sf	ptr ( symloc ( 1 , 128 ) , 1'0 )	0
of	1'0	0
ymm0	256'0	0x0000000000000000000000000000000000000000000000000000000000000000
ymm1	256'0	0x0000000000000000000000000000000000000000000000000000000000000000
ymm2	256'0	0x0000000000000000000000000000000000000000000000000000000000000000
ymm3	256'0	0x0000000000000000000000000000000000000000000000000000000000000000
ymm4	256'0	0x0000000000000000000000000000000000000000000000000000000000000000
ymm5	256'0	0x0000000000000000000000000000000000000000000000000000000000000000
ymm6	256'0	0x0000000000000000000000000000000000000000000000000000000000000000
ymm7	256'0	0x0000000000000000000000000000000000000000000000000000000000000000
ymm8	256'0	0x0000000000000000000000000000000000000000000000000000000000000000
ymm9	256'0	0x0000000000000000000000000000000000000000000000000000000000000000
ymm10	256'0	0x0000000000000000000000000000000000000000000000000000000000000000
ymm11	256'0	0x0000000000000000000000000000000000000000000000000000000000000000
ymm12	256'0	0x0000000000000000000000000000000000000000000000000000000000000000
ymm13	256'0	0x0000000000000000000000000000000000000000000000000000000000000000
ymm14	256'0	0x0000000000000000000000000000000000000000000000000000000000000000
ymm15	256'0	0x0000000000000000000000000000000000000000000000000000000000000000

Count 8) reg	kstate	xstate		0f 8c 5a fd ff ff	jl     0x4004be <L71>
---------------------
rax	64'0	0
rbx	64'0	0
rcx	64'0	0
rdx	64'0	0
rsi	64'0	0
rdi	64'0	0
rsp	ptr ( symloc ( 1 , 128 ) , 64'992 )	140737488345592
rbp	ptr ( symloc ( 1 , 128 ) , 64'1008 )	140737488345608
r8	64'0	0
r9	64'0	0
r10	64'0	0
r11	64'0	0
r12	64'0	0
r13	64'0	0
r14	64'0	0
r15	64'0	0
cf	1'1	1
pf	1'1	1
af	1'1	1
zf	1'0	0
sf	1'1	1
of	1'0	0
ymm0	256'0	0x0000000000000000000000000000000000000000000000000000000000000000
ymm1	256'0	0x0000000000000000000000000000000000000000000000000000000000000000
ymm2	256'0	0x0000000000000000000000000000000000000000000000000000000000000000
ymm3	256'0	0x0000000000000000000000000000000000000000000000000000000000000000
ymm4	256'0	0x0000000000000000000000000000000000000000000000000000000000000000
ymm5	256'0	0x0000000000000000000000000000000000000000000000000000000000000000
ymm6	256'0	0x0000000000000000000000000000000000000000000000000000000000000000
ymm7	256'0	0x0000000000000000000000000000000000000000000000000000000000000000
ymm8	256'0	0x0000000000000000000000000000000000000000000000000000000000000000
ymm9	256'0	0x0000000000000000000000000000000000000000000000000000000000000000
ymm10	256'0	0x0000000000000000000000000000000000000000000000000000000000000000
ymm11	256'0	0x0000000000000000000000000000000000000000000000000000000000000000
ymm12	256'0	0x0000000000000000000000000000000000000000000000000000000000000000
ymm13	256'0	0x0000000000000000000000000000000000000000000000000000000000000000
ymm14	256'0	0x0000000000000000000000000000000000000000000000000000000000000000
ymm15	256'0	0x0000000000000000000000000000000000000000000000000000000000000000

Count 9) reg	kstate	xstate		8b 45 f8	mov    -0x8(%rbp),%eax
---------------------
rax	64'0	0
rbx	64'0	0
rcx	64'0	0
rdx	64'0	0
rsi	64'0	0
rdi	64'0	0
rsp	ptr ( symloc ( 1 , 128 ) , 64'992 )	140737488345592
rbp	ptr ( symloc ( 1 , 128 ) , 64'1008 )	140737488345608
r8	64'0	0
r9	64'0	0
r10	64'0	0
r11	64'0	0
r12	64'0	0
r13	64'0	0
r14	64'0	0
r15	64'0	0
cf	1'1	1
pf	1'1	1
af	1'1	1
zf	1'0	0
sf	1'1	1
of	1'0	0
ymm0	256'0	0x0000000000000000000000000000000000000000000000000000000000000000
ymm1	256'0	0x0000000000000000000000000000000000000000000000000000000000000000
ymm2	256'0	0x0000000000000000000000000000000000000000000000000000000000000000
ymm3	256'0	0x0000000000000000000000000000000000000000000000000000000000000000
ymm4	256'0	0x0000000000000000000000000000000000000000000000000000000000000000
ymm5	256'0	0x0000000000000000000000000000000000000000000000000000000000000000
ymm6	256'0	0x0000000000000000000000000000000000000000000000000000000000000000
ymm7	256'0	0x0000000000000000000000000000000000000000000000000000000000000000
ymm8	256'0	0x0000000000000000000000000000000000000000000000000000000000000000
ymm9	256'0	0x0000000000000000000000000000000000000000000000000000000000000000
ymm10	256'0	0x0000000000000000000000000000000000000000000000000000000000000000
ymm11	256'0	0x0000000000000000000000000000000000000000000000000000000000000000
ymm12	256'0	0x0000000000000000000000000000000000000000000000000000000000000000
ymm13	256'0	0x0000000000000000000000000000000000000000000000000000000000000000
ymm14	256'0	0x0000000000000000000000000000000000000000000000000000000000000000
ymm15	256'0	0x0000000000000000000000000000000000000000000000000000000000000000

Count 10) reg	kstate	xstate		48 63 d0	movslq %eax,%rdx
---------------------
rax	64'0	0
rbx	64'0	0
rcx	64'0	0
rdx	64'0	0
rsi	64'0	0
rdi	64'0	0
rsp	ptr ( symloc ( 1 , 128 ) , 64'992 )	140737488345592
rbp	ptr ( symloc ( 1 , 128 ) , 64'1008 )	140737488345608
r8	64'0	0
r9	64'0	0
r10	64'0	0
r11	64'0	0
r12	64'0	0
r13	64'0	0
r14	64'0	0
r15	64'0	0
cf	1'1	1
pf	1'1	1
af	1'1	1
zf	1'0	0
sf	1'1	1
of	1'0	0
ymm0	256'0	0x0000000000000000000000000000000000000000000000000000000000000000
ymm1	256'0	0x0000000000000000000000000000000000000000000000000000000000000000
ymm2	256'0	0x0000000000000000000000000000000000000000000000000000000000000000
ymm3	256'0	0x0000000000000000000000000000000000000000000000000000000000000000
ymm4	256'0	0x0000000000000000000000000000000000000000000000000000000000000000
ymm5	256'0	0x0000000000000000000000000000000000000000000000000000000000000000
ymm6	256'0	0x0000000000000000000000000000000000000000000000000000000000000000
ymm7	256'0	0x0000000000000000000000000000000000000000000000000000000000000000
ymm8	256'0	0x0000000000000000000000000000000000000000000000000000000000000000
ymm9	256'0	0x0000000000000000000000000000000000000000000000000000000000000000
ymm10	256'0	0x0000000000000000000000000000000000000000000000000000000000000000
ymm11	256'0	0x0000000000000000000000000000000000000000000000000000000000000000
ymm12	256'0	0x0000000000000000000000000000000000000000000000000000000000000000
ymm13	256'0	0x0000000000000000000000000000000000000000000000000000000000000000
ymm14	256'0	0x0000000000000000000000000000000000000000000000000000000000000000
ymm15	256'0	0x0000000000000000000000000000000000000000000000000000000000000000

Count 11) reg	kstate	xstate		48 89 d0	mov    %rdx,%rax
---------------------
rax	64'0	0
rbx	64'0	0
rcx	64'0	0
rdx	64'0	0
rsi	64'0	0
rdi	64'0	0
rsp	ptr ( symloc ( 1 , 128 ) , 64'992 )	140737488345592
rbp	ptr ( symloc ( 1 , 128 ) , 64'1008 )	140737488345608
r8	64'0	0
r9	64'0	0
r10	64'0	0
r11	64'0	0
r12	64'0	0
r13	64'0	0
r14	64'0	0
r15	64'0	0
cf	1'1	1
pf	1'1	1
af	1'1	1
zf	1'0	0
sf	1'1	1
of	1'0	0
ymm0	256'0	0x0000000000000000000000000000000000000000000000000000000000000000
ymm1	256'0	0x0000000000000000000000000000000000000000000000000000000000000000
ymm2	256'0	0x0000000000000000000000000000000000000000000000000000000000000000
ymm3	256'0	0x0000000000000000000000000000000000000000000000000000000000000000
ymm4	256'0	0x0000000000000000000000000000000000000000000000000000000000000000
ymm5	256'0	0x0000000000000000000000000000000000000000000000000000000000000000
ymm6	256'0	0x0000000000000000000000000000000000000000000000000000000000000000
ymm7	256'0	0x0000000000000000000000000000000000000000000000000000000000000000
ymm8	256'0	0x0000000000000000000000000000000000000000000000000000000000000000
ymm9	256'0	0x0000000000000000000000000000000000000000000000000000000000000000
ymm10	256'0	0x0000000000000000000000000000000000000000000000000000000000000000
ymm11	256'0	0x0000000000000000000000000000000000000000000000000000000000000000
ymm12	256'0	0x0000000000000000000000000000000000000000000000000000000000000000
ymm13	256'0	0x0000000000000000000000000000000000000000000000000000000000000000
ymm14	256'0	0x0000000000000000000000000000000000000000000000000000000000000000
ymm15	256'0	0x0000000000000000000000000000000000000000000000000000000000000000

Count 12) reg	kstate	xstate		48 01 c0	add    %rax,%rax
---------------------
rax	64'0	0
rbx	64'0	0
rcx	64'0	0
rdx	64'0	0
rsi	64'0	0
rdi	64'0	0
rsp	ptr ( symloc ( 1 , 128 ) , 64'992 )	140737488345592
rbp	ptr ( symloc ( 1 , 128 ) , 64'1008 )	140737488345608
r8	64'0	0
r9	64'0	0
r10	64'0	0
r11	64'0	0
r12	64'0	0
r13	64'0	0
r14	64'0	0
r15	64'0	0
cf	1'1	1
pf	1'1	1
af	1'1	1
zf	1'0	0
sf	1'1	1
of	1'0	0
ymm0	256'0	0x0000000000000000000000000000000000000000000000000000000000000000
ymm1	256'0	0x0000000000000000000000000000000000000000000000000000000000000000
ymm2	256'0	0x0000000000000000000000000000000000000000000000000000000000000000
ymm3	256'0	0x0000000000000000000000000000000000000000000000000000000000000000
ymm4	256'0	0x0000000000000000000000000000000000000000000000000000000000000000
ymm5	256'0	0x0000000000000000000000000000000000000000000000000000000000000000
ymm6	256'0	0x0000000000000000000000000000000000000000000000000000000000000000
ymm7	256'0	0x0000000000000000000000000000000000000000000000000000000000000000
ymm8	256'0	0x0000000000000000000000000000000000000000000000000000000000000000
ymm9	256'0	0x0000000000000000000000000000000000000000000000000000000000000000
ymm10	256'0	0x0000000000000000000000000000000000000000000000000000000000000000
ymm11	256'0	0x0000000000000000000000000000000000000000000000000000000000000000
ymm12	256'0	0x0000000000000000000000000000000000000000000000000000000000000000
ymm13	256'0	0x0000000000000000000000000000000000000000000000000000000000000000
ymm14	256'0	0x0000000000000000000000000000000000000000000000000000000000000000
ymm15	256'0	0x0000000000000000000000000000000000000000000000000000000000000000

Count 13) reg	kstate	xstate		48 01 d0	add    %rdx,%rax
---------------------
rax	64'0	0
rbx	64'0	0
rcx	64'0	0
rdx	64'0	0
rsi	64'0	0
rdi	64'0	0
rsp	ptr ( symloc ( 1 , 128 ) , 64'992 )	140737488345592
rbp	ptr ( symloc ( 1 , 128 ) , 64'1008 )	140737488345608
r8	64'0	0
r9	64'0	0
r10	64'0	0
r11	64'0	0
r12	64'0	0
r13	64'0	0
r14	64'0	0
r15	64'0	0
cf	1'0	0
pf	1'1	1
af	1'0	0
zf	1'1	1
sf	1'0	0
of	1'0	0
ymm0	256'0	0x0000000000000000000000000000000000000000000000000000000000000000
ymm1	256'0	0x0000000000000000000000000000000000000000000000000000000000000000
ymm2	256'0	0x0000000000000000000000000000000000000000000000000000000000000000
ymm3	256'0	0x0000000000000000000000000000000000000000000000000000000000000000
ymm4	256'0	0x0000000000000000000000000000000000000000000000000000000000000000
ymm5	256'0	0x0000000000000000000000000000000000000000000000000000000000000000
ymm6	256'0	0x0000000000000000000000000000000000000000000000000000000000000000
ymm7	256'0	0x0000000000000000000000000000000000000000000000000000000000000000
ymm8	256'0	0x0000000000000000000000000000000000000000000000000000000000000000
ymm9	256'0	0x0000000000000000000000000000000000000000000000000000000000000000
ymm10	256'0	0x0000000000000000000000000000000000000000000000000000000000000000
ymm11	256'0	0x0000000000000000000000000000000000000000000000000000000000000000
ymm12	256'0	0x0000000000000000000000000000000000000000000000000000000000000000
ymm13	256'0	0x0000000000000000000000000000000000000000000000000000000000000000
ymm14	256'0	0x0000000000000000000000000000000000000000000000000000000000000000
ymm15	256'0	0x0000000000000000000000000000000000000000000000000000000000000000

Count 14) reg	kstate	xstate		48 c1 e0 03	shl    $0x3,%rax
---------------------
rax	64'0	0
rbx	64'0	0
rcx	64'0	0
rdx	64'0	0
rsi	64'0	0
rdi	64'0	0
rsp	ptr ( symloc ( 1 , 128 ) , 64'992 )	140737488345592
rbp	ptr ( symloc ( 1 , 128 ) , 64'1008 )	140737488345608
r8	64'0	0
r9	64'0	0
r10	64'0	0
r11	64'0	0
r12	64'0	0
r13	64'0	0
r14	64'0	0
r15	64'0	0
cf	1'0	0
pf	1'1	1
af	1'0	0
zf	1'1	1
sf	1'0	0
of	1'0	0
ymm0	256'0	0x0000000000000000000000000000000000000000000000000000000000000000
ymm1	256'0	0x0000000000000000000000000000000000000000000000000000000000000000
ymm2	256'0	0x0000000000000000000000000000000000000000000000000000000000000000
ymm3	256'0	0x0000000000000000000000000000000000000000000000000000000000000000
ymm4	256'0	0x0000000000000000000000000000000000000000000000000000000000000000
ymm5	256'0	0x0000000000000000000000000000000000000000000000000000000000000000
ymm6	256'0	0x0000000000000000000000000000000000000000000000000000000000000000
ymm7	256'0	0x0000000000000000000000000000000000000000000000000000000000000000
ymm8	256'0	0x0000000000000000000000000000000000000000000000000000000000000000
ymm9	256'0	0x0000000000000000000000000000000000000000000000000000000000000000
ymm10	256'0	0x0000000000000000000000000000000000000000000000000000000000000000
ymm11	256'0	0x0000000000000000000000000000000000000000000000000000000000000000
ymm12	256'0	0x0000000000000000000000000000000000000000000000000000000000000000
ymm13	256'0	0x0000000000000000000000000000000000000000000000000000000000000000
ymm14	256'0	0x0000000000000000000000000000000000000000000000000000000000000000
ymm15	256'0	0x0000000000000000000000000000000000000000000000000000000000000000

Count 15) reg	kstate	xstate		48 05 6e 07 40 00	add    $0x40076e,%rax
---------------------
rax	64'0	0
rbx	64'0	0
rcx	64'0	0
rdx	64'0	0
rsi	64'0	0
rdi	64'0	0
rsp	ptr ( symloc ( 1 , 128 ) , 64'992 )	140737488345592
rbp	ptr ( symloc ( 1 , 128 ) , 64'1008 )	140737488345608
r8	64'0	0
r9	64'0	0
r10	64'0	0
r11	64'0	0
r12	64'0	0
r13	64'0	0
r14	64'0	0
r15	64'0	0
cf	1'0	0
pf	1'1	1
af	#ifMInt undefBool #then 1'1 #else 1'0 #fi	0
zf	1'1	1
sf	1'0	0
of	#ifMInt undefBool #then 1'1 #else 1'0 #fi	0
ymm0	256'0	0x0000000000000000000000000000000000000000000000000000000000000000
ymm1	256'0	0x0000000000000000000000000000000000000000000000000000000000000000
ymm2	256'0	0x0000000000000000000000000000000000000000000000000000000000000000
ymm3	256'0	0x0000000000000000000000000000000000000000000000000000000000000000
ymm4	256'0	0x0000000000000000000000000000000000000000000000000000000000000000
ymm5	256'0	0x0000000000000000000000000000000000000000000000000000000000000000
ymm6	256'0	0x0000000000000000000000000000000000000000000000000000000000000000
ymm7	256'0	0x0000000000000000000000000000000000000000000000000000000000000000
ymm8	256'0	0x0000000000000000000000000000000000000000000000000000000000000000
ymm9	256'0	0x0000000000000000000000000000000000000000000000000000000000000000
ymm10	256'0	0x0000000000000000000000000000000000000000000000000000000000000000
ymm11	256'0	0x0000000000000000000000000000000000000000000000000000000000000000
ymm12	256'0	0x0000000000000000000000000000000000000000000000000000000000000000
ymm13	256'0	0x0000000000000000000000000000000000000000000000000000000000000000
ymm14	256'0	0x0000000000000000000000000000000000000000000000000000000000000000
ymm15	256'0	0x0000000000000000000000000000000000000000000000000000000000000000

Count 16) reg	kstate	xstate		0f b6 40 10	movzbl 0x10(%rax),%eax
---------------------
rax	ptr ( symloc ( 3 , 128 ) , 64'0 )	4196206
rbx	64'0	0
rcx	64'0	0
rdx	64'0	0
rsi	64'0	0
rdi	64'0	0
rsp	ptr ( symloc ( 1 , 128 ) , 64'992 )	140737488345592
rbp	ptr ( symloc ( 1 , 128 ) , 64'1008 )	140737488345608
r8	64'0	0
r9	64'0	0
r10	64'0	0
r11	64'0	0
r12	64'0	0
r13	64'0	0
r14	64'0	0
r15	64'0	0
cf	ptr ( symloc ( 3 , 128 ) , 1'0 )	0
pf	1'1	0
af	ptr ( symloc ( 3 , 128 ) , 1'0 )	0
zf	1'1	0
sf	ptr ( symloc ( 3 , 128 ) , 1'0 )	0
of	1'0	0
ymm0	256'0	0x0000000000000000000000000000000000000000000000000000000000000000
ymm1	256'0	0x0000000000000000000000000000000000000000000000000000000000000000
ymm2	256'0	0x0000000000000000000000000000000000000000000000000000000000000000
ymm3	256'0	0x0000000000000000000000000000000000000000000000000000000000000000
ymm4	256'0	0x0000000000000000000000000000000000000000000000000000000000000000
ymm5	256'0	0x0000000000000000000000000000000000000000000000000000000000000000
ymm6	256'0	0x0000000000000000000000000000000000000000000000000000000000000000
ymm7	256'0	0x0000000000000000000000000000000000000000000000000000000000000000
ymm8	256'0	0x0000000000000000000000000000000000000000000000000000000000000000
ymm9	256'0	0x0000000000000000000000000000000000000000000000000000000000000000
ymm10	256'0	0x0000000000000000000000000000000000000000000000000000000000000000
ymm11	256'0	0x0000000000000000000000000000000000000000000000000000000000000000
ymm12	256'0	0x0000000000000000000000000000000000000000000000000000000000000000
ymm13	256'0	0x0000000000000000000000000000000000000000000000000000000000000000
ymm14	256'0	0x0000000000000000000000000000000000000000000000000000000000000000
ymm15	256'0	0x0000000000000000000000000000000000000000000000000000000000000000

Count 17) reg	kstate	xstate		83 e0 01	and    $0x1,%eax
---------------------
rax	64'0	1
rbx	64'0	0
rcx	64'0	0
rdx	64'0	0
rsi	64'0	0
rdi	64'0	0
rsp	ptr ( symloc ( 1 , 128 ) , 64'992 )	140737488345592
rbp	ptr ( symloc ( 1 , 128 ) , 64'1008 )	140737488345608
r8	64'0	0
r9	64'0	0
r10	64'0	0
r11	64'0	0
r12	64'0	0
r13	64'0	0
r14	64'0	0
r15	64'0	0
cf	ptr ( symloc ( 3 , 128 ) , 1'0 )	0
pf	1'1	0
af	ptr ( symloc ( 3 , 128 ) , 1'0 )	0
zf	1'1	0
sf	ptr ( symloc ( 3 , 128 ) , 1'0 )	0
of	1'0	0
ymm0	256'0	0x0000000000000000000000000000000000000000000000000000000000000000
ymm1	256'0	0x0000000000000000000000000000000000000000000000000000000000000000
ymm2	256'0	0x0000000000000000000000000000000000000000000000000000000000000000
ymm3	256'0	0x0000000000000000000000000000000000000000000000000000000000000000
ymm4	256'0	0x0000000000000000000000000000000000000000000000000000000000000000
ymm5	256'0	0x0000000000000000000000000000000000000000000000000000000000000000
ymm6	256'0	0x0000000000000000000000000000000000000000000000000000000000000000
ymm7	256'0	0x0000000000000000000000000000000000000000000000000000000000000000
ymm8	256'0	0x0000000000000000000000000000000000000000000000000000000000000000
ymm9	256'0	0x0000000000000000000000000000000000000000000000000000000000000000
ymm10	256'0	0x0000000000000000000000000000000000000000000000000000000000000000
ymm11	256'0	0x0000000000000000000000000000000000000000000000000000000000000000
ymm12	256'0	0x0000000000000000000000000000000000000000000000000000000000000000
ymm13	256'0	0x0000000000000000000000000000000000000000000000000000000000000000
ymm14	256'0	0x0000000000000000000000000000000000000000000000000000000000000000
ymm15	256'0	0x0000000000000000000000000000000000000000000000000000000000000000

Count 18) reg	kstate	xstate		0f b6 c8	movzbl %al,%ecx
---------------------
rax	64'0	1
rbx	64'0	0
rcx	64'0	0
rdx	64'0	0
rsi	64'0	0
rdi	64'0	0
rsp	ptr ( symloc ( 1 , 128 ) , 64'992 )	140737488345592
rbp	ptr ( symloc ( 1 , 128 ) , 64'1008 )	140737488345608
r8	64'0	0
r9	64'0	0
r10	64'0	0
r11	64'0	0
r12	64'0	0
r13	64'0	0
r14	64'0	0
r15	64'0	0
cf	1'0	0
pf	1'1	0
af	undefMInt	0
zf	1'1	0
sf	1'0	0
of	1'0	0
ymm0	256'0	0x0000000000000000000000000000000000000000000000000000000000000000
ymm1	256'0	0x0000000000000000000000000000000000000000000000000000000000000000
ymm2	256'0	0x0000000000000000000000000000000000000000000000000000000000000000
ymm3	256'0	0x0000000000000000000000000000000000000000000000000000000000000000
ymm4	256'0	0x0000000000000000000000000000000000000000000000000000000000000000
ymm5	256'0	0x0000000000000000000000000000000000000000000000000000000000000000
ymm6	256'0	0x0000000000000000000000000000000000000000000000000000000000000000
ymm7	256'0	0x0000000000000000000000000000000000000000000000000000000000000000
ymm8	256'0	0x0000000000000000000000000000000000000000000000000000000000000000
ymm9	256'0	0x0000000000000000000000000000000000000000000000000000000000000000
ymm10	256'0	0x0000000000000000000000000000000000000000000000000000000000000000
ymm11	256'0	0x0000000000000000000000000000000000000000000000000000000000000000
ymm12	256'0	0x0000000000000000000000000000000000000000000000000000000000000000
ymm13	256'0	0x0000000000000000000000000000000000000000000000000000000000000000
ymm14	256'0	0x0000000000000000000000000000000000000000000000000000000000000000
ymm15	256'0	0x0000000000000000000000000000000000000000000000000000000000000000

Count 19) reg	kstate	xstate		8b 45 f8	mov    -0x8(%rbp),%eax
---------------------
rax	64'0	1
rbx	64'0	0
rcx	64'0	1
rdx	64'0	0
rsi	64'0	0
rdi	64'0	0
rsp	ptr ( symloc ( 1 , 128 ) , 64'992 )	140737488345592
rbp	ptr ( symloc ( 1 , 128 ) , 64'1008 )	140737488345608
r8	64'0	0
r9	64'0	0
r10	64'0	0
r11	64'0	0
r12	64'0	0
r13	64'0	0
r14	64'0	0
r15	64'0	0
cf	1'0	0
pf	1'1	0
af	undefMInt	0
zf	1'1	0
sf	1'0	0
of	1'0	0
ymm0	256'0	0x0000000000000000000000000000000000000000000000000000000000000000
ymm1	256'0	0x0000000000000000000000000000000000000000000000000000000000000000
ymm2	256'0	0x0000000000000000000000000000000000000000000000000000000000000000
ymm3	256'0	0x0000000000000000000000000000000000000000000000000000000000000000
ymm4	256'0	0x0000000000000000000000000000000000000000000000000000000000000000
ymm5	256'0	0x0000000000000000000000000000000000000000000000000000000000000000
ymm6	256'0	0x0000000000000000000000000000000000000000000000000000000000000000
ymm7	256'0	0x0000000000000000000000000000000000000000000000000000000000000000
ymm8	256'0	0x0000000000000000000000000000000000000000000000000000000000000000
ymm9	256'0	0x0000000000000000000000000000000000000000000000000000000000000000
ymm10	256'0	0x0000000000000000000000000000000000000000000000000000000000000000
ymm11	256'0	0x0000000000000000000000000000000000000000000000000000000000000000
ymm12	256'0	0x0000000000000000000000000000000000000000000000000000000000000000
ymm13	256'0	0x0000000000000000000000000000000000000000000000000000000000000000
ymm14	256'0	0x0000000000000000000000000000000000000000000000000000000000000000
ymm15	256'0	0x0000000000000000000000000000000000000000000000000000000000000000

Count 20) reg	kstate	xstate		48 63 d0	movslq %eax,%rdx
---------------------
rax	64'0	0
rbx	64'0	0
rcx	64'0	1
rdx	64'0	0
rsi	64'0	0
rdi	64'0	0
rsp	ptr ( symloc ( 1 , 128 ) , 64'992 )	140737488345592
rbp	ptr ( symloc ( 1 , 128 ) , 64'1008 )	140737488345608
r8	64'0	0
r9	64'0	0
r10	64'0	0
r11	64'0	0
r12	64'0	0
r13	64'0	0
r14	64'0	0
r15	64'0	0
cf	1'0	0
pf	1'1	0
af	undefMInt	0
zf	1'1	0
sf	1'0	0
of	1'0	0
ymm0	256'0	0x0000000000000000000000000000000000000000000000000000000000000000
ymm1	256'0	0x0000000000000000000000000000000000000000000000000000000000000000
ymm2	256'0	0x0000000000000000000000000000000000000000000000000000000000000000
ymm3	256'0	0x0000000000000000000000000000000000000000000000000000000000000000
ymm4	256'0	0x0000000000000000000000000000000000000000000000000000000000000000
ymm5	256'0	0x0000000000000000000000000000000000000000000000000000000000000000
ymm6	256'0	0x0000000000000000000000000000000000000000000000000000000000000000
ymm7	256'0	0x0000000000000000000000000000000000000000000000000000000000000000
ymm8	256'0	0x0000000000000000000000000000000000000000000000000000000000000000
ymm9	256'0	0x0000000000000000000000000000000000000000000000000000000000000000
ymm10	256'0	0x0000000000000000000000000000000000000000000000000000000000000000
ymm11	256'0	0x0000000000000000000000000000000000000000000000000000000000000000
ymm12	256'0	0x0000000000000000000000000000000000000000000000000000000000000000
ymm13	256'0	0x0000000000000000000000000000000000000000000000000000000000000000
ymm14	256'0	0x0000000000000000000000000000000000000000000000000000000000000000
ymm15	256'0	0x0000000000000000000000000000000000000000000000000000000000000000

Count 21) reg	kstate	xstate		48 89 d0	mov    %rdx,%rax
---------------------
rax	64'0	0
rbx	64'0	0
rcx	64'0	1
rdx	64'0	0
rsi	64'0	0
rdi	64'0	0
rsp	ptr ( symloc ( 1 , 128 ) , 64'992 )	140737488345592
rbp	ptr ( symloc ( 1 , 128 ) , 64'1008 )	140737488345608
r8	64'0	0
r9	64'0	0
r10	64'0	0
r11	64'0	0
r12	64'0	0
r13	64'0	0
r14	64'0	0
r15	64'0	0
cf	1'0	0
pf	1'1	0
af	undefMInt	0
zf	1'1	0
sf	1'0	0
of	1'0	0
ymm0	256'0	0x0000000000000000000000000000000000000000000000000000000000000000
ymm1	256'0	0x0000000000000000000000000000000000000000000000000000000000000000
ymm2	256'0	0x0000000000000000000000000000000000000000000000000000000000000000
ymm3	256'0	0x0000000000000000000000000000000000000000000000000000000000000000
ymm4	256'0	0x0000000000000000000000000000000000000000000000000000000000000000
ymm5	256'0	0x0000000000000000000000000000000000000000000000000000000000000000
ymm6	256'0	0x0000000000000000000000000000000000000000000000000000000000000000
ymm7	256'0	0x0000000000000000000000000000000000000000000000000000000000000000
ymm8	256'0	0x0000000000000000000000000000000000000000000000000000000000000000
ymm9	256'0	0x0000000000000000000000000000000000000000000000000000000000000000
ymm10	256'0	0x0000000000000000000000000000000000000000000000000000000000000000
ymm11	256'0	0x0000000000000000000000000000000000000000000000000000000000000000
ymm12	256'0	0x0000000000000000000000000000000000000000000000000000000000000000
ymm13	256'0	0x0000000000000000000000000000000000000000000000000000000000000000
ymm14	256'0	0x0000000000000000000000000000000000000000000000000000000000000000
ymm15	256'0	0x0000000000000000000000000000000000000000000000000000000000000000

Count 22) reg	kstate	xstate		48 01 c0	add    %rax,%rax
---------------------
rax	64'0	0
rbx	64'0	0
rcx	64'0	1
rdx	64'0	0
rsi	64'0	0
rdi	64'0	0
rsp	ptr ( symloc ( 1 , 128 ) , 64'992 )	140737488345592
rbp	ptr ( symloc ( 1 , 128 ) , 64'1008 )	140737488345608
r8	64'0	0
r9	64'0	0
r10	64'0	0
r11	64'0	0
r12	64'0	0
r13	64'0	0
r14	64'0	0
r15	64'0	0
cf	1'0	0
pf	1'1	0
af	undefMInt	0
zf	1'1	0
sf	1'0	0
of	1'0	0
ymm0	256'0	0x0000000000000000000000000000000000000000000000000000000000000000
ymm1	256'0	0x0000000000000000000000000000000000000000000000000000000000000000
ymm2	256'0	0x0000000000000000000000000000000000000000000000000000000000000000
ymm3	256'0	0x0000000000000000000000000000000000000000000000000000000000000000
ymm4	256'0	0x0000000000000000000000000000000000000000000000000000000000000000
ymm5	256'0	0x0000000000000000000000000000000000000000000000000000000000000000
ymm6	256'0	0x0000000000000000000000000000000000000000000000000000000000000000
ymm7	256'0	0x0000000000000000000000000000000000000000000000000000000000000000
ymm8	256'0	0x0000000000000000000000000000000000000000000000000000000000000000
ymm9	256'0	0x0000000000000000000000000000000000000000000000000000000000000000
ymm10	256'0	0x0000000000000000000000000000000000000000000000000000000000000000
ymm11	256'0	0x0000000000000000000000000000000000000000000000000000000000000000
ymm12	256'0	0x0000000000000000000000000000000000000000000000000000000000000000
ymm13	256'0	0x0000000000000000000000000000000000000000000000000000000000000000
ymm14	256'0	0x0000000000000000000000000000000000000000000000000000000000000000
ymm15	256'0	0x0000000000000000000000000000000000000000000000000000000000000000

Count 23) reg	kstate	xstate		48 01 d0	add    %rdx,%rax
---------------------
rax	64'0	0
rbx	64'0	0
rcx	64'0	1
rdx	64'0	0
rsi	64'0	0
rdi	64'0	0
rsp	ptr ( symloc ( 1 , 128 ) , 64'992 )	140737488345592
rbp	ptr ( symloc ( 1 , 128 ) , 64'1008 )	140737488345608
r8	64'0	0
r9	64'0	0
r10	64'0	0
r11	64'0	0
r12	64'0	0
r13	64'0	0
r14	64'0	0
r15	64'0	0
cf	1'0	0
pf	1'1	1
af	1'0	0
zf	1'1	1
sf	1'0	0
of	1'0	0
ymm0	256'0	0x0000000000000000000000000000000000000000000000000000000000000000
ymm1	256'0	0x0000000000000000000000000000000000000000000000000000000000000000
ymm2	256'0	0x0000000000000000000000000000000000000000000000000000000000000000
ymm3	256'0	0x0000000000000000000000000000000000000000000000000000000000000000
ymm4	256'0	0x0000000000000000000000000000000000000000000000000000000000000000
ymm5	256'0	0x0000000000000000000000000000000000000000000000000000000000000000
ymm6	256'0	0x0000000000000000000000000000000000000000000000000000000000000000
ymm7	256'0	0x0000000000000000000000000000000000000000000000000000000000000000
ymm8	256'0	0x0000000000000000000000000000000000000000000000000000000000000000
ymm9	256'0	0x0000000000000000000000000000000000000000000000000000000000000000
ymm10	256'0	0x0000000000000000000000000000000000000000000000000000000000000000
ymm11	256'0	0x0000000000000000000000000000000000000000000000000000000000000000
ymm12	256'0	0x0000000000000000000000000000000000000000000000000000000000000000
ymm13	256'0	0x0000000000000000000000000000000000000000000000000000000000000000
ymm14	256'0	0x0000000000000000000000000000000000000000000000000000000000000000
ymm15	256'0	0x0000000000000000000000000000000000000000000000000000000000000000

Count 24) reg	kstate	xstate		48 c1 e0 03	shl    $0x3,%rax
---------------------
rax	64'0	0
rbx	64'0	0
rcx	64'0	1
rdx	64'0	0
rsi	64'0	0
rdi	64'0	0
rsp	ptr ( symloc ( 1 , 128 ) , 64'992 )	140737488345592
rbp	ptr ( symloc ( 1 , 128 ) , 64'1008 )	140737488345608
r8	64'0	0
r9	64'0	0
r10	64'0	0
r11	64'0	0
r12	64'0	0
r13	64'0	0
r14	64'0	0
r15	64'0	0
cf	1'0	0
pf	1'1	1
af	1'0	0
zf	1'1	1
sf	1'0	0
of	1'0	0
ymm0	256'0	0x0000000000000000000000000000000000000000000000000000000000000000
ymm1	256'0	0x0000000000000000000000000000000000000000000000000000000000000000
ymm2	256'0	0x0000000000000000000000000000000000000000000000000000000000000000
ymm3	256'0	0x0000000000000000000000000000000000000000000000000000000000000000
ymm4	256'0	0x0000000000000000000000000000000000000000000000000000000000000000
ymm5	256'0	0x0000000000000000000000000000000000000000000000000000000000000000
ymm6	256'0	0x0000000000000000000000000000000000000000000000000000000000000000
ymm7	256'0	0x0000000000000000000000000000000000000000000000000000000000000000
ymm8	256'0	0x0000000000000000000000000000000000000000000000000000000000000000
ymm9	256'0	0x0000000000000000000000000000000000000000000000000000000000000000
ymm10	256'0	0x0000000000000000000000000000000000000000000000000000000000000000
ymm11	256'0	0x0000000000000000000000000000000000000000000000000000000000000000
ymm12	256'0	0x0000000000000000000000000000000000000000000000000000000000000000
ymm13	256'0	0x0000000000000000000000000000000000000000000000000000000000000000
ymm14	256'0	0x0000000000000000000000000000000000000000000000000000000000000000
ymm15	256'0	0x0000000000000000000000000000000000000000000000000000000000000000

Count 25) reg	kstate	xstate		48 05 76 07 40 00	add    $0x400776,%rax
---------------------
rax	64'0	0
rbx	64'0	0
rcx	64'0	1
rdx	64'0	0
rsi	64'0	0
rdi	64'0	0
rsp	ptr ( symloc ( 1 , 128 ) , 64'992 )	140737488345592
rbp	ptr ( symloc ( 1 , 128 ) , 64'1008 )	140737488345608
r8	64'0	0
r9	64'0	0
r10	64'0	0
r11	64'0	0
r12	64'0	0
r13	64'0	0
r14	64'0	0
r15	64'0	0
cf	1'0	0
pf	1'1	1
af	#ifMInt undefBool #then 1'1 #else 1'0 #fi	0
zf	1'1	1
sf	1'0	0
of	#ifMInt undefBool #then 1'1 #else 1'0 #fi	0
ymm0	256'0	0x0000000000000000000000000000000000000000000000000000000000000000
ymm1	256'0	0x0000000000000000000000000000000000000000000000000000000000000000
ymm2	256'0	0x0000000000000000000000000000000000000000000000000000000000000000
ymm3	256'0	0x0000000000000000000000000000000000000000000000000000000000000000
ymm4	256'0	0x0000000000000000000000000000000000000000000000000000000000000000
ymm5	256'0	0x0000000000000000000000000000000000000000000000000000000000000000
ymm6	256'0	0x0000000000000000000000000000000000000000000000000000000000000000
ymm7	256'0	0x0000000000000000000000000000000000000000000000000000000000000000
ymm8	256'0	0x0000000000000000000000000000000000000000000000000000000000000000
ymm9	256'0	0x0000000000000000000000000000000000000000000000000000000000000000
ymm10	256'0	0x0000000000000000000000000000000000000000000000000000000000000000
ymm11	256'0	0x0000000000000000000000000000000000000000000000000000000000000000
ymm12	256'0	0x0000000000000000000000000000000000000000000000000000000000000000
ymm13	256'0	0x0000000000000000000000000000000000000000000000000000000000000000
ymm14	256'0	0x0000000000000000000000000000000000000000000000000000000000000000
ymm15	256'0	0x0000000000000000000000000000000000000000000000000000000000000000

Count 26) reg	kstate	xstate		c5 fb 10 00	vmovsd (%rax),%xmm0
---------------------
rax	ptr ( symloc ( 3 , 128 ) , 64'8 )	4196214
rbx	64'0	0
rcx	64'0	1
rdx	64'0	0
rsi	64'0	0
rdi	64'0	0
rsp	ptr ( symloc ( 1 , 128 ) , 64'992 )	140737488345592
rbp	ptr ( symloc ( 1 , 128 ) , 64'1008 )	140737488345608
r8	64'0	0
r9	64'0	0
r10	64'0	0
r11	64'0	0
r12	64'0	0
r13	64'0	0
r14	64'0	0
r15	64'0	0
cf	ptr ( symloc ( 3 , 128 ) , 1'0 )	0
pf	1'0	0
af	ptr ( symloc ( 3 , 128 ) , 1'0 )	0
zf	1'0	0
sf	ptr ( symloc ( 3 , 128 ) , 1'0 )	0
of	1'0	0
ymm0	256'0	0x0000000000000000000000000000000000000000000000000000000000000000
ymm1	256'0	0x0000000000000000000000000000000000000000000000000000000000000000
ymm2	256'0	0x0000000000000000000000000000000000000000000000000000000000000000
ymm3	256'0	0x0000000000000000000000000000000000000000000000000000000000000000
ymm4	256'0	0x0000000000000000000000000000000000000000000000000000000000000000
ymm5	256'0	0x0000000000000000000000000000000000000000000000000000000000000000
ymm6	256'0	0x0000000000000000000000000000000000000000000000000000000000000000
ymm7	256'0	0x0000000000000000000000000000000000000000000000000000000000000000
ymm8	256'0	0x0000000000000000000000000000000000000000000000000000000000000000
ymm9	256'0	0x0000000000000000000000000000000000000000000000000000000000000000
ymm10	256'0	0x0000000000000000000000000000000000000000000000000000000000000000
ymm11	256'0	0x0000000000000000000000000000000000000000000000000000000000000000
ymm12	256'0	0x0000000000000000000000000000000000000000000000000000000000000000
ymm13	256'0	0x0000000000000000000000000000000000000000000000000000000000000000
ymm14	256'0	0x0000000000000000000000000000000000000000000000000000000000000000
ymm15	256'0	0x0000000000000000000000000000000000000000000000000000000000000000

Count 27) reg	kstate	xstate		8b 45 f8	mov    -0x8(%rbp),%eax
---------------------
rax	ptr ( symloc ( 3 , 128 ) , 64'8 )	4196214
rbx	64'0	0
rcx	64'0	1
rdx	64'0	0
rsi	64'0	0
rdi	64'0	0
rsp	ptr ( symloc ( 1 , 128 ) , 64'992 )	140737488345592
rbp	ptr ( symloc ( 1 , 128 ) , 64'1008 )	140737488345608
r8	64'0	0
r9	64'0	0
r10	64'0	0
r11	64'0	0
r12	64'0	0
r13	64'0	0
r14	64'0	0
r15	64'0	0
cf	ptr ( symloc ( 3 , 128 ) , 1'0 )	0
pf	1'0	0
af	ptr ( symloc ( 3 , 128 ) , 1'0 )	0
zf	1'0	0
sf	ptr ( symloc ( 3 , 128 ) , 1'0 )	0
of	1'0	0
ymm0	256'0	0x0000000000000000000000000000000000000000000000007ff8000000000000
ymm1	256'0	0x0000000000000000000000000000000000000000000000000000000000000000
ymm2	256'0	0x0000000000000000000000000000000000000000000000000000000000000000
ymm3	256'0	0x0000000000000000000000000000000000000000000000000000000000000000
ymm4	256'0	0x0000000000000000000000000000000000000000000000000000000000000000
ymm5	256'0	0x0000000000000000000000000000000000000000000000000000000000000000
ymm6	256'0	0x0000000000000000000000000000000000000000000000000000000000000000
ymm7	256'0	0x0000000000000000000000000000000000000000000000000000000000000000
ymm8	256'0	0x0000000000000000000000000000000000000000000000000000000000000000
ymm9	256'0	0x0000000000000000000000000000000000000000000000000000000000000000
ymm10	256'0	0x0000000000000000000000000000000000000000000000000000000000000000
ymm11	256'0	0x0000000000000000000000000000000000000000000000000000000000000000
ymm12	256'0	0x0000000000000000000000000000000000000000000000000000000000000000
ymm13	256'0	0x0000000000000000000000000000000000000000000000000000000000000000
ymm14	256'0	0x0000000000000000000000000000000000000000000000000000000000000000
ymm15	256'0	0x0000000000000000000000000000000000000000000000000000000000000000

Count 28) reg	kstate	xstate		48 63 d0	movslq %eax,%rdx
---------------------
rax	64'0	0
rbx	64'0	0
rcx	64'0	1
rdx	64'0	0
rsi	64'0	0
rdi	64'0	0
rsp	ptr ( symloc ( 1 , 128 ) , 64'992 )	140737488345592
rbp	ptr ( symloc ( 1 , 128 ) , 64'1008 )	140737488345608
r8	64'0	0
r9	64'0	0
r10	64'0	0
r11	64'0	0
r12	64'0	0
r13	64'0	0
r14	64'0	0
r15	64'0	0
cf	ptr ( symloc ( 3 , 128 ) , 1'0 )	0
pf	1'0	0
af	ptr ( symloc ( 3 , 128 ) , 1'0 )	0
zf	1'0	0
sf	ptr ( symloc ( 3 , 128 ) , 1'0 )	0
of	1'0	0
ymm0	256'0	0x0000000000000000000000000000000000000000000000007ff8000000000000
ymm1	256'0	0x0000000000000000000000000000000000000000000000000000000000000000
ymm2	256'0	0x0000000000000000000000000000000000000000000000000000000000000000
ymm3	256'0	0x0000000000000000000000000000000000000000000000000000000000000000
ymm4	256'0	0x0000000000000000000000000000000000000000000000000000000000000000
ymm5	256'0	0x0000000000000000000000000000000000000000000000000000000000000000
ymm6	256'0	0x0000000000000000000000000000000000000000000000000000000000000000
ymm7	256'0	0x0000000000000000000000000000000000000000000000000000000000000000
ymm8	256'0	0x0000000000000000000000000000000000000000000000000000000000000000
ymm9	256'0	0x0000000000000000000000000000000000000000000000000000000000000000
ymm10	256'0	0x0000000000000000000000000000000000000000000000000000000000000000
ymm11	256'0	0x0000000000000000000000000000000000000000000000000000000000000000
ymm12	256'0	0x0000000000000000000000000000000000000000000000000000000000000000
ymm13	256'0	0x0000000000000000000000000000000000000000000000000000000000000000
ymm14	256'0	0x0000000000000000000000000000000000000000000000000000000000000000
ymm15	256'0	0x0000000000000000000000000000000000000000000000000000000000000000

Count 29) reg	kstate	xstate		48 89 d0	mov    %rdx,%rax
---------------------
rax	64'0	0
rbx	64'0	0
rcx	64'0	1
rdx	64'0	0
rsi	64'0	0
rdi	64'0	0
rsp	ptr ( symloc ( 1 , 128 ) , 64'992 )	140737488345592
rbp	ptr ( symloc ( 1 , 128 ) , 64'1008 )	140737488345608
r8	64'0	0
r9	64'0	0
r10	64'0	0
r11	64'0	0
r12	64'0	0
r13	64'0	0
r14	64'0	0
r15	64'0	0
cf	ptr ( symloc ( 3 , 128 ) , 1'0 )	0
pf	1'0	0
af	ptr ( symloc ( 3 , 128 ) , 1'0 )	0
zf	1'0	0
sf	ptr ( symloc ( 3 , 128 ) , 1'0 )	0
of	1'0	0
ymm0	256'0	0x0000000000000000000000000000000000000000000000007ff8000000000000
ymm1	256'0	0x0000000000000000000000000000000000000000000000000000000000000000
ymm2	256'0	0x0000000000000000000000000000000000000000000000000000000000000000
ymm3	256'0	0x0000000000000000000000000000000000000000000000000000000000000000
ymm4	256'0	0x0000000000000000000000000000000000000000000000000000000000000000
ymm5	256'0	0x0000000000000000000000000000000000000000000000000000000000000000
ymm6	256'0	0x0000000000000000000000000000000000000000000000000000000000000000
ymm7	256'0	0x0000000000000000000000000000000000000000000000000000000000000000
ymm8	256'0	0x0000000000000000000000000000000000000000000000000000000000000000
ymm9	256'0	0x0000000000000000000000000000000000000000000000000000000000000000
ymm10	256'0	0x0000000000000000000000000000000000000000000000000000000000000000
ymm11	256'0	0x0000000000000000000000000000000000000000000000000000000000000000
ymm12	256'0	0x0000000000000000000000000000000000000000000000000000000000000000
ymm13	256'0	0x0000000000000000000000000000000000000000000000000000000000000000
ymm14	256'0	0x0000000000000000000000000000000000000000000000000000000000000000
ymm15	256'0	0x0000000000000000000000000000000000000000000000000000000000000000

Count 30) reg	kstate	xstate		48 01 c0	add    %rax,%rax
---------------------
rax	64'0	0
rbx	64'0	0
rcx	64'0	1
rdx	64'0	0
rsi	64'0	0
rdi	64'0	0
rsp	ptr ( symloc ( 1 , 128 ) , 64'992 )	140737488345592
rbp	ptr ( symloc ( 1 , 128 ) , 64'1008 )	140737488345608
r8	64'0	0
r9	64'0	0
r10	64'0	0
r11	64'0	0
r12	64'0	0
r13	64'0	0
r14	64'0	0
r15	64'0	0
cf	ptr ( symloc ( 3 , 128 ) , 1'0 )	0
pf	1'0	0
af	ptr ( symloc ( 3 , 128 ) , 1'0 )	0
zf	1'0	0
sf	ptr ( symloc ( 3 , 128 ) , 1'0 )	0
of	1'0	0
ymm0	256'0	0x0000000000000000000000000000000000000000000000007ff8000000000000
ymm1	256'0	0x0000000000000000000000000000000000000000000000000000000000000000
ymm2	256'0	0x0000000000000000000000000000000000000000000000000000000000000000
ymm3	256'0	0x0000000000000000000000000000000000000000000000000000000000000000
ymm4	256'0	0x0000000000000000000000000000000000000000000000000000000000000000
ymm5	256'0	0x0000000000000000000000000000000000000000000000000000000000000000
ymm6	256'0	0x0000000000000000000000000000000000000000000000000000000000000000
ymm7	256'0	0x0000000000000000000000000000000000000000000000000000000000000000
ymm8	256'0	0x0000000000000000000000000000000000000000000000000000000000000000
ymm9	256'0	0x0000000000000000000000000000000000000000000000000000000000000000
ymm10	256'0	0x0000000000000000000000000000000000000000000000000000000000000000
ymm11	256'0	0x0000000000000000000000000000000000000000000000000000000000000000
ymm12	256'0	0x0000000000000000000000000000000000000000000000000000000000000000
ymm13	256'0	0x0000000000000000000000000000000000000000000000000000000000000000
ymm14	256'0	0x0000000000000000000000000000000000000000000000000000000000000000
ymm15	256'0	0x0000000000000000000000000000000000000000000000000000000000000000

Count 31) reg	kstate	xstate		48 01 d0	add    %rdx,%rax
---------------------
rax	64'0	0
rbx	64'0	0
rcx	64'0	1
rdx	64'0	0
rsi	64'0	0
rdi	64'0	0
rsp	ptr ( symloc ( 1 , 128 ) , 64'992 )	140737488345592
rbp	ptr ( symloc ( 1 , 128 ) , 64'1008 )	140737488345608
r8	64'0	0
r9	64'0	0
r10	64'0	0
r11	64'0	0
r12	64'0	0
r13	64'0	0
r14	64'0	0
r15	64'0	0
cf	1'0	0
pf	1'1	1
af	1'0	0
zf	1'1	1
sf	1'0	0
of	1'0	0
ymm0	256'0	0x0000000000000000000000000000000000000000000000007ff8000000000000
ymm1	256'0	0x0000000000000000000000000000000000000000000000000000000000000000
ymm2	256'0	0x0000000000000000000000000000000000000000000000000000000000000000
ymm3	256'0	0x0000000000000000000000000000000000000000000000000000000000000000
ymm4	256'0	0x0000000000000000000000000000000000000000000000000000000000000000
ymm5	256'0	0x0000000000000000000000000000000000000000000000000000000000000000
ymm6	256'0	0x0000000000000000000000000000000000000000000000000000000000000000
ymm7	256'0	0x0000000000000000000000000000000000000000000000000000000000000000
ymm8	256'0	0x0000000000000000000000000000000000000000000000000000000000000000
ymm9	256'0	0x0000000000000000000000000000000000000000000000000000000000000000
ymm10	256'0	0x0000000000000000000000000000000000000000000000000000000000000000
ymm11	256'0	0x0000000000000000000000000000000000000000000000000000000000000000
ymm12	256'0	0x0000000000000000000000000000000000000000000000000000000000000000
ymm13	256'0	0x0000000000000000000000000000000000000000000000000000000000000000
ymm14	256'0	0x0000000000000000000000000000000000000000000000000000000000000000
ymm15	256'0	0x0000000000000000000000000000000000000000000000000000000000000000

Count 32) reg	kstate	xstate		48 c1 e0 03	shl    $0x3,%rax
---------------------
rax	64'0	0
rbx	64'0	0
rcx	64'0	1
rdx	64'0	0
rsi	64'0	0
rdi	64'0	0
rsp	ptr ( symloc ( 1 , 128 ) , 64'992 )	140737488345592
rbp	ptr ( symloc ( 1 , 128 ) , 64'1008 )	140737488345608
r8	64'0	0
r9	64'0	0
r10	64'0	0
r11	64'0	0
r12	64'0	0
r13	64'0	0
r14	64'0	0
r15	64'0	0
cf	1'0	0
pf	1'1	1
af	1'0	0
zf	1'1	1
sf	1'0	0
of	1'0	0
ymm0	256'0	0x0000000000000000000000000000000000000000000000007ff8000000000000
ymm1	256'0	0x0000000000000000000000000000000000000000000000000000000000000000
ymm2	256'0	0x0000000000000000000000000000000000000000000000000000000000000000
ymm3	256'0	0x0000000000000000000000000000000000000000000000000000000000000000
ymm4	256'0	0x0000000000000000000000000000000000000000000000000000000000000000
ymm5	256'0	0x0000000000000000000000000000000000000000000000000000000000000000
ymm6	256'0	0x0000000000000000000000000000000000000000000000000000000000000000
ymm7	256'0	0x0000000000000000000000000000000000000000000000000000000000000000
ymm8	256'0	0x0000000000000000000000000000000000000000000000000000000000000000
ymm9	256'0	0x0000000000000000000000000000000000000000000000000000000000000000
ymm10	256'0	0x0000000000000000000000000000000000000000000000000000000000000000
ymm11	256'0	0x0000000000000000000000000000000000000000000000000000000000000000
ymm12	256'0	0x0000000000000000000000000000000000000000000000000000000000000000
ymm13	256'0	0x0000000000000000000000000000000000000000000000000000000000000000
ymm14	256'0	0x0000000000000000000000000000000000000000000000000000000000000000
ymm15	256'0	0x0000000000000000000000000000000000000000000000000000000000000000

Count 33) reg	kstate	xstate		48 05 6e 07 40 00	add    $0x40076e,%rax
---------------------
rax	64'0	0
rbx	64'0	0
rcx	64'0	1
rdx	64'0	0
rsi	64'0	0
rdi	64'0	0
rsp	ptr ( symloc ( 1 , 128 ) , 64'992 )	140737488345592
rbp	ptr ( symloc ( 1 , 128 ) , 64'1008 )	140737488345608
r8	64'0	0
r9	64'0	0
r10	64'0	0
r11	64'0	0
r12	64'0	0
r13	64'0	0
r14	64'0	0
r15	64'0	0
cf	1'0	0
pf	1'1	1
af	#ifMInt undefBool #then 1'1 #else 1'0 #fi	0
zf	1'1	1
sf	1'0	0
of	#ifMInt undefBool #then 1'1 #else 1'0 #fi	0
ymm0	256'0	0x0000000000000000000000000000000000000000000000007ff8000000000000
ymm1	256'0	0x0000000000000000000000000000000000000000000000000000000000000000
ymm2	256'0	0x0000000000000000000000000000000000000000000000000000000000000000
ymm3	256'0	0x0000000000000000000000000000000000000000000000000000000000000000
ymm4	256'0	0x0000000000000000000000000000000000000000000000000000000000000000
ymm5	256'0	0x0000000000000000000000000000000000000000000000000000000000000000
ymm6	256'0	0x0000000000000000000000000000000000000000000000000000000000000000
ymm7	256'0	0x0000000000000000000000000000000000000000000000000000000000000000
ymm8	256'0	0x0000000000000000000000000000000000000000000000000000000000000000
ymm9	256'0	0x0000000000000000000000000000000000000000000000000000000000000000
ymm10	256'0	0x0000000000000000000000000000000000000000000000000000000000000000
ymm11	256'0	0x0000000000000000000000000000000000000000000000000000000000000000
ymm12	256'0	0x0000000000000000000000000000000000000000000000000000000000000000
ymm13	256'0	0x0000000000000000000000000000000000000000000000000000000000000000
ymm14	256'0	0x0000000000000000000000000000000000000000000000000000000000000000
ymm15	256'0	0x0000000000000000000000000000000000000000000000000000000000000000

Count 34) reg	kstate	xstate		48 8b 00	mov    (%rax),%rax
---------------------
rax	ptr ( symloc ( 3 , 128 ) , 64'0 )	4196206
rbx	64'0	0
rcx	64'0	1
rdx	64'0	0
rsi	64'0	0
rdi	64'0	0
rsp	ptr ( symloc ( 1 , 128 ) , 64'992 )	140737488345592
rbp	ptr ( symloc ( 1 , 128 ) , 64'1008 )	140737488345608
r8	64'0	0
r9	64'0	0
r10	64'0	0
r11	64'0	0
r12	64'0	0
r13	64'0	0
r14	64'0	0
r15	64'0	0
cf	ptr ( symloc ( 3 , 128 ) , 1'0 )	0
pf	1'1	0
af	ptr ( symloc ( 3 , 128 ) , 1'0 )	0
zf	1'1	0
sf	ptr ( symloc ( 3 , 128 ) , 1'0 )	0
of	1'0	0
ymm0	256'0	0x0000000000000000000000000000000000000000000000007ff8000000000000
ymm1	256'0	0x0000000000000000000000000000000000000000000000000000000000000000
ymm2	256'0	0x0000000000000000000000000000000000000000000000000000000000000000
ymm3	256'0	0x0000000000000000000000000000000000000000000000000000000000000000
ymm4	256'0	0x0000000000000000000000000000000000000000000000000000000000000000
ymm5	256'0	0x0000000000000000000000000000000000000000000000000000000000000000
ymm6	256'0	0x0000000000000000000000000000000000000000000000000000000000000000
ymm7	256'0	0x0000000000000000000000000000000000000000000000000000000000000000
ymm8	256'0	0x0000000000000000000000000000000000000000000000000000000000000000
ymm9	256'0	0x0000000000000000000000000000000000000000000000000000000000000000
ymm10	256'0	0x0000000000000000000000000000000000000000000000000000000000000000
ymm11	256'0	0x0000000000000000000000000000000000000000000000000000000000000000
ymm12	256'0	0x0000000000000000000000000000000000000000000000000000000000000000
ymm13	256'0	0x0000000000000000000000000000000000000000000000000000000000000000
ymm14	256'0	0x0000000000000000000000000000000000000000000000000000000000000000
ymm15	256'0	0x0000000000000000000000000000000000000000000000000000000000000000

Count 35) reg	kstate	xstate		89 cf	mov    %ecx,%edi
---------------------
rax	64'0	9221120237041090560
rbx	64'0	0
rcx	64'0	1
rdx	64'0	0
rsi	64'0	0
rdi	64'0	0
rsp	ptr ( symloc ( 1 , 128 ) , 64'992 )	140737488345592
rbp	ptr ( symloc ( 1 , 128 ) , 64'1008 )	140737488345608
r8	64'0	0
r9	64'0	0
r10	64'0	0
r11	64'0	0
r12	64'0	0
r13	64'0	0
r14	64'0	0
r15	64'0	0
cf	ptr ( symloc ( 3 , 128 ) , 1'0 )	0
pf	1'1	0
af	ptr ( symloc ( 3 , 128 ) , 1'0 )	0
zf	1'1	0
sf	ptr ( symloc ( 3 , 128 ) , 1'0 )	0
of	1'0	0
ymm0	256'0	0x0000000000000000000000000000000000000000000000007ff8000000000000
ymm1	256'0	0x0000000000000000000000000000000000000000000000000000000000000000
ymm2	256'0	0x0000000000000000000000000000000000000000000000000000000000000000
ymm3	256'0	0x0000000000000000000000000000000000000000000000000000000000000000
ymm4	256'0	0x0000000000000000000000000000000000000000000000000000000000000000
ymm5	256'0	0x0000000000000000000000000000000000000000000000000000000000000000
ymm6	256'0	0x0000000000000000000000000000000000000000000000000000000000000000
ymm7	256'0	0x0000000000000000000000000000000000000000000000000000000000000000
ymm8	256'0	0x0000000000000000000000000000000000000000000000000000000000000000
ymm9	256'0	0x0000000000000000000000000000000000000000000000000000000000000000
ymm10	256'0	0x0000000000000000000000000000000000000000000000000000000000000000
ymm11	256'0	0x0000000000000000000000000000000000000000000000000000000000000000
ymm12	256'0	0x0000000000000000000000000000000000000000000000000000000000000000
ymm13	256'0	0x0000000000000000000000000000000000000000000000000000000000000000
ymm14	256'0	0x0000000000000000000000000000000000000000000000000000000000000000
ymm15	256'0	0x0000000000000000000000000000000000000000000000000000000000000000

Count 36) reg	kstate	xstate		c5 f9 28 c8	vmovapd %xmm0,%xmm1
---------------------
rax	64'0	9221120237041090560
rbx	64'0	0
rcx	64'0	1
rdx	64'0	0
rsi	64'0	0
rdi	64'0	1
rsp	ptr ( symloc ( 1 , 128 ) , 64'992 )	140737488345592
rbp	ptr ( symloc ( 1 , 128 ) , 64'1008 )	140737488345608
r8	64'0	0
r9	64'0	0
r10	64'0	0
r11	64'0	0
r12	64'0	0
r13	64'0	0
r14	64'0	0
r15	64'0	0
cf	ptr ( symloc ( 3 , 128 ) , 1'0 )	0
pf	1'1	0
af	ptr ( symloc ( 3 , 128 ) , 1'0 )	0
zf	1'1	0
sf	ptr ( symloc ( 3 , 128 ) , 1'0 )	0
of	1'0	0
ymm0	256'0	0x0000000000000000000000000000000000000000000000007ff8000000000000
ymm1	256'0	0x0000000000000000000000000000000000000000000000000000000000000000
ymm2	256'0	0x0000000000000000000000000000000000000000000000000000000000000000
ymm3	256'0	0x0000000000000000000000000000000000000000000000000000000000000000
ymm4	256'0	0x0000000000000000000000000000000000000000000000000000000000000000
ymm5	256'0	0x0000000000000000000000000000000000000000000000000000000000000000
ymm6	256'0	0x0000000000000000000000000000000000000000000000000000000000000000
ymm7	256'0	0x0000000000000000000000000000000000000000000000000000000000000000
ymm8	256'0	0x0000000000000000000000000000000000000000000000000000000000000000
ymm9	256'0	0x0000000000000000000000000000000000000000000000000000000000000000
ymm10	256'0	0x0000000000000000000000000000000000000000000000000000000000000000
ymm11	256'0	0x0000000000000000000000000000000000000000000000000000000000000000
ymm12	256'0	0x0000000000000000000000000000000000000000000000000000000000000000
ymm13	256'0	0x0000000000000000000000000000000000000000000000000000000000000000
ymm14	256'0	0x0000000000000000000000000000000000000000000000000000000000000000
ymm15	256'0	0x0000000000000000000000000000000000000000000000000000000000000000

Count 37) reg	kstate	xstate		c4 e1 f9 6e c0	vmovq  %rax,%xmm0
---------------------
rax	64'0	9221120237041090560
rbx	64'0	0
rcx	64'0	1
rdx	64'0	0
rsi	64'0	0
rdi	64'0	1
rsp	ptr ( symloc ( 1 , 128 ) , 64'992 )	140737488345592
rbp	ptr ( symloc ( 1 , 128 ) , 64'1008 )	140737488345608
r8	64'0	0
r9	64'0	0
r10	64'0	0
r11	64'0	0
r12	64'0	0
r13	64'0	0
r14	64'0	0
r15	64'0	0
cf	ptr ( symloc ( 3 , 128 ) , 1'0 )	0
pf	1'1	0
af	ptr ( symloc ( 3 , 128 ) , 1'0 )	0
zf	1'1	0
sf	ptr ( symloc ( 3 , 128 ) , 1'0 )	0
of	1'0	0
ymm0	256'0	0x0000000000000000000000000000000000000000000000007ff8000000000000
ymm1	256'0	0x0000000000000000000000000000000000000000000000007ff8000000000000
ymm2	256'0	0x0000000000000000000000000000000000000000000000000000000000000000
ymm3	256'0	0x0000000000000000000000000000000000000000000000000000000000000000
ymm4	256'0	0x0000000000000000000000000000000000000000000000000000000000000000
ymm5	256'0	0x0000000000000000000000000000000000000000000000000000000000000000
ymm6	256'0	0x0000000000000000000000000000000000000000000000000000000000000000
ymm7	256'0	0x0000000000000000000000000000000000000000000000000000000000000000
ymm8	256'0	0x0000000000000000000000000000000000000000000000000000000000000000
ymm9	256'0	0x0000000000000000000000000000000000000000000000000000000000000000
ymm10	256'0	0x0000000000000000000000000000000000000000000000000000000000000000
ymm11	256'0	0x0000000000000000000000000000000000000000000000000000000000000000
ymm12	256'0	0x0000000000000000000000000000000000000000000000000000000000000000
ymm13	256'0	0x0000000000000000000000000000000000000000000000000000000000000000
ymm14	256'0	0x0000000000000000000000000000000000000000000000000000000000000000
ymm15	256'0	0x0000000000000000000000000000000000000000000000000000000000000000

Count 38) reg	kstate	xstate		e8 f5 fd ff ff	callq  0x40031f <test_isunordered>
---------------------
rax	64'0	9221120237041090560
rbx	64'0	0
rcx	64'0	1
rdx	64'0	0
rsi	64'0	0
rdi	64'0	1
rsp	ptr ( symloc ( 1 , 128 ) , 64'992 )	140737488345592
rbp	ptr ( symloc ( 1 , 128 ) , 64'1008 )	140737488345608
r8	64'0	0
r9	64'0	0
r10	64'0	0
r11	64'0	0
r12	64'0	0
r13	64'0	0
r14	64'0	0
r15	64'0	0
cf	ptr ( symloc ( 3 , 128 ) , 1'0 )	0
pf	1'1	0
af	ptr ( symloc ( 3 , 128 ) , 1'0 )	0
zf	1'1	0
sf	ptr ( symloc ( 3 , 128 ) , 1'0 )	0
of	1'0	0
ymm0	256'0	0x0000000000000000000000000000000000000000000000007ff8000000000000
ymm1	256'0	0x0000000000000000000000000000000000000000000000007ff8000000000000
ymm2	256'0	0x0000000000000000000000000000000000000000000000000000000000000000
ymm3	256'0	0x0000000000000000000000000000000000000000000000000000000000000000
ymm4	256'0	0x0000000000000000000000000000000000000000000000000000000000000000
ymm5	256'0	0x0000000000000000000000000000000000000000000000000000000000000000
ymm6	256'0	0x0000000000000000000000000000000000000000000000000000000000000000
ymm7	256'0	0x0000000000000000000000000000000000000000000000000000000000000000
ymm8	256'0	0x0000000000000000000000000000000000000000000000000000000000000000
ymm9	256'0	0x0000000000000000000000000000000000000000000000000000000000000000
ymm10	256'0	0x0000000000000000000000000000000000000000000000000000000000000000
ymm11	256'0	0x0000000000000000000000000000000000000000000000000000000000000000
ymm12	256'0	0x0000000000000000000000000000000000000000000000000000000000000000
ymm13	256'0	0x0000000000000000000000000000000000000000000000000000000000000000
ymm14	256'0	0x0000000000000000000000000000000000000000000000000000000000000000
ymm15	256'0	0x0000000000000000000000000000000000000000000000000000000000000000

Count 39) reg	kstate	xstate		55	push   %rbp
---------------------
rax	64'0	9221120237041090560
rbx	64'0	0
rcx	64'0	1
rdx	64'0	0
rsi	64'0	0
rdi	64'0	1
rsp	ptr ( symloc ( 1 , 128 ) , 64'984 )	140737488345584
rbp	ptr ( symloc ( 1 , 128 ) , 64'1008 )	140737488345608
r8	64'0	0
r9	64'0	0
r10	64'0	0
r11	64'0	0
r12	64'0	0
r13	64'0	0
r14	64'0	0
r15	64'0	0
cf	ptr ( symloc ( 3 , 128 ) , 1'0 )	0
pf	1'1	0
af	ptr ( symloc ( 3 , 128 ) , 1'0 )	0
zf	1'1	0
sf	ptr ( symloc ( 3 , 128 ) , 1'0 )	0
of	1'0	0
ymm0	256'0	0x0000000000000000000000000000000000000000000000007ff8000000000000
ymm1	256'0	0x0000000000000000000000000000000000000000000000007ff8000000000000
ymm2	256'0	0x0000000000000000000000000000000000000000000000000000000000000000
ymm3	256'0	0x0000000000000000000000000000000000000000000000000000000000000000
ymm4	256'0	0x0000000000000000000000000000000000000000000000000000000000000000
ymm5	256'0	0x0000000000000000000000000000000000000000000000000000000000000000
ymm6	256'0	0x0000000000000000000000000000000000000000000000000000000000000000
ymm7	256'0	0x0000000000000000000000000000000000000000000000000000000000000000
ymm8	256'0	0x0000000000000000000000000000000000000000000000000000000000000000
ymm9	256'0	0x0000000000000000000000000000000000000000000000000000000000000000
ymm10	256'0	0x0000000000000000000000000000000000000000000000000000000000000000
ymm11	256'0	0x0000000000000000000000000000000000000000000000000000000000000000
ymm12	256'0	0x0000000000000000000000000000000000000000000000000000000000000000
ymm13	256'0	0x0000000000000000000000000000000000000000000000000000000000000000
ymm14	256'0	0x0000000000000000000000000000000000000000000000000000000000000000
ymm15	256'0	0x0000000000000000000000000000000000000000000000000000000000000000

Count 40) reg	kstate	xstate		48 89 e5	mov    %rsp,%rbp
---------------------
rax	64'0	9221120237041090560
rbx	64'0	0
rcx	64'0	1
rdx	64'0	0
rsi	64'0	0
rdi	64'0	1
rsp	ptr ( symloc ( 1 , 128 ) , 64'976 )	140737488345576
rbp	ptr ( symloc ( 1 , 128 ) , 64'1008 )	140737488345608
r8	64'0	0
r9	64'0	0
r10	64'0	0
r11	64'0	0
r12	64'0	0
r13	64'0	0
r14	64'0	0
r15	64'0	0
cf	ptr ( symloc ( 3 , 128 ) , 1'0 )	0
pf	1'1	0
af	ptr ( symloc ( 3 , 128 ) , 1'0 )	0
zf	1'1	0
sf	ptr ( symloc ( 3 , 128 ) , 1'0 )	0
of	1'0	0
ymm0	256'0	0x0000000000000000000000000000000000000000000000007ff8000000000000
ymm1	256'0	0x0000000000000000000000000000000000000000000000007ff8000000000000
ymm2	256'0	0x0000000000000000000000000000000000000000000000000000000000000000
ymm3	256'0	0x0000000000000000000000000000000000000000000000000000000000000000
ymm4	256'0	0x0000000000000000000000000000000000000000000000000000000000000000
ymm5	256'0	0x0000000000000000000000000000000000000000000000000000000000000000
ymm6	256'0	0x0000000000000000000000000000000000000000000000000000000000000000
ymm7	256'0	0x0000000000000000000000000000000000000000000000000000000000000000
ymm8	256'0	0x0000000000000000000000000000000000000000000000000000000000000000
ymm9	256'0	0x0000000000000000000000000000000000000000000000000000000000000000
ymm10	256'0	0x0000000000000000000000000000000000000000000000000000000000000000
ymm11	256'0	0x0000000000000000000000000000000000000000000000000000000000000000
ymm12	256'0	0x0000000000000000000000000000000000000000000000000000000000000000
ymm13	256'0	0x0000000000000000000000000000000000000000000000000000000000000000
ymm14	256'0	0x0000000000000000000000000000000000000000000000000000000000000000
ymm15	256'0	0x0000000000000000000000000000000000000000000000000000000000000000

Count 41) reg	kstate	xstate		48 83 ec 18	sub    $0x18,%rsp
---------------------
rax	64'0	9221120237041090560
rbx	64'0	0
rcx	64'0	1
rdx	64'0	0
rsi	64'0	0
rdi	64'0	1
rsp	ptr ( symloc ( 1 , 128 ) , 64'976 )	140737488345576
rbp	ptr ( symloc ( 1 , 128 ) , 64'976 )	140737488345576
r8	64'0	0
r9	64'0	0
r10	64'0	0
r11	64'0	0
r12	64'0	0
r13	64'0	0
r14	64'0	0
r15	64'0	0
cf	ptr ( symloc ( 3 , 128 ) , 1'0 )	0
pf	1'1	0
af	ptr ( symloc ( 3 , 128 ) , 1'0 )	0
zf	1'1	0
sf	ptr ( symloc ( 3 , 128 ) , 1'0 )	0
of	1'0	0
ymm0	256'0	0x0000000000000000000000000000000000000000000000007ff8000000000000
ymm1	256'0	0x0000000000000000000000000000000000000000000000007ff8000000000000
ymm2	256'0	0x0000000000000000000000000000000000000000000000000000000000000000
ymm3	256'0	0x0000000000000000000000000000000000000000000000000000000000000000
ymm4	256'0	0x0000000000000000000000000000000000000000000000000000000000000000
ymm5	256'0	0x0000000000000000000000000000000000000000000000000000000000000000
ymm6	256'0	0x0000000000000000000000000000000000000000000000000000000000000000
ymm7	256'0	0x0000000000000000000000000000000000000000000000000000000000000000
ymm8	256'0	0x0000000000000000000000000000000000000000000000000000000000000000
ymm9	256'0	0x0000000000000000000000000000000000000000000000000000000000000000
ymm10	256'0	0x0000000000000000000000000000000000000000000000000000000000000000
ymm11	256'0	0x0000000000000000000000000000000000000000000000000000000000000000
ymm12	256'0	0x0000000000000000000000000000000000000000000000000000000000000000
ymm13	256'0	0x0000000000000000000000000000000000000000000000000000000000000000
ymm14	256'0	0x0000000000000000000000000000000000000000000000000000000000000000
ymm15	256'0	0x0000000000000000000000000000000000000000000000000000000000000000

Count 42) reg	kstate	xstate		c5 fb 11 45 f8	vmovsd %xmm0,-0x8(%rbp)
---------------------
rax	64'0	9221120237041090560
rbx	64'0	0
rcx	64'0	1
rdx	64'0	0
rsi	64'0	0
rdi	64'0	1
rsp	ptr ( symloc ( 1 , 128 ) , 64'952 )	140737488345552
rbp	ptr ( symloc ( 1 , 128 ) , 64'976 )	140737488345576
r8	64'0	0
r9	64'0	0
r10	64'0	0
r11	64'0	0
r12	64'0	0
r13	64'0	0
r14	64'0	0
r15	64'0	0
cf	1'0	0
pf	1'1	0
af	ptr ( symloc ( 1 , 128 ) , 1'1 )	0
zf	1'0	0
sf	ptr ( symloc ( 1 , 128 ) , 1'0 )	0
of	1'0	0
ymm0	256'0	0x0000000000000000000000000000000000000000000000007ff8000000000000
ymm1	256'0	0x0000000000000000000000000000000000000000000000007ff8000000000000
ymm2	256'0	0x0000000000000000000000000000000000000000000000000000000000000000
ymm3	256'0	0x0000000000000000000000000000000000000000000000000000000000000000
ymm4	256'0	0x0000000000000000000000000000000000000000000000000000000000000000
ymm5	256'0	0x0000000000000000000000000000000000000000000000000000000000000000
ymm6	256'0	0x0000000000000000000000000000000000000000000000000000000000000000
ymm7	256'0	0x0000000000000000000000000000000000000000000000000000000000000000
ymm8	256'0	0x0000000000000000000000000000000000000000000000000000000000000000
ymm9	256'0	0x0000000000000000000000000000000000000000000000000000000000000000
ymm10	256'0	0x0000000000000000000000000000000000000000000000000000000000000000
ymm11	256'0	0x0000000000000000000000000000000000000000000000000000000000000000
ymm12	256'0	0x0000000000000000000000000000000000000000000000000000000000000000
ymm13	256'0	0x0000000000000000000000000000000000000000000000000000000000000000
ymm14	256'0	0x0000000000000000000000000000000000000000000000000000000000000000
ymm15	256'0	0x0000000000000000000000000000000000000000000000000000000000000000

Count 43) reg	kstate	xstate		c5 fb 11 4d f0	vmovsd %xmm1,-0x10(%rbp)
---------------------
rax	64'0	9221120237041090560
rbx	64'0	0
rcx	64'0	1
rdx	64'0	0
rsi	64'0	0
rdi	64'0	1
rsp	ptr ( symloc ( 1 , 128 ) , 64'952 )	140737488345552
rbp	ptr ( symloc ( 1 , 128 ) , 64'976 )	140737488345576
r8	64'0	0
r9	64'0	0
r10	64'0	0
r11	64'0	0
r12	64'0	0
r13	64'0	0
r14	64'0	0
r15	64'0	0
cf	1'0	0
pf	1'1	0
af	ptr ( symloc ( 1 , 128 ) , 1'1 )	0
zf	1'0	0
sf	ptr ( symloc ( 1 , 128 ) , 1'0 )	0
of	1'0	0
ymm0	256'0	0x0000000000000000000000000000000000000000000000007ff8000000000000
ymm1	256'0	0x0000000000000000000000000000000000000000000000007ff8000000000000
ymm2	256'0	0x0000000000000000000000000000000000000000000000000000000000000000
ymm3	256'0	0x0000000000000000000000000000000000000000000000000000000000000000
ymm4	256'0	0x0000000000000000000000000000000000000000000000000000000000000000
ymm5	256'0	0x0000000000000000000000000000000000000000000000000000000000000000
ymm6	256'0	0x0000000000000000000000000000000000000000000000000000000000000000
ymm7	256'0	0x0000000000000000000000000000000000000000000000000000000000000000
ymm8	256'0	0x0000000000000000000000000000000000000000000000000000000000000000
ymm9	256'0	0x0000000000000000000000000000000000000000000000000000000000000000
ymm10	256'0	0x0000000000000000000000000000000000000000000000000000000000000000
ymm11	256'0	0x0000000000000000000000000000000000000000000000000000000000000000
ymm12	256'0	0x0000000000000000000000000000000000000000000000000000000000000000
ymm13	256'0	0x0000000000000000000000000000000000000000000000000000000000000000
ymm14	256'0	0x0000000000000000000000000000000000000000000000000000000000000000
ymm15	256'0	0x0000000000000000000000000000000000000000000000000000000000000000

Count 44) reg	kstate	xstate		89 7d ec	mov    %edi,-0x14(%rbp)
---------------------
rax	64'0	9221120237041090560
rbx	64'0	0
rcx	64'0	1
rdx	64'0	0
rsi	64'0	0
rdi	64'0	1
rsp	ptr ( symloc ( 1 , 128 ) , 64'952 )	140737488345552
rbp	ptr ( symloc ( 1 , 128 ) , 64'976 )	140737488345576
r8	64'0	0
r9	64'0	0
r10	64'0	0
r11	64'0	0
r12	64'0	0
r13	64'0	0
r14	64'0	0
r15	64'0	0
cf	1'0	0
pf	1'1	0
af	ptr ( symloc ( 1 , 128 ) , 1'1 )	0
zf	1'0	0
sf	ptr ( symloc ( 1 , 128 ) , 1'0 )	0
of	1'0	0
ymm0	256'0	0x0000000000000000000000000000000000000000000000007ff8000000000000
ymm1	256'0	0x0000000000000000000000000000000000000000000000007ff8000000000000
ymm2	256'0	0x0000000000000000000000000000000000000000000000000000000000000000
ymm3	256'0	0x0000000000000000000000000000000000000000000000000000000000000000
ymm4	256'0	0x0000000000000000000000000000000000000000000000000000000000000000
ymm5	256'0	0x0000000000000000000000000000000000000000000000000000000000000000
ymm6	256'0	0x0000000000000000000000000000000000000000000000000000000000000000
ymm7	256'0	0x0000000000000000000000000000000000000000000000000000000000000000
ymm8	256'0	0x0000000000000000000000000000000000000000000000000000000000000000
ymm9	256'0	0x0000000000000000000000000000000000000000000000000000000000000000
ymm10	256'0	0x0000000000000000000000000000000000000000000000000000000000000000
ymm11	256'0	0x0000000000000000000000000000000000000000000000000000000000000000
ymm12	256'0	0x0000000000000000000000000000000000000000000000000000000000000000
ymm13	256'0	0x0000000000000000000000000000000000000000000000000000000000000000
ymm14	256'0	0x0000000000000000000000000000000000000000000000000000000000000000
ymm15	256'0	0x0000000000000000000000000000000000000000000000000000000000000000

Count 45) reg	kstate	xstate		c5 fb 10 45 f8	vmovsd -0x8(%rbp),%xmm0
---------------------
rax	64'0	9221120237041090560
rbx	64'0	0
rcx	64'0	1
rdx	64'0	0
rsi	64'0	0
rdi	64'0	1
rsp	ptr ( symloc ( 1 , 128 ) , 64'952 )	140737488345552
rbp	ptr ( symloc ( 1 , 128 ) , 64'976 )	140737488345576
r8	64'0	0
r9	64'0	0
r10	64'0	0
r11	64'0	0
r12	64'0	0
r13	64'0	0
r14	64'0	0
r15	64'0	0
cf	1'0	0
pf	1'1	0
af	ptr ( symloc ( 1 , 128 ) , 1'1 )	0
zf	1'0	0
sf	ptr ( symloc ( 1 , 128 ) , 1'0 )	0
of	1'0	0
ymm0	256'0	0x0000000000000000000000000000000000000000000000007ff8000000000000
ymm1	256'0	0x0000000000000000000000000000000000000000000000007ff8000000000000
ymm2	256'0	0x0000000000000000000000000000000000000000000000000000000000000000
ymm3	256'0	0x0000000000000000000000000000000000000000000000000000000000000000
ymm4	256'0	0x0000000000000000000000000000000000000000000000000000000000000000
ymm5	256'0	0x0000000000000000000000000000000000000000000000000000000000000000
ymm6	256'0	0x0000000000000000000000000000000000000000000000000000000000000000
ymm7	256'0	0x0000000000000000000000000000000000000000000000000000000000000000
ymm8	256'0	0x0000000000000000000000000000000000000000000000000000000000000000
ymm9	256'0	0x0000000000000000000000000000000000000000000000000000000000000000
ymm10	256'0	0x0000000000000000000000000000000000000000000000000000000000000000
ymm11	256'0	0x0000000000000000000000000000000000000000000000000000000000000000
ymm12	256'0	0x0000000000000000000000000000000000000000000000000000000000000000
ymm13	256'0	0x0000000000000000000000000000000000000000000000000000000000000000
ymm14	256'0	0x0000000000000000000000000000000000000000000000000000000000000000
ymm15	256'0	0x0000000000000000000000000000000000000000000000000000000000000000

Count 46) reg	kstate	xstate		c5 f9 2e 45 f0	vucomisd -0x10(%rbp),%xmm0
---------------------
rax	64'0	9221120237041090560
rbx	64'0	0
rcx	64'0	1
rdx	64'0	0
rsi	64'0	0
rdi	64'0	1
rsp	ptr ( symloc ( 1 , 128 ) , 64'952 )	140737488345552
rbp	ptr ( symloc ( 1 , 128 ) , 64'976 )	140737488345576
r8	64'0	0
r9	64'0	0
r10	64'0	0
r11	64'0	0
r12	64'0	0
r13	64'0	0
r14	64'0	0
r15	64'0	0
cf	1'0	0
pf	1'1	0
af	ptr ( symloc ( 1 , 128 ) , 1'1 )	0
zf	1'0	0
sf	ptr ( symloc ( 1 , 128 ) , 1'0 )	0
of	1'0	0
ymm0	256'0	0x0000000000000000000000000000000000000000000000007ff8000000000000
ymm1	256'0	0x0000000000000000000000000000000000000000000000007ff8000000000000
ymm2	256'0	0x0000000000000000000000000000000000000000000000000000000000000000
ymm3	256'0	0x0000000000000000000000000000000000000000000000000000000000000000
ymm4	256'0	0x0000000000000000000000000000000000000000000000000000000000000000
ymm5	256'0	0x0000000000000000000000000000000000000000000000000000000000000000
ymm6	256'0	0x0000000000000000000000000000000000000000000000000000000000000000
ymm7	256'0	0x0000000000000000000000000000000000000000000000000000000000000000
ymm8	256'0	0x0000000000000000000000000000000000000000000000000000000000000000
ymm9	256'0	0x0000000000000000000000000000000000000000000000000000000000000000
ymm10	256'0	0x0000000000000000000000000000000000000000000000000000000000000000
ymm11	256'0	0x0000000000000000000000000000000000000000000000000000000000000000
ymm12	256'0	0x0000000000000000000000000000000000000000000000000000000000000000
ymm13	256'0	0x0000000000000000000000000000000000000000000000000000000000000000
ymm14	256'0	0x0000000000000000000000000000000000000000000000000000000000000000
ymm15	256'0	0x0000000000000000000000000000000000000000000000000000000000000000

Count 47) reg	kstate	xstate		7b 0b	jnp    0x40034b <L46>
---------------------
rax	64'0	9221120237041090560
rbx	64'0	0
rcx	64'0	1
rdx	64'0	0
rsi	64'0	0
rdi	64'0	1
rsp	ptr ( symloc ( 1 , 128 ) , 64'952 )	140737488345552
rbp	ptr ( symloc ( 1 , 128 ) , 64'976 )	140737488345576
r8	64'0	0
r9	64'0	0
r10	64'0	0
r11	64'0	0
r12	64'0	0
r13	64'0	0
r14	64'0	0
r15	64'0	0
cf	1'0	1
pf	1'0	1
af	1'0	0
zf	1'1	1
sf	1'0	0
of	1'0	0
ymm0	256'0	0x0000000000000000000000000000000000000000000000007ff8000000000000
ymm1	256'0	0x0000000000000000000000000000000000000000000000007ff8000000000000
ymm2	256'0	0x0000000000000000000000000000000000000000000000000000000000000000
ymm3	256'0	0x0000000000000000000000000000000000000000000000000000000000000000
ymm4	256'0	0x0000000000000000000000000000000000000000000000000000000000000000
ymm5	256'0	0x0000000000000000000000000000000000000000000000000000000000000000
ymm6	256'0	0x0000000000000000000000000000000000000000000000000000000000000000
ymm7	256'0	0x0000000000000000000000000000000000000000000000000000000000000000
ymm8	256'0	0x0000000000000000000000000000000000000000000000000000000000000000
ymm9	256'0	0x0000000000000000000000000000000000000000000000000000000000000000
ymm10	256'0	0x0000000000000000000000000000000000000000000000000000000000000000
ymm11	256'0	0x0000000000000000000000000000000000000000000000000000000000000000
ymm12	256'0	0x0000000000000000000000000000000000000000000000000000000000000000
ymm13	256'0	0x0000000000000000000000000000000000000000000000000000000000000000
ymm14	256'0	0x0000000000000000000000000000000000000000000000000000000000000000
ymm15	256'0	0x0000000000000000000000000000000000000000000000000000000000000000

Count 48) reg	kstate	xstate		83 7d ec 00	cmpl   $0x0,-0x14(%rbp)
---------------------
rax	64'0	9221120237041090560
rbx	64'0	0
rcx	64'0	1
rdx	64'0	0
rsi	64'0	0
rdi	64'0	1
rsp	ptr ( symloc ( 1 , 128 ) , 64'952 )	140737488345552
rbp	ptr ( symloc ( 1 , 128 ) , 64'976 )	140737488345576
r8	64'0	0
r9	64'0	0
r10	64'0	0
r11	64'0	0
r12	64'0	0
r13	64'0	0
r14	64'0	0
r15	64'0	0
cf	1'0	1
pf	1'0	1
af	1'0	0
zf	1'1	1
sf	1'0	0
of	1'0	0
ymm0	256'0	0x0000000000000000000000000000000000000000000000007ff8000000000000
ymm1	256'0	0x0000000000000000000000000000000000000000000000007ff8000000000000
ymm2	256'0	0x0000000000000000000000000000000000000000000000000000000000000000
ymm3	256'0	0x0000000000000000000000000000000000000000000000000000000000000000
ymm4	256'0	0x0000000000000000000000000000000000000000000000000000000000000000
ymm5	256'0	0x0000000000000000000000000000000000000000000000000000000000000000
ymm6	256'0	0x0000000000000000000000000000000000000000000000000000000000000000
ymm7	256'0	0x0000000000000000000000000000000000000000000000000000000000000000
ymm8	256'0	0x0000000000000000000000000000000000000000000000000000000000000000
ymm9	256'0	0x0000000000000000000000000000000000000000000000000000000000000000
ymm10	256'0	0x0000000000000000000000000000000000000000000000000000000000000000
ymm11	256'0	0x0000000000000000000000000000000000000000000000000000000000000000
ymm12	256'0	0x0000000000000000000000000000000000000000000000000000000000000000
ymm13	256'0	0x0000000000000000000000000000000000000000000000000000000000000000
ymm14	256'0	0x0000000000000000000000000000000000000000000000000000000000000000
ymm15	256'0	0x0000000000000000000000000000000000000000000000000000000000000000

Count 49) reg	kstate	xstate		75 10	jne    0x400356 <L48>
---------------------
rax	64'0	9221120237041090560
rbx	64'0	0
rcx	64'0	1
rdx	64'0	0
rsi	64'0	0
rdi	64'0	1
rsp	ptr ( symloc ( 1 , 128 ) , 64'952 )	140737488345552
rbp	ptr ( symloc ( 1 , 128 ) , 64'976 )	140737488345576
r8	64'0	0
r9	64'0	0
r10	64'0	0
r11	64'0	0
r12	64'0	0
r13	64'0	0
r14	64'0	0
r15	64'0	0
cf	1'0	0
pf	1'1	0
af	1'0	0
zf	1'1	0
sf	1'0	0
of	1'0	0
ymm0	256'0	0x0000000000000000000000000000000000000000000000007ff8000000000000
ymm1	256'0	0x0000000000000000000000000000000000000000000000007ff8000000000000
ymm2	256'0	0x0000000000000000000000000000000000000000000000000000000000000000
ymm3	256'0	0x0000000000000000000000000000000000000000000000000000000000000000
ymm4	256'0	0x0000000000000000000000000000000000000000000000000000000000000000
ymm5	256'0	0x0000000000000000000000000000000000000000000000000000000000000000
ymm6	256'0	0x0000000000000000000000000000000000000000000000000000000000000000
ymm7	256'0	0x0000000000000000000000000000000000000000000000000000000000000000
ymm8	256'0	0x0000000000000000000000000000000000000000000000000000000000000000
ymm9	256'0	0x0000000000000000000000000000000000000000000000000000000000000000
ymm10	256'0	0x0000000000000000000000000000000000000000000000000000000000000000
ymm11	256'0	0x0000000000000000000000000000000000000000000000000000000000000000
ymm12	256'0	0x0000000000000000000000000000000000000000000000000000000000000000
ymm13	256'0	0x0000000000000000000000000000000000000000000000000000000000000000
ymm14	256'0	0x0000000000000000000000000000000000000000000000000000000000000000
ymm15	256'0	0x0000000000000000000000000000000000000000000000000000000000000000

Count 50) reg	kstate	xstate		90	nop
---------------------
rax	64'0	9221120237041090560
rbx	64'0	0
rcx	64'0	1
rdx	64'0	0
rsi	64'0	0
rdi	64'0	1
rsp	ptr ( symloc ( 1 , 128 ) , 64'952 )	140737488345552
rbp	ptr ( symloc ( 1 , 128 ) , 64'976 )	140737488345576
r8	64'0	0
r9	64'0	0
r10	64'0	0
r11	64'0	0
r12	64'0	0
r13	64'0	0
r14	64'0	0
r15	64'0	0
cf	1'0	0
pf	1'1	0
af	1'0	0
zf	1'1	0
sf	1'0	0
of	1'0	0
ymm0	256'0	0x0000000000000000000000000000000000000000000000007ff8000000000000
ymm1	256'0	0x0000000000000000000000000000000000000000000000007ff8000000000000
ymm2	256'0	0x0000000000000000000000000000000000000000000000000000000000000000
ymm3	256'0	0x0000000000000000000000000000000000000000000000000000000000000000
ymm4	256'0	0x0000000000000000000000000000000000000000000000000000000000000000
ymm5	256'0	0x0000000000000000000000000000000000000000000000000000000000000000
ymm6	256'0	0x0000000000000000000000000000000000000000000000000000000000000000
ymm7	256'0	0x0000000000000000000000000000000000000000000000000000000000000000
ymm8	256'0	0x0000000000000000000000000000000000000000000000000000000000000000
ymm9	256'0	0x0000000000000000000000000000000000000000000000000000000000000000
ymm10	256'0	0x0000000000000000000000000000000000000000000000000000000000000000
ymm11	256'0	0x0000000000000000000000000000000000000000000000000000000000000000
ymm12	256'0	0x0000000000000000000000000000000000000000000000000000000000000000
ymm13	256'0	0x0000000000000000000000000000000000000000000000000000000000000000
ymm14	256'0	0x0000000000000000000000000000000000000000000000000000000000000000
ymm15	256'0	0x0000000000000000000000000000000000000000000000000000000000000000

Count 51) reg	kstate	xstate		c9	leaveq 
---------------------
rax	64'0	9221120237041090560
rbx	64'0	0
rcx	64'0	1
rdx	64'0	0
rsi	64'0	0
rdi	64'0	1
rsp	ptr ( symloc ( 1 , 128 ) , 64'952 )	140737488345552
rbp	ptr ( symloc ( 1 , 128 ) , 64'976 )	140737488345576
r8	64'0	0
r9	64'0	0
r10	64'0	0
r11	64'0	0
r12	64'0	0
r13	64'0	0
r14	64'0	0
r15	64'0	0
cf	1'0	0
pf	1'1	0
af	1'0	0
zf	1'1	0
sf	1'0	0
of	1'0	0
ymm0	256'0	0x0000000000000000000000000000000000000000000000007ff8000000000000
ymm1	256'0	0x0000000000000000000000000000000000000000000000007ff8000000000000
ymm2	256'0	0x0000000000000000000000000000000000000000000000000000000000000000
ymm3	256'0	0x0000000000000000000000000000000000000000000000000000000000000000
ymm4	256'0	0x0000000000000000000000000000000000000000000000000000000000000000
ymm5	256'0	0x0000000000000000000000000000000000000000000000000000000000000000
ymm6	256'0	0x0000000000000000000000000000000000000000000000000000000000000000
ymm7	256'0	0x0000000000000000000000000000000000000000000000000000000000000000
ymm8	256'0	0x0000000000000000000000000000000000000000000000000000000000000000
ymm9	256'0	0x0000000000000000000000000000000000000000000000000000000000000000
ymm10	256'0	0x0000000000000000000000000000000000000000000000000000000000000000
ymm11	256'0	0x0000000000000000000000000000000000000000000000000000000000000000
ymm12	256'0	0x0000000000000000000000000000000000000000000000000000000000000000
ymm13	256'0	0x0000000000000000000000000000000000000000000000000000000000000000
ymm14	256'0	0x0000000000000000000000000000000000000000000000000000000000000000
ymm15	256'0	0x0000000000000000000000000000000000000000000000000000000000000000

Count 52) reg	kstate	xstate		c3	retq   
---------------------
rax	64'0	9221120237041090560
rbx	64'0	0
rcx	64'0	1
rdx	64'0	0
rsi	64'0	0
rdi	64'0	1
rsp	ptr ( symloc ( 1 , 128 ) , 64'984 )	140737488345584
rbp	ptr ( symloc ( 1 , 128 ) , 64'1008 )	140737488345608
r8	64'0	0
r9	64'0	0
r10	64'0	0
r11	64'0	0
r12	64'0	0
r13	64'0	0
r14	64'0	0
r15	64'0	0
cf	1'0	0
pf	1'1	0
af	1'0	0
zf	1'1	0
sf	1'0	0
of	1'0	0
ymm0	256'0	0x0000000000000000000000000000000000000000000000007ff8000000000000
ymm1	256'0	0x0000000000000000000000000000000000000000000000007ff8000000000000
ymm2	256'0	0x0000000000000000000000000000000000000000000000000000000000000000
ymm3	256'0	0x0000000000000000000000000000000000000000000000000000000000000000
ymm4	256'0	0x0000000000000000000000000000000000000000000000000000000000000000
ymm5	256'0	0x0000000000000000000000000000000000000000000000000000000000000000
ymm6	256'0	0x0000000000000000000000000000000000000000000000000000000000000000
ymm7	256'0	0x0000000000000000000000000000000000000000000000000000000000000000
ymm8	256'0	0x0000000000000000000000000000000000000000000000000000000000000000
ymm9	256'0	0x0000000000000000000000000000000000000000000000000000000000000000
ymm10	256'0	0x0000000000000000000000000000000000000000000000000000000000000000
ymm11	256'0	0x0000000000000000000000000000000000000000000000000000000000000000
ymm12	256'0	0x0000000000000000000000000000000000000000000000000000000000000000
ymm13	256'0	0x0000000000000000000000000000000000000000000000000000000000000000
ymm14	256'0	0x0000000000000000000000000000000000000000000000000000000000000000
ymm15	256'0	0x0000000000000000000000000000000000000000000000000000000000000000

Count 53) reg	kstate	xstate		8b 45 f8	mov    -0x8(%rbp),%eax
---------------------
rax	64'0	9221120237041090560
rbx	64'0	0
rcx	64'0	1
rdx	64'0	0
rsi	64'0	0
rdi	64'0	1
rsp	ptr ( symloc ( 1 , 128 ) , 64'992 )	140737488345592
rbp	ptr ( symloc ( 1 , 128 ) , 64'1008 )	140737488345608
r8	64'0	0
r9	64'0	0
r10	64'0	0
r11	64'0	0
r12	64'0	0
r13	64'0	0
r14	64'0	0
r15	64'0	0
cf	1'0	0
pf	1'1	0
af	1'0	0
zf	1'1	0
sf	1'0	0
of	1'0	0
ymm0	256'0	0x0000000000000000000000000000000000000000000000007ff8000000000000
ymm1	256'0	0x0000000000000000000000000000000000000000000000007ff8000000000000
ymm2	256'0	0x0000000000000000000000000000000000000000000000000000000000000000
ymm3	256'0	0x0000000000000000000000000000000000000000000000000000000000000000
ymm4	256'0	0x0000000000000000000000000000000000000000000000000000000000000000
ymm5	256'0	0x0000000000000000000000000000000000000000000000000000000000000000
ymm6	256'0	0x0000000000000000000000000000000000000000000000000000000000000000
ymm7	256'0	0x0000000000000000000000000000000000000000000000000000000000000000
ymm8	256'0	0x0000000000000000000000000000000000000000000000000000000000000000
ymm9	256'0	0x0000000000000000000000000000000000000000000000000000000000000000
ymm10	256'0	0x0000000000000000000000000000000000000000000000000000000000000000
ymm11	256'0	0x0000000000000000000000000000000000000000000000000000000000000000
ymm12	256'0	0x0000000000000000000000000000000000000000000000000000000000000000
ymm13	256'0	0x0000000000000000000000000000000000000000000000000000000000000000
ymm14	256'0	0x0000000000000000000000000000000000000000000000000000000000000000
ymm15	256'0	0x0000000000000000000000000000000000000000000000000000000000000000

Count 54) reg	kstate	xstate		48 63 d0	movslq %eax,%rdx
---------------------
rax	64'0	0
rbx	64'0	0
rcx	64'0	1
rdx	64'0	0
rsi	64'0	0
rdi	64'0	1
rsp	ptr ( symloc ( 1 , 128 ) , 64'992 )	140737488345592
rbp	ptr ( symloc ( 1 , 128 ) , 64'1008 )	140737488345608
r8	64'0	0
r9	64'0	0
r10	64'0	0
r11	64'0	0
r12	64'0	0
r13	64'0	0
r14	64'0	0
r15	64'0	0
cf	1'0	0
pf	1'1	0
af	1'0	0
zf	1'1	0
sf	1'0	0
of	1'0	0
ymm0	256'0	0x0000000000000000000000000000000000000000000000007ff8000000000000
ymm1	256'0	0x0000000000000000000000000000000000000000000000007ff8000000000000
ymm2	256'0	0x0000000000000000000000000000000000000000000000000000000000000000
ymm3	256'0	0x0000000000000000000000000000000000000000000000000000000000000000
ymm4	256'0	0x0000000000000000000000000000000000000000000000000000000000000000
ymm5	256'0	0x0000000000000000000000000000000000000000000000000000000000000000
ymm6	256'0	0x0000000000000000000000000000000000000000000000000000000000000000
ymm7	256'0	0x0000000000000000000000000000000000000000000000000000000000000000
ymm8	256'0	0x0000000000000000000000000000000000000000000000000000000000000000
ymm9	256'0	0x0000000000000000000000000000000000000000000000000000000000000000
ymm10	256'0	0x0000000000000000000000000000000000000000000000000000000000000000
ymm11	256'0	0x0000000000000000000000000000000000000000000000000000000000000000
ymm12	256'0	0x0000000000000000000000000000000000000000000000000000000000000000
ymm13	256'0	0x0000000000000000000000000000000000000000000000000000000000000000
ymm14	256'0	0x0000000000000000000000000000000000000000000000000000000000000000
ymm15	256'0	0x0000000000000000000000000000000000000000000000000000000000000000

Count 55) reg	kstate	xstate		48 89 d0	mov    %rdx,%rax
---------------------
rax	64'0	0
rbx	64'0	0
rcx	64'0	1
rdx	64'0	0
rsi	64'0	0
rdi	64'0	1
rsp	ptr ( symloc ( 1 , 128 ) , 64'992 )	140737488345592
rbp	ptr ( symloc ( 1 , 128 ) , 64'1008 )	140737488345608
r8	64'0	0
r9	64'0	0
r10	64'0	0
r11	64'0	0
r12	64'0	0
r13	64'0	0
r14	64'0	0
r15	64'0	0
cf	1'0	0
pf	1'1	0
af	1'0	0
zf	1'1	0
sf	1'0	0
of	1'0	0
ymm0	256'0	0x0000000000000000000000000000000000000000000000007ff8000000000000
ymm1	256'0	0x0000000000000000000000000000000000000000000000007ff8000000000000
ymm2	256'0	0x0000000000000000000000000000000000000000000000000000000000000000
ymm3	256'0	0x0000000000000000000000000000000000000000000000000000000000000000
ymm4	256'0	0x0000000000000000000000000000000000000000000000000000000000000000
ymm5	256'0	0x0000000000000000000000000000000000000000000000000000000000000000
ymm6	256'0	0x0000000000000000000000000000000000000000000000000000000000000000
ymm7	256'0	0x0000000000000000000000000000000000000000000000000000000000000000
ymm8	256'0	0x0000000000000000000000000000000000000000000000000000000000000000
ymm9	256'0	0x0000000000000000000000000000000000000000000000000000000000000000
ymm10	256'0	0x0000000000000000000000000000000000000000000000000000000000000000
ymm11	256'0	0x0000000000000000000000000000000000000000000000000000000000000000
ymm12	256'0	0x0000000000000000000000000000000000000000000000000000000000000000
ymm13	256'0	0x0000000000000000000000000000000000000000000000000000000000000000
ymm14	256'0	0x0000000000000000000000000000000000000000000000000000000000000000
ymm15	256'0	0x0000000000000000000000000000000000000000000000000000000000000000

Count 56) reg	kstate	xstate		48 01 c0	add    %rax,%rax
---------------------
rax	64'0	0
rbx	64'0	0
rcx	64'0	1
rdx	64'0	0
rsi	64'0	0
rdi	64'0	1
rsp	ptr ( symloc ( 1 , 128 ) , 64'992 )	140737488345592
rbp	ptr ( symloc ( 1 , 128 ) , 64'1008 )	140737488345608
r8	64'0	0
r9	64'0	0
r10	64'0	0
r11	64'0	0
r12	64'0	0
r13	64'0	0
r14	64'0	0
r15	64'0	0
cf	1'0	0
pf	1'1	0
af	1'0	0
zf	1'1	0
sf	1'0	0
of	1'0	0
ymm0	256'0	0x0000000000000000000000000000000000000000000000007ff8000000000000
ymm1	256'0	0x0000000000000000000000000000000000000000000000007ff8000000000000
ymm2	256'0	0x0000000000000000000000000000000000000000000000000000000000000000
ymm3	256'0	0x0000000000000000000000000000000000000000000000000000000000000000
ymm4	256'0	0x0000000000000000000000000000000000000000000000000000000000000000
ymm5	256'0	0x0000000000000000000000000000000000000000000000000000000000000000
ymm6	256'0	0x0000000000000000000000000000000000000000000000000000000000000000
ymm7	256'0	0x0000000000000000000000000000000000000000000000000000000000000000
ymm8	256'0	0x0000000000000000000000000000000000000000000000000000000000000000
ymm9	256'0	0x0000000000000000000000000000000000000000000000000000000000000000
ymm10	256'0	0x0000000000000000000000000000000000000000000000000000000000000000
ymm11	256'0	0x0000000000000000000000000000000000000000000000000000000000000000
ymm12	256'0	0x0000000000000000000000000000000000000000000000000000000000000000
ymm13	256'0	0x0000000000000000000000000000000000000000000000000000000000000000
ymm14	256'0	0x0000000000000000000000000000000000000000000000000000000000000000
ymm15	256'0	0x0000000000000000000000000000000000000000000000000000000000000000

Count 57) reg	kstate	xstate		48 01 d0	add    %rdx,%rax
---------------------
rax	64'0	0
rbx	64'0	0
rcx	64'0	1
rdx	64'0	0
rsi	64'0	0
rdi	64'0	1
rsp	ptr ( symloc ( 1 , 128 ) , 64'992 )	140737488345592
rbp	ptr ( symloc ( 1 , 128 ) , 64'1008 )	140737488345608
r8	64'0	0
r9	64'0	0
r10	64'0	0
r11	64'0	0
r12	64'0	0
r13	64'0	0
r14	64'0	0
r15	64'0	0
cf	1'0	0
pf	1'1	1
af	1'0	0
zf	1'1	1
sf	1'0	0
of	1'0	0
ymm0	256'0	0x0000000000000000000000000000000000000000000000007ff8000000000000
ymm1	256'0	0x0000000000000000000000000000000000000000000000007ff8000000000000
ymm2	256'0	0x0000000000000000000000000000000000000000000000000000000000000000
ymm3	256'0	0x0000000000000000000000000000000000000000000000000000000000000000
ymm4	256'0	0x0000000000000000000000000000000000000000000000000000000000000000
ymm5	256'0	0x0000000000000000000000000000000000000000000000000000000000000000
ymm6	256'0	0x0000000000000000000000000000000000000000000000000000000000000000
ymm7	256'0	0x0000000000000000000000000000000000000000000000000000000000000000
ymm8	256'0	0x0000000000000000000000000000000000000000000000000000000000000000
ymm9	256'0	0x0000000000000000000000000000000000000000000000000000000000000000
ymm10	256'0	0x0000000000000000000000000000000000000000000000000000000000000000
ymm11	256'0	0x0000000000000000000000000000000000000000000000000000000000000000
ymm12	256'0	0x0000000000000000000000000000000000000000000000000000000000000000
ymm13	256'0	0x0000000000000000000000000000000000000000000000000000000000000000
ymm14	256'0	0x0000000000000000000000000000000000000000000000000000000000000000
ymm15	256'0	0x0000000000000000000000000000000000000000000000000000000000000000

Count 58) reg	kstate	xstate		48 c1 e0 03	shl    $0x3,%rax
---------------------
rax	64'0	0
rbx	64'0	0
rcx	64'0	1
rdx	64'0	0
rsi	64'0	0
rdi	64'0	1
rsp	ptr ( symloc ( 1 , 128 ) , 64'992 )	140737488345592
rbp	ptr ( symloc ( 1 , 128 ) , 64'1008 )	140737488345608
r8	64'0	0
r9	64'0	0
r10	64'0	0
r11	64'0	0
r12	64'0	0
r13	64'0	0
r14	64'0	0
r15	64'0	0
cf	1'0	0
pf	1'1	1
af	1'0	0
zf	1'1	1
sf	1'0	0
of	1'0	0
ymm0	256'0	0x0000000000000000000000000000000000000000000000007ff8000000000000
ymm1	256'0	0x0000000000000000000000000000000000000000000000007ff8000000000000
ymm2	256'0	0x0000000000000000000000000000000000000000000000000000000000000000
ymm3	256'0	0x0000000000000000000000000000000000000000000000000000000000000000
ymm4	256'0	0x0000000000000000000000000000000000000000000000000000000000000000
ymm5	256'0	0x0000000000000000000000000000000000000000000000000000000000000000
ymm6	256'0	0x0000000000000000000000000000000000000000000000000000000000000000
ymm7	256'0	0x0000000000000000000000000000000000000000000000000000000000000000
ymm8	256'0	0x0000000000000000000000000000000000000000000000000000000000000000
ymm9	256'0	0x0000000000000000000000000000000000000000000000000000000000000000
ymm10	256'0	0x0000000000000000000000000000000000000000000000000000000000000000
ymm11	256'0	0x0000000000000000000000000000000000000000000000000000000000000000
ymm12	256'0	0x0000000000000000000000000000000000000000000000000000000000000000
ymm13	256'0	0x0000000000000000000000000000000000000000000000000000000000000000
ymm14	256'0	0x0000000000000000000000000000000000000000000000000000000000000000
ymm15	256'0	0x0000000000000000000000000000000000000000000000000000000000000000

Count 59) reg	kstate	xstate		48 05 6e 07 40 00	add    $0x40076e,%rax
---------------------
rax	64'0	0
rbx	64'0	0
rcx	64'0	1
rdx	64'0	0
rsi	64'0	0
rdi	64'0	1
rsp	ptr ( symloc ( 1 , 128 ) , 64'992 )	140737488345592
rbp	ptr ( symloc ( 1 , 128 ) , 64'1008 )	140737488345608
r8	64'0	0
r9	64'0	0
r10	64'0	0
r11	64'0	0
r12	64'0	0
r13	64'0	0
r14	64'0	0
r15	64'0	0
cf	1'0	0
pf	1'1	1
af	#ifMInt undefBool #then 1'1 #else 1'0 #fi	0
zf	1'1	1
sf	1'0	0
of	#ifMInt undefBool #then 1'1 #else 1'0 #fi	0
ymm0	256'0	0x0000000000000000000000000000000000000000000000007ff8000000000000
ymm1	256'0	0x0000000000000000000000000000000000000000000000007ff8000000000000
ymm2	256'0	0x0000000000000000000000000000000000000000000000000000000000000000
ymm3	256'0	0x0000000000000000000000000000000000000000000000000000000000000000
ymm4	256'0	0x0000000000000000000000000000000000000000000000000000000000000000
ymm5	256'0	0x0000000000000000000000000000000000000000000000000000000000000000
ymm6	256'0	0x0000000000000000000000000000000000000000000000000000000000000000
ymm7	256'0	0x0000000000000000000000000000000000000000000000000000000000000000
ymm8	256'0	0x0000000000000000000000000000000000000000000000000000000000000000
ymm9	256'0	0x0000000000000000000000000000000000000000000000000000000000000000
ymm10	256'0	0x0000000000000000000000000000000000000000000000000000000000000000
ymm11	256'0	0x0000000000000000000000000000000000000000000000000000000000000000
ymm12	256'0	0x0000000000000000000000000000000000000000000000000000000000000000
ymm13	256'0	0x0000000000000000000000000000000000000000000000000000000000000000
ymm14	256'0	0x0000000000000000000000000000000000000000000000000000000000000000
ymm15	256'0	0x0000000000000000000000000000000000000000000000000000000000000000

Count 60) reg	kstate	xstate		0f b6 40 10	movzbl 0x10(%rax),%eax
---------------------
rax	ptr ( symloc ( 3 , 128 ) , 64'0 )	4196206
rbx	64'0	0
rcx	64'0	1
rdx	64'0	0
rsi	64'0	0
rdi	64'0	1
rsp	ptr ( symloc ( 1 , 128 ) , 64'992 )	140737488345592
rbp	ptr ( symloc ( 1 , 128 ) , 64'1008 )	140737488345608
r8	64'0	0
r9	64'0	0
r10	64'0	0
r11	64'0	0
r12	64'0	0
r13	64'0	0
r14	64'0	0
r15	64'0	0
cf	ptr ( symloc ( 3 , 128 ) , 1'0 )	0
pf	1'1	0
af	ptr ( symloc ( 3 , 128 ) , 1'0 )	0
zf	1'1	0
sf	ptr ( symloc ( 3 , 128 ) , 1'0 )	0
of	1'0	0
ymm0	256'0	0x0000000000000000000000000000000000000000000000007ff8000000000000
ymm1	256'0	0x0000000000000000000000000000000000000000000000007ff8000000000000
ymm2	256'0	0x0000000000000000000000000000000000000000000000000000000000000000
ymm3	256'0	0x0000000000000000000000000000000000000000000000000000000000000000
ymm4	256'0	0x0000000000000000000000000000000000000000000000000000000000000000
ymm5	256'0	0x0000000000000000000000000000000000000000000000000000000000000000
ymm6	256'0	0x0000000000000000000000000000000000000000000000000000000000000000
ymm7	256'0	0x0000000000000000000000000000000000000000000000000000000000000000
ymm8	256'0	0x0000000000000000000000000000000000000000000000000000000000000000
ymm9	256'0	0x0000000000000000000000000000000000000000000000000000000000000000
ymm10	256'0	0x0000000000000000000000000000000000000000000000000000000000000000
ymm11	256'0	0x0000000000000000000000000000000000000000000000000000000000000000
ymm12	256'0	0x0000000000000000000000000000000000000000000000000000000000000000
ymm13	256'0	0x0000000000000000000000000000000000000000000000000000000000000000
ymm14	256'0	0x0000000000000000000000000000000000000000000000000000000000000000
ymm15	256'0	0x0000000000000000000000000000000000000000000000000000000000000000

Count 61) reg	kstate	xstate		d0 e8	shr    %al
---------------------
rax	64'0	1
rbx	64'0	0
rcx	64'0	1
rdx	64'0	0
rsi	64'0	0
rdi	64'0	1
rsp	ptr ( symloc ( 1 , 128 ) , 64'992 )	140737488345592
rbp	ptr ( symloc ( 1 , 128 ) , 64'1008 )	140737488345608
r8	64'0	0
r9	64'0	0
r10	64'0	0
r11	64'0	0
r12	64'0	0
r13	64'0	0
r14	64'0	0
r15	64'0	0
cf	ptr ( symloc ( 3 , 128 ) , 1'0 )	0
pf	1'1	0
af	ptr ( symloc ( 3 , 128 ) , 1'0 )	0
zf	1'1	0
sf	ptr ( symloc ( 3 , 128 ) , 1'0 )	0
of	1'0	0
ymm0	256'0	0x0000000000000000000000000000000000000000000000007ff8000000000000
ymm1	256'0	0x0000000000000000000000000000000000000000000000007ff8000000000000
ymm2	256'0	0x0000000000000000000000000000000000000000000000000000000000000000
ymm3	256'0	0x0000000000000000000000000000000000000000000000000000000000000000
ymm4	256'0	0x0000000000000000000000000000000000000000000000000000000000000000
ymm5	256'0	0x0000000000000000000000000000000000000000000000000000000000000000
ymm6	256'0	0x0000000000000000000000000000000000000000000000000000000000000000
ymm7	256'0	0x0000000000000000000000000000000000000000000000000000000000000000
ymm8	256'0	0x0000000000000000000000000000000000000000000000000000000000000000
ymm9	256'0	0x0000000000000000000000000000000000000000000000000000000000000000
ymm10	256'0	0x0000000000000000000000000000000000000000000000000000000000000000
ymm11	256'0	0x0000000000000000000000000000000000000000000000000000000000000000
ymm12	256'0	0x0000000000000000000000000000000000000000000000000000000000000000
ymm13	256'0	0x0000000000000000000000000000000000000000000000000000000000000000
ymm14	256'0	0x0000000000000000000000000000000000000000000000000000000000000000
ymm15	256'0	0x0000000000000000000000000000000000000000000000000000000000000000

Count 62) reg	kstate	xstate		83 e0 01	and    $0x1,%eax
---------------------
rax	64'0	0
rbx	64'0	0
rcx	64'0	1
rdx	64'0	0
rsi	64'0	0
rdi	64'0	1
rsp	ptr ( symloc ( 1 , 128 ) , 64'992 )	140737488345592
rbp	ptr ( symloc ( 1 , 128 ) , 64'1008 )	140737488345608
r8	64'0	0
r9	64'0	0
r10	64'0	0
r11	64'0	0
r12	64'0	0
r13	64'0	0
r14	64'0	0
r15	64'0	0
cf	1'0	1
pf	1'1	1
af	undefMInt	0
zf	1'1	1
sf	1'0	0
of	1'0	0
ymm0	256'0	0x0000000000000000000000000000000000000000000000007ff8000000000000
ymm1	256'0	0x0000000000000000000000000000000000000000000000007ff8000000000000
ymm2	256'0	0x0000000000000000000000000000000000000000000000000000000000000000
ymm3	256'0	0x0000000000000000000000000000000000000000000000000000000000000000
ymm4	256'0	0x0000000000000000000000000000000000000000000000000000000000000000
ymm5	256'0	0x0000000000000000000000000000000000000000000000000000000000000000
ymm6	256'0	0x0000000000000000000000000000000000000000000000000000000000000000
ymm7	256'0	0x0000000000000000000000000000000000000000000000000000000000000000
ymm8	256'0	0x0000000000000000000000000000000000000000000000000000000000000000
ymm9	256'0	0x0000000000000000000000000000000000000000000000000000000000000000
ymm10	256'0	0x0000000000000000000000000000000000000000000000000000000000000000
ymm11	256'0	0x0000000000000000000000000000000000000000000000000000000000000000
ymm12	256'0	0x0000000000000000000000000000000000000000000000000000000000000000
ymm13	256'0	0x0000000000000000000000000000000000000000000000000000000000000000
ymm14	256'0	0x0000000000000000000000000000000000000000000000000000000000000000
ymm15	256'0	0x0000000000000000000000000000000000000000000000000000000000000000

Count 63) reg	kstate	xstate		0f b6 c8	movzbl %al,%ecx
---------------------
rax	64'0	0
rbx	64'0	0
rcx	64'0	1
rdx	64'0	0
rsi	64'0	0
rdi	64'0	1
rsp	ptr ( symloc ( 1 , 128 ) , 64'992 )	140737488345592
rbp	ptr ( symloc ( 1 , 128 ) , 64'1008 )	140737488345608
r8	64'0	0
r9	64'0	0
r10	64'0	0
r11	64'0	0
r12	64'0	0
r13	64'0	0
r14	64'0	0
r15	64'0	0
cf	1'0	0
pf	1'1	1
af	undefMInt	0
zf	1'1	1
sf	1'0	0
of	1'0	0
ymm0	256'0	0x0000000000000000000000000000000000000000000000007ff8000000000000
ymm1	256'0	0x0000000000000000000000000000000000000000000000007ff8000000000000
ymm2	256'0	0x0000000000000000000000000000000000000000000000000000000000000000
ymm3	256'0	0x0000000000000000000000000000000000000000000000000000000000000000
ymm4	256'0	0x0000000000000000000000000000000000000000000000000000000000000000
ymm5	256'0	0x0000000000000000000000000000000000000000000000000000000000000000
ymm6	256'0	0x0000000000000000000000000000000000000000000000000000000000000000
ymm7	256'0	0x0000000000000000000000000000000000000000000000000000000000000000
ymm8	256'0	0x0000000000000000000000000000000000000000000000000000000000000000
ymm9	256'0	0x0000000000000000000000000000000000000000000000000000000000000000
ymm10	256'0	0x0000000000000000000000000000000000000000000000000000000000000000
ymm11	256'0	0x0000000000000000000000000000000000000000000000000000000000000000
ymm12	256'0	0x0000000000000000000000000000000000000000000000000000000000000000
ymm13	256'0	0x0000000000000000000000000000000000000000000000000000000000000000
ymm14	256'0	0x0000000000000000000000000000000000000000000000000000000000000000
ymm15	256'0	0x0000000000000000000000000000000000000000000000000000000000000000

Count 64) reg	kstate	xstate		8b 45 f8	mov    -0x8(%rbp),%eax
---------------------
rax	64'0	0
rbx	64'0	0
rcx	64'0	0
rdx	64'0	0
rsi	64'0	0
rdi	64'0	1
rsp	ptr ( symloc ( 1 , 128 ) , 64'992 )	140737488345592
rbp	ptr ( symloc ( 1 , 128 ) , 64'1008 )	140737488345608
r8	64'0	0
r9	64'0	0
r10	64'0	0
r11	64'0	0
r12	64'0	0
r13	64'0	0
r14	64'0	0
r15	64'0	0
cf	1'0	0
pf	1'1	1
af	undefMInt	0
zf	1'1	1
sf	1'0	0
of	1'0	0
ymm0	256'0	0x0000000000000000000000000000000000000000000000007ff8000000000000
ymm1	256'0	0x0000000000000000000000000000000000000000000000007ff8000000000000
ymm2	256'0	0x0000000000000000000000000000000000000000000000000000000000000000
ymm3	256'0	0x0000000000000000000000000000000000000000000000000000000000000000
ymm4	256'0	0x0000000000000000000000000000000000000000000000000000000000000000
ymm5	256'0	0x0000000000000000000000000000000000000000000000000000000000000000
ymm6	256'0	0x0000000000000000000000000000000000000000000000000000000000000000
ymm7	256'0	0x0000000000000000000000000000000000000000000000000000000000000000
ymm8	256'0	0x0000000000000000000000000000000000000000000000000000000000000000
ymm9	256'0	0x0000000000000000000000000000000000000000000000000000000000000000
ymm10	256'0	0x0000000000000000000000000000000000000000000000000000000000000000
ymm11	256'0	0x0000000000000000000000000000000000000000000000000000000000000000
ymm12	256'0	0x0000000000000000000000000000000000000000000000000000000000000000
ymm13	256'0	0x0000000000000000000000000000000000000000000000000000000000000000
ymm14	256'0	0x0000000000000000000000000000000000000000000000000000000000000000
ymm15	256'0	0x0000000000000000000000000000000000000000000000000000000000000000

Count 65) reg	kstate	xstate		48 63 d0	movslq %eax,%rdx
---------------------
rax	64'0	0
rbx	64'0	0
rcx	64'0	0
rdx	64'0	0
rsi	64'0	0
rdi	64'0	1
rsp	ptr ( symloc ( 1 , 128 ) , 64'992 )	140737488345592
rbp	ptr ( symloc ( 1 , 128 ) , 64'1008 )	140737488345608
r8	64'0	0
r9	64'0	0
r10	64'0	0
r11	64'0	0
r12	64'0	0
r13	64'0	0
r14	64'0	0
r15	64'0	0
cf	1'0	0
pf	1'1	1
af	undefMInt	0
zf	1'1	1
sf	1'0	0
of	1'0	0
ymm0	256'0	0x0000000000000000000000000000000000000000000000007ff8000000000000
ymm1	256'0	0x0000000000000000000000000000000000000000000000007ff8000000000000
ymm2	256'0	0x0000000000000000000000000000000000000000000000000000000000000000
ymm3	256'0	0x0000000000000000000000000000000000000000000000000000000000000000
ymm4	256'0	0x0000000000000000000000000000000000000000000000000000000000000000
ymm5	256'0	0x0000000000000000000000000000000000000000000000000000000000000000
ymm6	256'0	0x0000000000000000000000000000000000000000000000000000000000000000
ymm7	256'0	0x0000000000000000000000000000000000000000000000000000000000000000
ymm8	256'0	0x0000000000000000000000000000000000000000000000000000000000000000
ymm9	256'0	0x0000000000000000000000000000000000000000000000000000000000000000
ymm10	256'0	0x0000000000000000000000000000000000000000000000000000000000000000
ymm11	256'0	0x0000000000000000000000000000000000000000000000000000000000000000
ymm12	256'0	0x0000000000000000000000000000000000000000000000000000000000000000
ymm13	256'0	0x0000000000000000000000000000000000000000000000000000000000000000
ymm14	256'0	0x0000000000000000000000000000000000000000000000000000000000000000
ymm15	256'0	0x0000000000000000000000000000000000000000000000000000000000000000

Count 66) reg	kstate	xstate		48 89 d0	mov    %rdx,%rax
---------------------
rax	64'0	0
rbx	64'0	0
rcx	64'0	0
rdx	64'0	0
rsi	64'0	0
rdi	64'0	1
rsp	ptr ( symloc ( 1 , 128 ) , 64'992 )	140737488345592
rbp	ptr ( symloc ( 1 , 128 ) , 64'1008 )	140737488345608
r8	64'0	0
r9	64'0	0
r10	64'0	0
r11	64'0	0
r12	64'0	0
r13	64'0	0
r14	64'0	0
r15	64'0	0
cf	1'0	0
pf	1'1	1
af	undefMInt	0
zf	1'1	1
sf	1'0	0
of	1'0	0
ymm0	256'0	0x0000000000000000000000000000000000000000000000007ff8000000000000
ymm1	256'0	0x0000000000000000000000000000000000000000000000007ff8000000000000
ymm2	256'0	0x0000000000000000000000000000000000000000000000000000000000000000
ymm3	256'0	0x0000000000000000000000000000000000000000000000000000000000000000
ymm4	256'0	0x0000000000000000000000000000000000000000000000000000000000000000
ymm5	256'0	0x0000000000000000000000000000000000000000000000000000000000000000
ymm6	256'0	0x0000000000000000000000000000000000000000000000000000000000000000
ymm7	256'0	0x0000000000000000000000000000000000000000000000000000000000000000
ymm8	256'0	0x0000000000000000000000000000000000000000000000000000000000000000
ymm9	256'0	0x0000000000000000000000000000000000000000000000000000000000000000
ymm10	256'0	0x0000000000000000000000000000000000000000000000000000000000000000
ymm11	256'0	0x0000000000000000000000000000000000000000000000000000000000000000
ymm12	256'0	0x0000000000000000000000000000000000000000000000000000000000000000
ymm13	256'0	0x0000000000000000000000000000000000000000000000000000000000000000
ymm14	256'0	0x0000000000000000000000000000000000000000000000000000000000000000
ymm15	256'0	0x0000000000000000000000000000000000000000000000000000000000000000

Count 67) reg	kstate	xstate		48 01 c0	add    %rax,%rax
---------------------
rax	64'0	0
rbx	64'0	0
rcx	64'0	0
rdx	64'0	0
rsi	64'0	0
rdi	64'0	1
rsp	ptr ( symloc ( 1 , 128 ) , 64'992 )	140737488345592
rbp	ptr ( symloc ( 1 , 128 ) , 64'1008 )	140737488345608
r8	64'0	0
r9	64'0	0
r10	64'0	0
r11	64'0	0
r12	64'0	0
r13	64'0	0
r14	64'0	0
r15	64'0	0
cf	1'0	0
pf	1'1	1
af	undefMInt	0
zf	1'1	1
sf	1'0	0
of	1'0	0
ymm0	256'0	0x0000000000000000000000000000000000000000000000007ff8000000000000
ymm1	256'0	0x0000000000000000000000000000000000000000000000007ff8000000000000
ymm2	256'0	0x0000000000000000000000000000000000000000000000000000000000000000
ymm3	256'0	0x0000000000000000000000000000000000000000000000000000000000000000
ymm4	256'0	0x0000000000000000000000000000000000000000000000000000000000000000
ymm5	256'0	0x0000000000000000000000000000000000000000000000000000000000000000
ymm6	256'0	0x0000000000000000000000000000000000000000000000000000000000000000
ymm7	256'0	0x0000000000000000000000000000000000000000000000000000000000000000
ymm8	256'0	0x0000000000000000000000000000000000000000000000000000000000000000
ymm9	256'0	0x0000000000000000000000000000000000000000000000000000000000000000
ymm10	256'0	0x0000000000000000000000000000000000000000000000000000000000000000
ymm11	256'0	0x0000000000000000000000000000000000000000000000000000000000000000
ymm12	256'0	0x0000000000000000000000000000000000000000000000000000000000000000
ymm13	256'0	0x0000000000000000000000000000000000000000000000000000000000000000
ymm14	256'0	0x0000000000000000000000000000000000000000000000000000000000000000
ymm15	256'0	0x0000000000000000000000000000000000000000000000000000000000000000

Count 68) reg	kstate	xstate		48 01 d0	add    %rdx,%rax
---------------------
rax	64'0	0
rbx	64'0	0
rcx	64'0	0
rdx	64'0	0
rsi	64'0	0
rdi	64'0	1
rsp	ptr ( symloc ( 1 , 128 ) , 64'992 )	140737488345592
rbp	ptr ( symloc ( 1 , 128 ) , 64'1008 )	140737488345608
r8	64'0	0
r9	64'0	0
r10	64'0	0
r11	64'0	0
r12	64'0	0
r13	64'0	0
r14	64'0	0
r15	64'0	0
cf	1'0	0
pf	1'1	1
af	1'0	0
zf	1'1	1
sf	1'0	0
of	1'0	0
ymm0	256'0	0x0000000000000000000000000000000000000000000000007ff8000000000000
ymm1	256'0	0x0000000000000000000000000000000000000000000000007ff8000000000000
ymm2	256'0	0x0000000000000000000000000000000000000000000000000000000000000000
ymm3	256'0	0x0000000000000000000000000000000000000000000000000000000000000000
ymm4	256'0	0x0000000000000000000000000000000000000000000000000000000000000000
ymm5	256'0	0x0000000000000000000000000000000000000000000000000000000000000000
ymm6	256'0	0x0000000000000000000000000000000000000000000000000000000000000000
ymm7	256'0	0x0000000000000000000000000000000000000000000000000000000000000000
ymm8	256'0	0x0000000000000000000000000000000000000000000000000000000000000000
ymm9	256'0	0x0000000000000000000000000000000000000000000000000000000000000000
ymm10	256'0	0x0000000000000000000000000000000000000000000000000000000000000000
ymm11	256'0	0x0000000000000000000000000000000000000000000000000000000000000000
ymm12	256'0	0x0000000000000000000000000000000000000000000000000000000000000000
ymm13	256'0	0x0000000000000000000000000000000000000000000000000000000000000000
ymm14	256'0	0x0000000000000000000000000000000000000000000000000000000000000000
ymm15	256'0	0x0000000000000000000000000000000000000000000000000000000000000000

Count 69) reg	kstate	xstate		48 c1 e0 03	shl    $0x3,%rax
---------------------
rax	64'0	0
rbx	64'0	0
rcx	64'0	0
rdx	64'0	0
rsi	64'0	0
rdi	64'0	1
rsp	ptr ( symloc ( 1 , 128 ) , 64'992 )	140737488345592
rbp	ptr ( symloc ( 1 , 128 ) , 64'1008 )	140737488345608
r8	64'0	0
r9	64'0	0
r10	64'0	0
r11	64'0	0
r12	64'0	0
r13	64'0	0
r14	64'0	0
r15	64'0	0
cf	1'0	0
pf	1'1	1
af	1'0	0
zf	1'1	1
sf	1'0	0
of	1'0	0
ymm0	256'0	0x0000000000000000000000000000000000000000000000007ff8000000000000
ymm1	256'0	0x0000000000000000000000000000000000000000000000007ff8000000000000
ymm2	256'0	0x0000000000000000000000000000000000000000000000000000000000000000
ymm3	256'0	0x0000000000000000000000000000000000000000000000000000000000000000
ymm4	256'0	0x0000000000000000000000000000000000000000000000000000000000000000
ymm5	256'0	0x0000000000000000000000000000000000000000000000000000000000000000
ymm6	256'0	0x0000000000000000000000000000000000000000000000000000000000000000
ymm7	256'0	0x0000000000000000000000000000000000000000000000000000000000000000
ymm8	256'0	0x0000000000000000000000000000000000000000000000000000000000000000
ymm9	256'0	0x0000000000000000000000000000000000000000000000000000000000000000
ymm10	256'0	0x0000000000000000000000000000000000000000000000000000000000000000
ymm11	256'0	0x0000000000000000000000000000000000000000000000000000000000000000
ymm12	256'0	0x0000000000000000000000000000000000000000000000000000000000000000
ymm13	256'0	0x0000000000000000000000000000000000000000000000000000000000000000
ymm14	256'0	0x0000000000000000000000000000000000000000000000000000000000000000
ymm15	256'0	0x0000000000000000000000000000000000000000000000000000000000000000

Count 70) reg	kstate	xstate		48 05 76 07 40 00	add    $0x400776,%rax
---------------------
rax	64'0	0
rbx	64'0	0
rcx	64'0	0
rdx	64'0	0
rsi	64'0	0
rdi	64'0	1
rsp	ptr ( symloc ( 1 , 128 ) , 64'992 )	140737488345592
rbp	ptr ( symloc ( 1 , 128 ) , 64'1008 )	140737488345608
r8	64'0	0
r9	64'0	0
r10	64'0	0
r11	64'0	0
r12	64'0	0
r13	64'0	0
r14	64'0	0
r15	64'0	0
cf	1'0	0
pf	1'1	1
af	#ifMInt undefBool #then 1'1 #else 1'0 #fi	0
zf	1'1	1
sf	1'0	0
of	#ifMInt undefBool #then 1'1 #else 1'0 #fi	0
ymm0	256'0	0x0000000000000000000000000000000000000000000000007ff8000000000000
ymm1	256'0	0x0000000000000000000000000000000000000000000000007ff8000000000000
ymm2	256'0	0x0000000000000000000000000000000000000000000000000000000000000000
ymm3	256'0	0x0000000000000000000000000000000000000000000000000000000000000000
ymm4	256'0	0x0000000000000000000000000000000000000000000000000000000000000000
ymm5	256'0	0x0000000000000000000000000000000000000000000000000000000000000000
ymm6	256'0	0x0000000000000000000000000000000000000000000000000000000000000000
ymm7	256'0	0x0000000000000000000000000000000000000000000000000000000000000000
ymm8	256'0	0x0000000000000000000000000000000000000000000000000000000000000000
ymm9	256'0	0x0000000000000000000000000000000000000000000000000000000000000000
ymm10	256'0	0x0000000000000000000000000000000000000000000000000000000000000000
ymm11	256'0	0x0000000000000000000000000000000000000000000000000000000000000000
ymm12	256'0	0x0000000000000000000000000000000000000000000000000000000000000000
ymm13	256'0	0x0000000000000000000000000000000000000000000000000000000000000000
ymm14	256'0	0x0000000000000000000000000000000000000000000000000000000000000000
ymm15	256'0	0x0000000000000000000000000000000000000000000000000000000000000000

Count 71) reg	kstate	xstate		c5 fb 10 00	vmovsd (%rax),%xmm0
---------------------
rax	ptr ( symloc ( 3 , 128 ) , 64'8 )	4196214
rbx	64'0	0
rcx	64'0	0
rdx	64'0	0
rsi	64'0	0
rdi	64'0	1
rsp	ptr ( symloc ( 1 , 128 ) , 64'992 )	140737488345592
rbp	ptr ( symloc ( 1 , 128 ) , 64'1008 )	140737488345608
r8	64'0	0
r9	64'0	0
r10	64'0	0
r11	64'0	0
r12	64'0	0
r13	64'0	0
r14	64'0	0
r15	64'0	0
cf	ptr ( symloc ( 3 , 128 ) , 1'0 )	0
pf	1'0	0
af	ptr ( symloc ( 3 , 128 ) , 1'0 )	0
zf	1'0	0
sf	ptr ( symloc ( 3 , 128 ) , 1'0 )	0
of	1'0	0
ymm0	256'0	0x0000000000000000000000000000000000000000000000007ff8000000000000
ymm1	256'0	0x0000000000000000000000000000000000000000000000007ff8000000000000
ymm2	256'0	0x0000000000000000000000000000000000000000000000000000000000000000
ymm3	256'0	0x0000000000000000000000000000000000000000000000000000000000000000
ymm4	256'0	0x0000000000000000000000000000000000000000000000000000000000000000
ymm5	256'0	0x0000000000000000000000000000000000000000000000000000000000000000
ymm6	256'0	0x0000000000000000000000000000000000000000000000000000000000000000
ymm7	256'0	0x0000000000000000000000000000000000000000000000000000000000000000
ymm8	256'0	0x0000000000000000000000000000000000000000000000000000000000000000
ymm9	256'0	0x0000000000000000000000000000000000000000000000000000000000000000
ymm10	256'0	0x0000000000000000000000000000000000000000000000000000000000000000
ymm11	256'0	0x0000000000000000000000000000000000000000000000000000000000000000
ymm12	256'0	0x0000000000000000000000000000000000000000000000000000000000000000
ymm13	256'0	0x0000000000000000000000000000000000000000000000000000000000000000
ymm14	256'0	0x0000000000000000000000000000000000000000000000000000000000000000
ymm15	256'0	0x0000000000000000000000000000000000000000000000000000000000000000

Count 72) reg	kstate	xstate		8b 45 f8	mov    -0x8(%rbp),%eax
---------------------
rax	ptr ( symloc ( 3 , 128 ) , 64'8 )	4196214
rbx	64'0	0
rcx	64'0	0
rdx	64'0	0
rsi	64'0	0
rdi	64'0	1
rsp	ptr ( symloc ( 1 , 128 ) , 64'992 )	140737488345592
rbp	ptr ( symloc ( 1 , 128 ) , 64'1008 )	140737488345608
r8	64'0	0
r9	64'0	0
r10	64'0	0
r11	64'0	0
r12	64'0	0
r13	64'0	0
r14	64'0	0
r15	64'0	0
cf	ptr ( symloc ( 3 , 128 ) , 1'0 )	0
pf	1'0	0
af	ptr ( symloc ( 3 , 128 ) , 1'0 )	0
zf	1'0	0
sf	ptr ( symloc ( 3 , 128 ) , 1'0 )	0
of	1'0	0
ymm0	256'0	0x0000000000000000000000000000000000000000000000007ff8000000000000
ymm1	256'0	0x0000000000000000000000000000000000000000000000007ff8000000000000
ymm2	256'0	0x0000000000000000000000000000000000000000000000000000000000000000
ymm3	256'0	0x0000000000000000000000000000000000000000000000000000000000000000
ymm4	256'0	0x0000000000000000000000000000000000000000000000000000000000000000
ymm5	256'0	0x0000000000000000000000000000000000000000000000000000000000000000
ymm6	256'0	0x0000000000000000000000000000000000000000000000000000000000000000
ymm7	256'0	0x0000000000000000000000000000000000000000000000000000000000000000
ymm8	256'0	0x0000000000000000000000000000000000000000000000000000000000000000
ymm9	256'0	0x0000000000000000000000000000000000000000000000000000000000000000
ymm10	256'0	0x0000000000000000000000000000000000000000000000000000000000000000
ymm11	256'0	0x0000000000000000000000000000000000000000000000000000000000000000
ymm12	256'0	0x0000000000000000000000000000000000000000000000000000000000000000
ymm13	256'0	0x0000000000000000000000000000000000000000000000000000000000000000
ymm14	256'0	0x0000000000000000000000000000000000000000000000000000000000000000
ymm15	256'0	0x0000000000000000000000000000000000000000000000000000000000000000

Count 73) reg	kstate	xstate		48 63 d0	movslq %eax,%rdx
---------------------
rax	64'0	0
rbx	64'0	0
rcx	64'0	0
rdx	64'0	0
rsi	64'0	0
rdi	64'0	1
rsp	ptr ( symloc ( 1 , 128 ) , 64'992 )	140737488345592
rbp	ptr ( symloc ( 1 , 128 ) , 64'1008 )	140737488345608
r8	64'0	0
r9	64'0	0
r10	64'0	0
r11	64'0	0
r12	64'0	0
r13	64'0	0
r14	64'0	0
r15	64'0	0
cf	ptr ( symloc ( 3 , 128 ) , 1'0 )	0
pf	1'0	0
af	ptr ( symloc ( 3 , 128 ) , 1'0 )	0
zf	1'0	0
sf	ptr ( symloc ( 3 , 128 ) , 1'0 )	0
of	1'0	0
ymm0	256'0	0x0000000000000000000000000000000000000000000000007ff8000000000000
ymm1	256'0	0x0000000000000000000000000000000000000000000000007ff8000000000000
ymm2	256'0	0x0000000000000000000000000000000000000000000000000000000000000000
ymm3	256'0	0x0000000000000000000000000000000000000000000000000000000000000000
ymm4	256'0	0x0000000000000000000000000000000000000000000000000000000000000000
ymm5	256'0	0x0000000000000000000000000000000000000000000000000000000000000000
ymm6	256'0	0x0000000000000000000000000000000000000000000000000000000000000000
ymm7	256'0	0x0000000000000000000000000000000000000000000000000000000000000000
ymm8	256'0	0x0000000000000000000000000000000000000000000000000000000000000000
ymm9	256'0	0x0000000000000000000000000000000000000000000000000000000000000000
ymm10	256'0	0x0000000000000000000000000000000000000000000000000000000000000000
ymm11	256'0	0x0000000000000000000000000000000000000000000000000000000000000000
ymm12	256'0	0x0000000000000000000000000000000000000000000000000000000000000000
ymm13	256'0	0x0000000000000000000000000000000000000000000000000000000000000000
ymm14	256'0	0x0000000000000000000000000000000000000000000000000000000000000000
ymm15	256'0	0x0000000000000000000000000000000000000000000000000000000000000000

Count 74) reg	kstate	xstate		48 89 d0	mov    %rdx,%rax
---------------------
rax	64'0	0
rbx	64'0	0
rcx	64'0	0
rdx	64'0	0
rsi	64'0	0
rdi	64'0	1
rsp	ptr ( symloc ( 1 , 128 ) , 64'992 )	140737488345592
rbp	ptr ( symloc ( 1 , 128 ) , 64'1008 )	140737488345608
r8	64'0	0
r9	64'0	0
r10	64'0	0
r11	64'0	0
r12	64'0	0
r13	64'0	0
r14	64'0	0
r15	64'0	0
cf	ptr ( symloc ( 3 , 128 ) , 1'0 )	0
pf	1'0	0
af	ptr ( symloc ( 3 , 128 ) , 1'0 )	0
zf	1'0	0
sf	ptr ( symloc ( 3 , 128 ) , 1'0 )	0
of	1'0	0
ymm0	256'0	0x0000000000000000000000000000000000000000000000007ff8000000000000
ymm1	256'0	0x0000000000000000000000000000000000000000000000007ff8000000000000
ymm2	256'0	0x0000000000000000000000000000000000000000000000000000000000000000
ymm3	256'0	0x0000000000000000000000000000000000000000000000000000000000000000
ymm4	256'0	0x0000000000000000000000000000000000000000000000000000000000000000
ymm5	256'0	0x0000000000000000000000000000000000000000000000000000000000000000
ymm6	256'0	0x0000000000000000000000000000000000000000000000000000000000000000
ymm7	256'0	0x0000000000000000000000000000000000000000000000000000000000000000
ymm8	256'0	0x0000000000000000000000000000000000000000000000000000000000000000
ymm9	256'0	0x0000000000000000000000000000000000000000000000000000000000000000
ymm10	256'0	0x0000000000000000000000000000000000000000000000000000000000000000
ymm11	256'0	0x0000000000000000000000000000000000000000000000000000000000000000
ymm12	256'0	0x0000000000000000000000000000000000000000000000000000000000000000
ymm13	256'0	0x0000000000000000000000000000000000000000000000000000000000000000
ymm14	256'0	0x0000000000000000000000000000000000000000000000000000000000000000
ymm15	256'0	0x0000000000000000000000000000000000000000000000000000000000000000

Count 75) reg	kstate	xstate		48 01 c0	add    %rax,%rax
---------------------
rax	64'0	0
rbx	64'0	0
rcx	64'0	0
rdx	64'0	0
rsi	64'0	0
rdi	64'0	1
rsp	ptr ( symloc ( 1 , 128 ) , 64'992 )	140737488345592
rbp	ptr ( symloc ( 1 , 128 ) , 64'1008 )	140737488345608
r8	64'0	0
r9	64'0	0
r10	64'0	0
r11	64'0	0
r12	64'0	0
r13	64'0	0
r14	64'0	0
r15	64'0	0
cf	ptr ( symloc ( 3 , 128 ) , 1'0 )	0
pf	1'0	0
af	ptr ( symloc ( 3 , 128 ) , 1'0 )	0
zf	1'0	0
sf	ptr ( symloc ( 3 , 128 ) , 1'0 )	0
of	1'0	0
ymm0	256'0	0x0000000000000000000000000000000000000000000000007ff8000000000000
ymm1	256'0	0x0000000000000000000000000000000000000000000000007ff8000000000000
ymm2	256'0	0x0000000000000000000000000000000000000000000000000000000000000000
ymm3	256'0	0x0000000000000000000000000000000000000000000000000000000000000000
ymm4	256'0	0x0000000000000000000000000000000000000000000000000000000000000000
ymm5	256'0	0x0000000000000000000000000000000000000000000000000000000000000000
ymm6	256'0	0x0000000000000000000000000000000000000000000000000000000000000000
ymm7	256'0	0x0000000000000000000000000000000000000000000000000000000000000000
ymm8	256'0	0x0000000000000000000000000000000000000000000000000000000000000000
ymm9	256'0	0x0000000000000000000000000000000000000000000000000000000000000000
ymm10	256'0	0x0000000000000000000000000000000000000000000000000000000000000000
ymm11	256'0	0x0000000000000000000000000000000000000000000000000000000000000000
ymm12	256'0	0x0000000000000000000000000000000000000000000000000000000000000000
ymm13	256'0	0x0000000000000000000000000000000000000000000000000000000000000000
ymm14	256'0	0x0000000000000000000000000000000000000000000000000000000000000000
ymm15	256'0	0x0000000000000000000000000000000000000000000000000000000000000000

Count 76) reg	kstate	xstate		48 01 d0	add    %rdx,%rax
---------------------
rax	64'0	0
rbx	64'0	0
rcx	64'0	0
rdx	64'0	0
rsi	64'0	0
rdi	64'0	1
rsp	ptr ( symloc ( 1 , 128 ) , 64'992 )	140737488345592
rbp	ptr ( symloc ( 1 , 128 ) , 64'1008 )	140737488345608
r8	64'0	0
r9	64'0	0
r10	64'0	0
r11	64'0	0
r12	64'0	0
r13	64'0	0
r14	64'0	0
r15	64'0	0
cf	1'0	0
pf	1'1	1
af	1'0	0
zf	1'1	1
sf	1'0	0
of	1'0	0
ymm0	256'0	0x0000000000000000000000000000000000000000000000007ff8000000000000
ymm1	256'0	0x0000000000000000000000000000000000000000000000007ff8000000000000
ymm2	256'0	0x0000000000000000000000000000000000000000000000000000000000000000
ymm3	256'0	0x0000000000000000000000000000000000000000000000000000000000000000
ymm4	256'0	0x0000000000000000000000000000000000000000000000000000000000000000
ymm5	256'0	0x0000000000000000000000000000000000000000000000000000000000000000
ymm6	256'0	0x0000000000000000000000000000000000000000000000000000000000000000
ymm7	256'0	0x0000000000000000000000000000000000000000000000000000000000000000
ymm8	256'0	0x0000000000000000000000000000000000000000000000000000000000000000
ymm9	256'0	0x0000000000000000000000000000000000000000000000000000000000000000
ymm10	256'0	0x0000000000000000000000000000000000000000000000000000000000000000
ymm11	256'0	0x0000000000000000000000000000000000000000000000000000000000000000
ymm12	256'0	0x0000000000000000000000000000000000000000000000000000000000000000
ymm13	256'0	0x0000000000000000000000000000000000000000000000000000000000000000
ymm14	256'0	0x0000000000000000000000000000000000000000000000000000000000000000
ymm15	256'0	0x0000000000000000000000000000000000000000000000000000000000000000

Count 77) reg	kstate	xstate		48 c1 e0 03	shl    $0x3,%rax
---------------------
rax	64'0	0
rbx	64'0	0
rcx	64'0	0
rdx	64'0	0
rsi	64'0	0
rdi	64'0	1
rsp	ptr ( symloc ( 1 , 128 ) , 64'992 )	140737488345592
rbp	ptr ( symloc ( 1 , 128 ) , 64'1008 )	140737488345608
r8	64'0	0
r9	64'0	0
r10	64'0	0
r11	64'0	0
r12	64'0	0
r13	64'0	0
r14	64'0	0
r15	64'0	0
cf	1'0	0
pf	1'1	1
af	1'0	0
zf	1'1	1
sf	1'0	0
of	1'0	0
ymm0	256'0	0x0000000000000000000000000000000000000000000000007ff8000000000000
ymm1	256'0	0x0000000000000000000000000000000000000000000000007ff8000000000000
ymm2	256'0	0x0000000000000000000000000000000000000000000000000000000000000000
ymm3	256'0	0x0000000000000000000000000000000000000000000000000000000000000000
ymm4	256'0	0x0000000000000000000000000000000000000000000000000000000000000000
ymm5	256'0	0x0000000000000000000000000000000000000000000000000000000000000000
ymm6	256'0	0x0000000000000000000000000000000000000000000000000000000000000000
ymm7	256'0	0x0000000000000000000000000000000000000000000000000000000000000000
ymm8	256'0	0x0000000000000000000000000000000000000000000000000000000000000000
ymm9	256'0	0x0000000000000000000000000000000000000000000000000000000000000000
ymm10	256'0	0x0000000000000000000000000000000000000000000000000000000000000000
ymm11	256'0	0x0000000000000000000000000000000000000000000000000000000000000000
ymm12	256'0	0x0000000000000000000000000000000000000000000000000000000000000000
ymm13	256'0	0x0000000000000000000000000000000000000000000000000000000000000000
ymm14	256'0	0x0000000000000000000000000000000000000000000000000000000000000000
ymm15	256'0	0x0000000000000000000000000000000000000000000000000000000000000000

Count 78) reg	kstate	xstate		48 05 6e 07 40 00	add    $0x40076e,%rax
---------------------
rax	64'0	0
rbx	64'0	0
rcx	64'0	0
rdx	64'0	0
rsi	64'0	0
rdi	64'0	1
rsp	ptr ( symloc ( 1 , 128 ) , 64'992 )	140737488345592
rbp	ptr ( symloc ( 1 , 128 ) , 64'1008 )	140737488345608
r8	64'0	0
r9	64'0	0
r10	64'0	0
r11	64'0	0
r12	64'0	0
r13	64'0	0
r14	64'0	0
r15	64'0	0
cf	1'0	0
pf	1'1	1
af	#ifMInt undefBool #then 1'1 #else 1'0 #fi	0
zf	1'1	1
sf	1'0	0
of	#ifMInt undefBool #then 1'1 #else 1'0 #fi	0
ymm0	256'0	0x0000000000000000000000000000000000000000000000007ff8000000000000
ymm1	256'0	0x0000000000000000000000000000000000000000000000007ff8000000000000
ymm2	256'0	0x0000000000000000000000000000000000000000000000000000000000000000
ymm3	256'0	0x0000000000000000000000000000000000000000000000000000000000000000
ymm4	256'0	0x0000000000000000000000000000000000000000000000000000000000000000
ymm5	256'0	0x0000000000000000000000000000000000000000000000000000000000000000
ymm6	256'0	0x0000000000000000000000000000000000000000000000000000000000000000
ymm7	256'0	0x0000000000000000000000000000000000000000000000000000000000000000
ymm8	256'0	0x0000000000000000000000000000000000000000000000000000000000000000
ymm9	256'0	0x0000000000000000000000000000000000000000000000000000000000000000
ymm10	256'0	0x0000000000000000000000000000000000000000000000000000000000000000
ymm11	256'0	0x0000000000000000000000000000000000000000000000000000000000000000
ymm12	256'0	0x0000000000000000000000000000000000000000000000000000000000000000
ymm13	256'0	0x0000000000000000000000000000000000000000000000000000000000000000
ymm14	256'0	0x0000000000000000000000000000000000000000000000000000000000000000
ymm15	256'0	0x0000000000000000000000000000000000000000000000000000000000000000

Count 79) reg	kstate	xstate		48 8b 00	mov    (%rax),%rax
---------------------
rax	ptr ( symloc ( 3 , 128 ) , 64'0 )	4196206
rbx	64'0	0
rcx	64'0	0
rdx	64'0	0
rsi	64'0	0
rdi	64'0	1
rsp	ptr ( symloc ( 1 , 128 ) , 64'992 )	140737488345592
rbp	ptr ( symloc ( 1 , 128 ) , 64'1008 )	140737488345608
r8	64'0	0
r9	64'0	0
r10	64'0	0
r11	64'0	0
r12	64'0	0
r13	64'0	0
r14	64'0	0
r15	64'0	0
cf	ptr ( symloc ( 3 , 128 ) , 1'0 )	0
pf	1'1	0
af	ptr ( symloc ( 3 , 128 ) , 1'0 )	0
zf	1'1	0
sf	ptr ( symloc ( 3 , 128 ) , 1'0 )	0
of	1'0	0
ymm0	256'0	0x0000000000000000000000000000000000000000000000007ff8000000000000
ymm1	256'0	0x0000000000000000000000000000000000000000000000007ff8000000000000
ymm2	256'0	0x0000000000000000000000000000000000000000000000000000000000000000
ymm3	256'0	0x0000000000000000000000000000000000000000000000000000000000000000
ymm4	256'0	0x0000000000000000000000000000000000000000000000000000000000000000
ymm5	256'0	0x0000000000000000000000000000000000000000000000000000000000000000
ymm6	256'0	0x0000000000000000000000000000000000000000000000000000000000000000
ymm7	256'0	0x0000000000000000000000000000000000000000000000000000000000000000
ymm8	256'0	0x0000000000000000000000000000000000000000000000000000000000000000
ymm9	256'0	0x0000000000000000000000000000000000000000000000000000000000000000
ymm10	256'0	0x0000000000000000000000000000000000000000000000000000000000000000
ymm11	256'0	0x0000000000000000000000000000000000000000000000000000000000000000
ymm12	256'0	0x0000000000000000000000000000000000000000000000000000000000000000
ymm13	256'0	0x0000000000000000000000000000000000000000000000000000000000000000
ymm14	256'0	0x0000000000000000000000000000000000000000000000000000000000000000
ymm15	256'0	0x0000000000000000000000000000000000000000000000000000000000000000

Count 80) reg	kstate	xstate		89 cf	mov    %ecx,%edi
---------------------
rax	64'0	9221120237041090560
rbx	64'0	0
rcx	64'0	0
rdx	64'0	0
rsi	64'0	0
rdi	64'0	1
rsp	ptr ( symloc ( 1 , 128 ) , 64'992 )	140737488345592
rbp	ptr ( symloc ( 1 , 128 ) , 64'1008 )	140737488345608
r8	64'0	0
r9	64'0	0
r10	64'0	0
r11	64'0	0
r12	64'0	0
r13	64'0	0
r14	64'0	0
r15	64'0	0
cf	ptr ( symloc ( 3 , 128 ) , 1'0 )	0
pf	1'1	0
af	ptr ( symloc ( 3 , 128 ) , 1'0 )	0
zf	1'1	0
sf	ptr ( symloc ( 3 , 128 ) , 1'0 )	0
of	1'0	0
ymm0	256'0	0x0000000000000000000000000000000000000000000000007ff8000000000000
ymm1	256'0	0x0000000000000000000000000000000000000000000000007ff8000000000000
ymm2	256'0	0x0000000000000000000000000000000000000000000000000000000000000000
ymm3	256'0	0x0000000000000000000000000000000000000000000000000000000000000000
ymm4	256'0	0x0000000000000000000000000000000000000000000000000000000000000000
ymm5	256'0	0x0000000000000000000000000000000000000000000000000000000000000000
ymm6	256'0	0x0000000000000000000000000000000000000000000000000000000000000000
ymm7	256'0	0x0000000000000000000000000000000000000000000000000000000000000000
ymm8	256'0	0x0000000000000000000000000000000000000000000000000000000000000000
ymm9	256'0	0x0000000000000000000000000000000000000000000000000000000000000000
ymm10	256'0	0x0000000000000000000000000000000000000000000000000000000000000000
ymm11	256'0	0x0000000000000000000000000000000000000000000000000000000000000000
ymm12	256'0	0x0000000000000000000000000000000000000000000000000000000000000000
ymm13	256'0	0x0000000000000000000000000000000000000000000000000000000000000000
ymm14	256'0	0x0000000000000000000000000000000000000000000000000000000000000000
ymm15	256'0	0x0000000000000000000000000000000000000000000000000000000000000000

Count 81) reg	kstate	xstate		c5 f9 28 c8	vmovapd %xmm0,%xmm1
---------------------
rax	64'0	9221120237041090560
rbx	64'0	0
rcx	64'0	0
rdx	64'0	0
rsi	64'0	0
rdi	64'0	0
rsp	ptr ( symloc ( 1 , 128 ) , 64'992 )	140737488345592
rbp	ptr ( symloc ( 1 , 128 ) , 64'1008 )	140737488345608
r8	64'0	0
r9	64'0	0
r10	64'0	0
r11	64'0	0
r12	64'0	0
r13	64'0	0
r14	64'0	0
r15	64'0	0
cf	ptr ( symloc ( 3 , 128 ) , 1'0 )	0
pf	1'1	0
af	ptr ( symloc ( 3 , 128 ) , 1'0 )	0
zf	1'1	0
sf	ptr ( symloc ( 3 , 128 ) , 1'0 )	0
of	1'0	0
ymm0	256'0	0x0000000000000000000000000000000000000000000000007ff8000000000000
ymm1	256'0	0x0000000000000000000000000000000000000000000000007ff8000000000000
ymm2	256'0	0x0000000000000000000000000000000000000000000000000000000000000000
ymm3	256'0	0x0000000000000000000000000000000000000000000000000000000000000000
ymm4	256'0	0x0000000000000000000000000000000000000000000000000000000000000000
ymm5	256'0	0x0000000000000000000000000000000000000000000000000000000000000000
ymm6	256'0	0x0000000000000000000000000000000000000000000000000000000000000000
ymm7	256'0	0x0000000000000000000000000000000000000000000000000000000000000000
ymm8	256'0	0x0000000000000000000000000000000000000000000000000000000000000000
ymm9	256'0	0x0000000000000000000000000000000000000000000000000000000000000000
ymm10	256'0	0x0000000000000000000000000000000000000000000000000000000000000000
ymm11	256'0	0x0000000000000000000000000000000000000000000000000000000000000000
ymm12	256'0	0x0000000000000000000000000000000000000000000000000000000000000000
ymm13	256'0	0x0000000000000000000000000000000000000000000000000000000000000000
ymm14	256'0	0x0000000000000000000000000000000000000000000000000000000000000000
ymm15	256'0	0x0000000000000000000000000000000000000000000000000000000000000000

Count 82) reg	kstate	xstate		c4 e1 f9 6e c0	vmovq  %rax,%xmm0
---------------------
rax	64'0	9221120237041090560
rbx	64'0	0
rcx	64'0	0
rdx	64'0	0
rsi	64'0	0
rdi	64'0	0
rsp	ptr ( symloc ( 1 , 128 ) , 64'992 )	140737488345592
rbp	ptr ( symloc ( 1 , 128 ) , 64'1008 )	140737488345608
r8	64'0	0
r9	64'0	0
r10	64'0	0
r11	64'0	0
r12	64'0	0
r13	64'0	0
r14	64'0	0
r15	64'0	0
cf	ptr ( symloc ( 3 , 128 ) , 1'0 )	0
pf	1'1	0
af	ptr ( symloc ( 3 , 128 ) , 1'0 )	0
zf	1'1	0
sf	ptr ( symloc ( 3 , 128 ) , 1'0 )	0
of	1'0	0
ymm0	256'0	0x0000000000000000000000000000000000000000000000007ff8000000000000
ymm1	256'0	0x0000000000000000000000000000000000000000000000007ff8000000000000
ymm2	256'0	0x0000000000000000000000000000000000000000000000000000000000000000
ymm3	256'0	0x0000000000000000000000000000000000000000000000000000000000000000
ymm4	256'0	0x0000000000000000000000000000000000000000000000000000000000000000
ymm5	256'0	0x0000000000000000000000000000000000000000000000000000000000000000
ymm6	256'0	0x0000000000000000000000000000000000000000000000000000000000000000
ymm7	256'0	0x0000000000000000000000000000000000000000000000000000000000000000
ymm8	256'0	0x0000000000000000000000000000000000000000000000000000000000000000
ymm9	256'0	0x0000000000000000000000000000000000000000000000000000000000000000
ymm10	256'0	0x0000000000000000000000000000000000000000000000000000000000000000
ymm11	256'0	0x0000000000000000000000000000000000000000000000000000000000000000
ymm12	256'0	0x0000000000000000000000000000000000000000000000000000000000000000
ymm13	256'0	0x0000000000000000000000000000000000000000000000000000000000000000
ymm14	256'0	0x0000000000000000000000000000000000000000000000000000000000000000
ymm15	256'0	0x0000000000000000000000000000000000000000000000000000000000000000

Count 83) reg	kstate	xstate		e8 c1 fd ff ff	callq  0x400359 <test_isless>
---------------------
rax	64'0	9221120237041090560
rbx	64'0	0
rcx	64'0	0
rdx	64'0	0
rsi	64'0	0
rdi	64'0	0
rsp	ptr ( symloc ( 1 , 128 ) , 64'992 )	140737488345592
rbp	ptr ( symloc ( 1 , 128 ) , 64'1008 )	140737488345608
r8	64'0	0
r9	64'0	0
r10	64'0	0
r11	64'0	0
r12	64'0	0
r13	64'0	0
r14	64'0	0
r15	64'0	0
cf	ptr ( symloc ( 3 , 128 ) , 1'0 )	0
pf	1'1	0
af	ptr ( symloc ( 3 , 128 ) , 1'0 )	0
zf	1'1	0
sf	ptr ( symloc ( 3 , 128 ) , 1'0 )	0
of	1'0	0
ymm0	256'0	0x0000000000000000000000000000000000000000000000007ff8000000000000
ymm1	256'0	0x0000000000000000000000000000000000000000000000007ff8000000000000
ymm2	256'0	0x0000000000000000000000000000000000000000000000000000000000000000
ymm3	256'0	0x0000000000000000000000000000000000000000000000000000000000000000
ymm4	256'0	0x0000000000000000000000000000000000000000000000000000000000000000
ymm5	256'0	0x0000000000000000000000000000000000000000000000000000000000000000
ymm6	256'0	0x0000000000000000000000000000000000000000000000000000000000000000
ymm7	256'0	0x0000000000000000000000000000000000000000000000000000000000000000
ymm8	256'0	0x0000000000000000000000000000000000000000000000000000000000000000
ymm9	256'0	0x0000000000000000000000000000000000000000000000000000000000000000
ymm10	256'0	0x0000000000000000000000000000000000000000000000000000000000000000
ymm11	256'0	0x0000000000000000000000000000000000000000000000000000000000000000
ymm12	256'0	0x0000000000000000000000000000000000000000000000000000000000000000
ymm13	256'0	0x0000000000000000000000000000000000000000000000000000000000000000
ymm14	256'0	0x0000000000000000000000000000000000000000000000000000000000000000
ymm15	256'0	0x0000000000000000000000000000000000000000000000000000000000000000

Count 84) reg	kstate	xstate		55	push   %rbp
---------------------
rax	64'0	9221120237041090560
rbx	64'0	0
rcx	64'0	0
rdx	64'0	0
rsi	64'0	0
rdi	64'0	0
rsp	ptr ( symloc ( 1 , 128 ) , 64'984 )	140737488345584
rbp	ptr ( symloc ( 1 , 128 ) , 64'1008 )	140737488345608
r8	64'0	0
r9	64'0	0
r10	64'0	0
r11	64'0	0
r12	64'0	0
r13	64'0	0
r14	64'0	0
r15	64'0	0
cf	ptr ( symloc ( 3 , 128 ) , 1'0 )	0
pf	1'1	0
af	ptr ( symloc ( 3 , 128 ) , 1'0 )	0
zf	1'1	0
sf	ptr ( symloc ( 3 , 128 ) , 1'0 )	0
of	1'0	0
ymm0	256'0	0x0000000000000000000000000000000000000000000000007ff8000000000000
ymm1	256'0	0x0000000000000000000000000000000000000000000000007ff8000000000000
ymm2	256'0	0x0000000000000000000000000000000000000000000000000000000000000000
ymm3	256'0	0x0000000000000000000000000000000000000000000000000000000000000000
ymm4	256'0	0x0000000000000000000000000000000000000000000000000000000000000000
ymm5	256'0	0x0000000000000000000000000000000000000000000000000000000000000000
ymm6	256'0	0x0000000000000000000000000000000000000000000000000000000000000000
ymm7	256'0	0x0000000000000000000000000000000000000000000000000000000000000000
ymm8	256'0	0x0000000000000000000000000000000000000000000000000000000000000000
ymm9	256'0	0x0000000000000000000000000000000000000000000000000000000000000000
ymm10	256'0	0x0000000000000000000000000000000000000000000000000000000000000000
ymm11	256'0	0x0000000000000000000000000000000000000000000000000000000000000000
ymm12	256'0	0x0000000000000000000000000000000000000000000000000000000000000000
ymm13	256'0	0x0000000000000000000000000000000000000000000000000000000000000000
ymm14	256'0	0x0000000000000000000000000000000000000000000000000000000000000000
ymm15	256'0	0x0000000000000000000000000000000000000000000000000000000000000000

Count 85) reg	kstate	xstate		48 89 e5	mov    %rsp,%rbp
---------------------
rax	64'0	9221120237041090560
rbx	64'0	0
rcx	64'0	0
rdx	64'0	0
rsi	64'0	0
rdi	64'0	0
rsp	ptr ( symloc ( 1 , 128 ) , 64'976 )	140737488345576
rbp	ptr ( symloc ( 1 , 128 ) , 64'1008 )	140737488345608
r8	64'0	0
r9	64'0	0
r10	64'0	0
r11	64'0	0
r12	64'0	0
r13	64'0	0
r14	64'0	0
r15	64'0	0
cf	ptr ( symloc ( 3 , 128 ) , 1'0 )	0
pf	1'1	0
af	ptr ( symloc ( 3 , 128 ) , 1'0 )	0
zf	1'1	0
sf	ptr ( symloc ( 3 , 128 ) , 1'0 )	0
of	1'0	0
ymm0	256'0	0x0000000000000000000000000000000000000000000000007ff8000000000000
ymm1	256'0	0x0000000000000000000000000000000000000000000000007ff8000000000000
ymm2	256'0	0x0000000000000000000000000000000000000000000000000000000000000000
ymm3	256'0	0x0000000000000000000000000000000000000000000000000000000000000000
ymm4	256'0	0x0000000000000000000000000000000000000000000000000000000000000000
ymm5	256'0	0x0000000000000000000000000000000000000000000000000000000000000000
ymm6	256'0	0x0000000000000000000000000000000000000000000000000000000000000000
ymm7	256'0	0x0000000000000000000000000000000000000000000000000000000000000000
ymm8	256'0	0x0000000000000000000000000000000000000000000000000000000000000000
ymm9	256'0	0x0000000000000000000000000000000000000000000000000000000000000000
ymm10	256'0	0x0000000000000000000000000000000000000000000000000000000000000000
ymm11	256'0	0x0000000000000000000000000000000000000000000000000000000000000000
ymm12	256'0	0x0000000000000000000000000000000000000000000000000000000000000000
ymm13	256'0	0x0000000000000000000000000000000000000000000000000000000000000000
ymm14	256'0	0x0000000000000000000000000000000000000000000000000000000000000000
ymm15	256'0	0x0000000000000000000000000000000000000000000000000000000000000000

Count 86) reg	kstate	xstate		48 83 ec 18	sub    $0x18,%rsp
---------------------
rax	64'0	9221120237041090560
rbx	64'0	0
rcx	64'0	0
rdx	64'0	0
rsi	64'0	0
rdi	64'0	0
rsp	ptr ( symloc ( 1 , 128 ) , 64'976 )	140737488345576
rbp	ptr ( symloc ( 1 , 128 ) , 64'976 )	140737488345576
r8	64'0	0
r9	64'0	0
r10	64'0	0
r11	64'0	0
r12	64'0	0
r13	64'0	0
r14	64'0	0
r15	64'0	0
cf	ptr ( symloc ( 3 , 128 ) , 1'0 )	0
pf	1'1	0
af	ptr ( symloc ( 3 , 128 ) , 1'0 )	0
zf	1'1	0
sf	ptr ( symloc ( 3 , 128 ) , 1'0 )	0
of	1'0	0
ymm0	256'0	0x0000000000000000000000000000000000000000000000007ff8000000000000
ymm1	256'0	0x0000000000000000000000000000000000000000000000007ff8000000000000
ymm2	256'0	0x0000000000000000000000000000000000000000000000000000000000000000
ymm3	256'0	0x0000000000000000000000000000000000000000000000000000000000000000
ymm4	256'0	0x0000000000000000000000000000000000000000000000000000000000000000
ymm5	256'0	0x0000000000000000000000000000000000000000000000000000000000000000
ymm6	256'0	0x0000000000000000000000000000000000000000000000000000000000000000
ymm7	256'0	0x0000000000000000000000000000000000000000000000000000000000000000
ymm8	256'0	0x0000000000000000000000000000000000000000000000000000000000000000
ymm9	256'0	0x0000000000000000000000000000000000000000000000000000000000000000
ymm10	256'0	0x0000000000000000000000000000000000000000000000000000000000000000
ymm11	256'0	0x0000000000000000000000000000000000000000000000000000000000000000
ymm12	256'0	0x0000000000000000000000000000000000000000000000000000000000000000
ymm13	256'0	0x0000000000000000000000000000000000000000000000000000000000000000
ymm14	256'0	0x0000000000000000000000000000000000000000000000000000000000000000
ymm15	256'0	0x0000000000000000000000000000000000000000000000000000000000000000

Count 87) reg	kstate	xstate		c5 fb 11 45 f8	vmovsd %xmm0,-0x8(%rbp)
---------------------
rax	64'0	9221120237041090560
rbx	64'0	0
rcx	64'0	0
rdx	64'0	0
rsi	64'0	0
rdi	64'0	0
rsp	ptr ( symloc ( 1 , 128 ) , 64'952 )	140737488345552
rbp	ptr ( symloc ( 1 , 128 ) , 64'976 )	140737488345576
r8	64'0	0
r9	64'0	0
r10	64'0	0
r11	64'0	0
r12	64'0	0
r13	64'0	0
r14	64'0	0
r15	64'0	0
cf	1'0	0
pf	1'1	0
af	ptr ( symloc ( 1 , 128 ) , 1'1 )	0
zf	1'0	0
sf	ptr ( symloc ( 1 , 128 ) , 1'0 )	0
of	1'0	0
ymm0	256'0	0x0000000000000000000000000000000000000000000000007ff8000000000000
ymm1	256'0	0x0000000000000000000000000000000000000000000000007ff8000000000000
ymm2	256'0	0x0000000000000000000000000000000000000000000000000000000000000000
ymm3	256'0	0x0000000000000000000000000000000000000000000000000000000000000000
ymm4	256'0	0x0000000000000000000000000000000000000000000000000000000000000000
ymm5	256'0	0x0000000000000000000000000000000000000000000000000000000000000000
ymm6	256'0	0x0000000000000000000000000000000000000000000000000000000000000000
ymm7	256'0	0x0000000000000000000000000000000000000000000000000000000000000000
ymm8	256'0	0x0000000000000000000000000000000000000000000000000000000000000000
ymm9	256'0	0x0000000000000000000000000000000000000000000000000000000000000000
ymm10	256'0	0x0000000000000000000000000000000000000000000000000000000000000000
ymm11	256'0	0x0000000000000000000000000000000000000000000000000000000000000000
ymm12	256'0	0x0000000000000000000000000000000000000000000000000000000000000000
ymm13	256'0	0x0000000000000000000000000000000000000000000000000000000000000000
ymm14	256'0	0x0000000000000000000000000000000000000000000000000000000000000000
ymm15	256'0	0x0000000000000000000000000000000000000000000000000000000000000000

Count 88) reg	kstate	xstate		c5 fb 11 4d f0	vmovsd %xmm1,-0x10(%rbp)
---------------------
rax	64'0	9221120237041090560
rbx	64'0	0
rcx	64'0	0
rdx	64'0	0
rsi	64'0	0
rdi	64'0	0
rsp	ptr ( symloc ( 1 , 128 ) , 64'952 )	140737488345552
rbp	ptr ( symloc ( 1 , 128 ) , 64'976 )	140737488345576
r8	64'0	0
r9	64'0	0
r10	64'0	0
r11	64'0	0
r12	64'0	0
r13	64'0	0
r14	64'0	0
r15	64'0	0
cf	1'0	0
pf	1'1	0
af	ptr ( symloc ( 1 , 128 ) , 1'1 )	0
zf	1'0	0
sf	ptr ( symloc ( 1 , 128 ) , 1'0 )	0
of	1'0	0
ymm0	256'0	0x0000000000000000000000000000000000000000000000007ff8000000000000
ymm1	256'0	0x0000000000000000000000000000000000000000000000007ff8000000000000
ymm2	256'0	0x0000000000000000000000000000000000000000000000000000000000000000
ymm3	256'0	0x0000000000000000000000000000000000000000000000000000000000000000
ymm4	256'0	0x0000000000000000000000000000000000000000000000000000000000000000
ymm5	256'0	0x0000000000000000000000000000000000000000000000000000000000000000
ymm6	256'0	0x0000000000000000000000000000000000000000000000000000000000000000
ymm7	256'0	0x0000000000000000000000000000000000000000000000000000000000000000
ymm8	256'0	0x0000000000000000000000000000000000000000000000000000000000000000
ymm9	256'0	0x0000000000000000000000000000000000000000000000000000000000000000
ymm10	256'0	0x0000000000000000000000000000000000000000000000000000000000000000
ymm11	256'0	0x0000000000000000000000000000000000000000000000000000000000000000
ymm12	256'0	0x0000000000000000000000000000000000000000000000000000000000000000
ymm13	256'0	0x0000000000000000000000000000000000000000000000000000000000000000
ymm14	256'0	0x0000000000000000000000000000000000000000000000000000000000000000
ymm15	256'0	0x0000000000000000000000000000000000000000000000000000000000000000

Count 89) reg	kstate	xstate		89 7d ec	mov    %edi,-0x14(%rbp)
---------------------
rax	64'0	9221120237041090560
rbx	64'0	0
rcx	64'0	0
rdx	64'0	0
rsi	64'0	0
rdi	64'0	0
rsp	ptr ( symloc ( 1 , 128 ) , 64'952 )	140737488345552
rbp	ptr ( symloc ( 1 , 128 ) , 64'976 )	140737488345576
r8	64'0	0
r9	64'0	0
r10	64'0	0
r11	64'0	0
r12	64'0	0
r13	64'0	0
r14	64'0	0
r15	64'0	0
cf	1'0	0
pf	1'1	0
af	ptr ( symloc ( 1 , 128 ) , 1'1 )	0
zf	1'0	0
sf	ptr ( symloc ( 1 , 128 ) , 1'0 )	0
of	1'0	0
ymm0	256'0	0x0000000000000000000000000000000000000000000000007ff8000000000000
ymm1	256'0	0x0000000000000000000000000000000000000000000000007ff8000000000000
ymm2	256'0	0x0000000000000000000000000000000000000000000000000000000000000000
ymm3	256'0	0x0000000000000000000000000000000000000000000000000000000000000000
ymm4	256'0	0x0000000000000000000000000000000000000000000000000000000000000000
ymm5	256'0	0x0000000000000000000000000000000000000000000000000000000000000000
ymm6	256'0	0x0000000000000000000000000000000000000000000000000000000000000000
ymm7	256'0	0x0000000000000000000000000000000000000000000000000000000000000000
ymm8	256'0	0x0000000000000000000000000000000000000000000000000000000000000000
ymm9	256'0	0x0000000000000000000000000000000000000000000000000000000000000000
ymm10	256'0	0x0000000000000000000000000000000000000000000000000000000000000000
ymm11	256'0	0x0000000000000000000000000000000000000000000000000000000000000000
ymm12	256'0	0x0000000000000000000000000000000000000000000000000000000000000000
ymm13	256'0	0x0000000000000000000000000000000000000000000000000000000000000000
ymm14	256'0	0x0000000000000000000000000000000000000000000000000000000000000000
ymm15	256'0	0x0000000000000000000000000000000000000000000000000000000000000000

Count 90) reg	kstate	xstate		c5 fb 10 45 f0	vmovsd -0x10(%rbp),%xmm0
---------------------
rax	64'0	9221120237041090560
rbx	64'0	0
rcx	64'0	0
rdx	64'0	0
rsi	64'0	0
rdi	64'0	0
rsp	ptr ( symloc ( 1 , 128 ) , 64'952 )	140737488345552
rbp	ptr ( symloc ( 1 , 128 ) , 64'976 )	140737488345576
r8	64'0	0
r9	64'0	0
r10	64'0	0
r11	64'0	0
r12	64'0	0
r13	64'0	0
r14	64'0	0
r15	64'0	0
cf	1'0	0
pf	1'1	0
af	ptr ( symloc ( 1 , 128 ) , 1'1 )	0
zf	1'0	0
sf	ptr ( symloc ( 1 , 128 ) , 1'0 )	0
of	1'0	0
ymm0	256'0	0x0000000000000000000000000000000000000000000000007ff8000000000000
ymm1	256'0	0x0000000000000000000000000000000000000000000000007ff8000000000000
ymm2	256'0	0x0000000000000000000000000000000000000000000000000000000000000000
ymm3	256'0	0x0000000000000000000000000000000000000000000000000000000000000000
ymm4	256'0	0x0000000000000000000000000000000000000000000000000000000000000000
ymm5	256'0	0x0000000000000000000000000000000000000000000000000000000000000000
ymm6	256'0	0x0000000000000000000000000000000000000000000000000000000000000000
ymm7	256'0	0x0000000000000000000000000000000000000000000000000000000000000000
ymm8	256'0	0x0000000000000000000000000000000000000000000000000000000000000000
ymm9	256'0	0x0000000000000000000000000000000000000000000000000000000000000000
ymm10	256'0	0x0000000000000000000000000000000000000000000000000000000000000000
ymm11	256'0	0x0000000000000000000000000000000000000000000000000000000000000000
ymm12	256'0	0x0000000000000000000000000000000000000000000000000000000000000000
ymm13	256'0	0x0000000000000000000000000000000000000000000000000000000000000000
ymm14	256'0	0x0000000000000000000000000000000000000000000000000000000000000000
ymm15	256'0	0x0000000000000000000000000000000000000000000000000000000000000000

Count 91) reg	kstate	xstate		c5 f9 2e 45 f8	vucomisd -0x8(%rbp),%xmm0
---------------------
rax	64'0	9221120237041090560
rbx	64'0	0
rcx	64'0	0
rdx	64'0	0
rsi	64'0	0
rdi	64'0	0
rsp	ptr ( symloc ( 1 , 128 ) , 64'952 )	140737488345552
rbp	ptr ( symloc ( 1 , 128 ) , 64'976 )	140737488345576
r8	64'0	0
r9	64'0	0
r10	64'0	0
r11	64'0	0
r12	64'0	0
r13	64'0	0
r14	64'0	0
r15	64'0	0
cf	1'0	0
pf	1'1	0
af	ptr ( symloc ( 1 , 128 ) , 1'1 )	0
zf	1'0	0
sf	ptr ( symloc ( 1 , 128 ) , 1'0 )	0
of	1'0	0
ymm0	256'0	0x0000000000000000000000000000000000000000000000007ff8000000000000
ymm1	256'0	0x0000000000000000000000000000000000000000000000007ff8000000000000
ymm2	256'0	0x0000000000000000000000000000000000000000000000000000000000000000
ymm3	256'0	0x0000000000000000000000000000000000000000000000000000000000000000
ymm4	256'0	0x0000000000000000000000000000000000000000000000000000000000000000
ymm5	256'0	0x0000000000000000000000000000000000000000000000000000000000000000
ymm6	256'0	0x0000000000000000000000000000000000000000000000000000000000000000
ymm7	256'0	0x0000000000000000000000000000000000000000000000000000000000000000
ymm8	256'0	0x0000000000000000000000000000000000000000000000000000000000000000
ymm9	256'0	0x0000000000000000000000000000000000000000000000000000000000000000
ymm10	256'0	0x0000000000000000000000000000000000000000000000000000000000000000
ymm11	256'0	0x0000000000000000000000000000000000000000000000000000000000000000
ymm12	256'0	0x0000000000000000000000000000000000000000000000000000000000000000
ymm13	256'0	0x0000000000000000000000000000000000000000000000000000000000000000
ymm14	256'0	0x0000000000000000000000000000000000000000000000000000000000000000
ymm15	256'0	0x0000000000000000000000000000000000000000000000000000000000000000

Count 92) reg	kstate	xstate		0f 96 c0	setbe  %al
---------------------
rax	64'0	9221120237041090560
rbx	64'0	0
rcx	64'0	0
rdx	64'0	0
rsi	64'0	0
rdi	64'0	0
rsp	ptr ( symloc ( 1 , 128 ) , 64'952 )	140737488345552
rbp	ptr ( symloc ( 1 , 128 ) , 64'976 )	140737488345576
r8	64'0	0
r9	64'0	0
r10	64'0	0
r11	64'0	0
r12	64'0	0
r13	64'0	0
r14	64'0	0
r15	64'0	0
cf	1'0	1
pf	1'0	1
af	1'0	0
zf	1'1	1
sf	1'0	0
of	1'0	0
ymm0	256'0	0x0000000000000000000000000000000000000000000000007ff8000000000000
ymm1	256'0	0x0000000000000000000000000000000000000000000000007ff8000000000000
ymm2	256'0	0x0000000000000000000000000000000000000000000000000000000000000000
ymm3	256'0	0x0000000000000000000000000000000000000000000000000000000000000000
ymm4	256'0	0x0000000000000000000000000000000000000000000000000000000000000000
ymm5	256'0	0x0000000000000000000000000000000000000000000000000000000000000000
ymm6	256'0	0x0000000000000000000000000000000000000000000000000000000000000000
ymm7	256'0	0x0000000000000000000000000000000000000000000000000000000000000000
ymm8	256'0	0x0000000000000000000000000000000000000000000000000000000000000000
ymm9	256'0	0x0000000000000000000000000000000000000000000000000000000000000000
ymm10	256'0	0x0000000000000000000000000000000000000000000000000000000000000000
ymm11	256'0	0x0000000000000000000000000000000000000000000000000000000000000000
ymm12	256'0	0x0000000000000000000000000000000000000000000000000000000000000000
ymm13	256'0	0x0000000000000000000000000000000000000000000000000000000000000000
ymm14	256'0	0x0000000000000000000000000000000000000000000000000000000000000000
ymm15	256'0	0x0000000000000000000000000000000000000000000000000000000000000000

Count 93) reg	kstate	xstate		83 f0 01	xor    $0x1,%eax
---------------------
rax	64'1	9221120237041090561
rbx	64'0	0
rcx	64'0	0
rdx	64'0	0
rsi	64'0	0
rdi	64'0	0
rsp	ptr ( symloc ( 1 , 128 ) , 64'952 )	140737488345552
rbp	ptr ( symloc ( 1 , 128 ) , 64'976 )	140737488345576
r8	64'0	0
r9	64'0	0
r10	64'0	0
r11	64'0	0
r12	64'0	0
r13	64'0	0
r14	64'0	0
r15	64'0	0
cf	1'0	1
pf	1'0	1
af	1'0	0
zf	1'1	1
sf	1'0	0
of	1'0	0
ymm0	256'0	0x0000000000000000000000000000000000000000000000007ff8000000000000
ymm1	256'0	0x0000000000000000000000000000000000000000000000007ff8000000000000
ymm2	256'0	0x0000000000000000000000000000000000000000000000000000000000000000
ymm3	256'0	0x0000000000000000000000000000000000000000000000000000000000000000
ymm4	256'0	0x0000000000000000000000000000000000000000000000000000000000000000
ymm5	256'0	0x0000000000000000000000000000000000000000000000000000000000000000
ymm6	256'0	0x0000000000000000000000000000000000000000000000000000000000000000
ymm7	256'0	0x0000000000000000000000000000000000000000000000000000000000000000
ymm8	256'0	0x0000000000000000000000000000000000000000000000000000000000000000
ymm9	256'0	0x0000000000000000000000000000000000000000000000000000000000000000
ymm10	256'0	0x0000000000000000000000000000000000000000000000000000000000000000
ymm11	256'0	0x0000000000000000000000000000000000000000000000000000000000000000
ymm12	256'0	0x0000000000000000000000000000000000000000000000000000000000000000
ymm13	256'0	0x0000000000000000000000000000000000000000000000000000000000000000
ymm14	256'0	0x0000000000000000000000000000000000000000000000000000000000000000
ymm15	256'0	0x0000000000000000000000000000000000000000000000000000000000000000

Count 94) reg	kstate	xstate		84 c0	test   %al,%al
---------------------
rax	64'0	0
rbx	64'0	0
rcx	64'0	0
rdx	64'0	0
rsi	64'0	0
rdi	64'0	0
rsp	ptr ( symloc ( 1 , 128 ) , 64'952 )	140737488345552
rbp	ptr ( symloc ( 1 , 128 ) , 64'976 )	140737488345576
r8	64'0	0
r9	64'0	0
r10	64'0	0
r11	64'0	0
r12	64'0	0
r13	64'0	0
r14	64'0	0
r15	64'0	0
cf	1'0	0
pf	1'1	1
af	undefMInt	0
zf	1'1	1
sf	1'0	0
of	1'0	0
ymm0	256'0	0x0000000000000000000000000000000000000000000000007ff8000000000000
ymm1	256'0	0x0000000000000000000000000000000000000000000000007ff8000000000000
ymm2	256'0	0x0000000000000000000000000000000000000000000000000000000000000000
ymm3	256'0	0x0000000000000000000000000000000000000000000000000000000000000000
ymm4	256'0	0x0000000000000000000000000000000000000000000000000000000000000000
ymm5	256'0	0x0000000000000000000000000000000000000000000000000000000000000000
ymm6	256'0	0x0000000000000000000000000000000000000000000000000000000000000000
ymm7	256'0	0x0000000000000000000000000000000000000000000000000000000000000000
ymm8	256'0	0x0000000000000000000000000000000000000000000000000000000000000000
ymm9	256'0	0x0000000000000000000000000000000000000000000000000000000000000000
ymm10	256'0	0x0000000000000000000000000000000000000000000000000000000000000000
ymm11	256'0	0x0000000000000000000000000000000000000000000000000000000000000000
ymm12	256'0	0x0000000000000000000000000000000000000000000000000000000000000000
ymm13	256'0	0x0000000000000000000000000000000000000000000000000000000000000000
ymm14	256'0	0x0000000000000000000000000000000000000000000000000000000000000000
ymm15	256'0	0x0000000000000000000000000000000000000000000000000000000000000000

Count 95) reg	kstate	xstate		74 0b	je     0x40038d <L50>
---------------------
rax	64'0	0
rbx	64'0	0
rcx	64'0	0
rdx	64'0	0
rsi	64'0	0
rdi	64'0	0
rsp	ptr ( symloc ( 1 , 128 ) , 64'952 )	140737488345552
rbp	ptr ( symloc ( 1 , 128 ) , 64'976 )	140737488345576
r8	64'0	0
r9	64'0	0
r10	64'0	0
r11	64'0	0
r12	64'0	0
r13	64'0	0
r14	64'0	0
r15	64'0	0
cf	1'0	0
pf	1'1	1
af	undefMInt	0
zf	1'1	1
sf	1'0	0
of	1'0	0
ymm0	256'0	0x0000000000000000000000000000000000000000000000007ff8000000000000
ymm1	256'0	0x0000000000000000000000000000000000000000000000007ff8000000000000
ymm2	256'0	0x0000000000000000000000000000000000000000000000000000000000000000
ymm3	256'0	0x0000000000000000000000000000000000000000000000000000000000000000
ymm4	256'0	0x0000000000000000000000000000000000000000000000000000000000000000
ymm5	256'0	0x0000000000000000000000000000000000000000000000000000000000000000
ymm6	256'0	0x0000000000000000000000000000000000000000000000000000000000000000
ymm7	256'0	0x0000000000000000000000000000000000000000000000000000000000000000
ymm8	256'0	0x0000000000000000000000000000000000000000000000000000000000000000
ymm9	256'0	0x0000000000000000000000000000000000000000000000000000000000000000
ymm10	256'0	0x0000000000000000000000000000000000000000000000000000000000000000
ymm11	256'0	0x0000000000000000000000000000000000000000000000000000000000000000
ymm12	256'0	0x0000000000000000000000000000000000000000000000000000000000000000
ymm13	256'0	0x0000000000000000000000000000000000000000000000000000000000000000
ymm14	256'0	0x0000000000000000000000000000000000000000000000000000000000000000
ymm15	256'0	0x0000000000000000000000000000000000000000000000000000000000000000

Count 96) reg	kstate	xstate		83 7d ec 00	cmpl   $0x0,-0x14(%rbp)
---------------------
rax	64'0	0
rbx	64'0	0
rcx	64'0	0
rdx	64'0	0
rsi	64'0	0
rdi	64'0	0
rsp	ptr ( symloc ( 1 , 128 ) , 64'952 )	140737488345552
rbp	ptr ( symloc ( 1 , 128 ) , 64'976 )	140737488345576
r8	64'0	0
r9	64'0	0
r10	64'0	0
r11	64'0	0
r12	64'0	0
r13	64'0	0
r14	64'0	0
r15	64'0	0
cf	1'0	0
pf	1'1	1
af	undefMInt	0
zf	1'1	1
sf	1'0	0
of	1'0	0
ymm0	256'0	0x0000000000000000000000000000000000000000000000007ff8000000000000
ymm1	256'0	0x0000000000000000000000000000000000000000000000007ff8000000000000
ymm2	256'0	0x0000000000000000000000000000000000000000000000000000000000000000
ymm3	256'0	0x0000000000000000000000000000000000000000000000000000000000000000
ymm4	256'0	0x0000000000000000000000000000000000000000000000000000000000000000
ymm5	256'0	0x0000000000000000000000000000000000000000000000000000000000000000
ymm6	256'0	0x0000000000000000000000000000000000000000000000000000000000000000
ymm7	256'0	0x0000000000000000000000000000000000000000000000000000000000000000
ymm8	256'0	0x0000000000000000000000000000000000000000000000000000000000000000
ymm9	256'0	0x0000000000000000000000000000000000000000000000000000000000000000
ymm10	256'0	0x0000000000000000000000000000000000000000000000000000000000000000
ymm11	256'0	0x0000000000000000000000000000000000000000000000000000000000000000
ymm12	256'0	0x0000000000000000000000000000000000000000000000000000000000000000
ymm13	256'0	0x0000000000000000000000000000000000000000000000000000000000000000
ymm14	256'0	0x0000000000000000000000000000000000000000000000000000000000000000
ymm15	256'0	0x0000000000000000000000000000000000000000000000000000000000000000

Count 97) reg	kstate	xstate		74 05	je     0x400398 <L52>
---------------------
rax	64'0	0
rbx	64'0	0
rcx	64'0	0
rdx	64'0	0
rsi	64'0	0
rdi	64'0	0
rsp	ptr ( symloc ( 1 , 128 ) , 64'952 )	140737488345552
rbp	ptr ( symloc ( 1 , 128 ) , 64'976 )	140737488345576
r8	64'0	0
r9	64'0	0
r10	64'0	0
r11	64'0	0
r12	64'0	0
r13	64'0	0
r14	64'0	0
r15	64'0	0
cf	1'0	0
pf	1'1	1
af	1'0	0
zf	1'1	1
sf	1'0	0
of	1'0	0
ymm0	256'0	0x0000000000000000000000000000000000000000000000007ff8000000000000
ymm1	256'0	0x0000000000000000000000000000000000000000000000007ff8000000000000
ymm2	256'0	0x0000000000000000000000000000000000000000000000000000000000000000
ymm3	256'0	0x0000000000000000000000000000000000000000000000000000000000000000
ymm4	256'0	0x0000000000000000000000000000000000000000000000000000000000000000
ymm5	256'0	0x0000000000000000000000000000000000000000000000000000000000000000
ymm6	256'0	0x0000000000000000000000000000000000000000000000000000000000000000
ymm7	256'0	0x0000000000000000000000000000000000000000000000000000000000000000
ymm8	256'0	0x0000000000000000000000000000000000000000000000000000000000000000
ymm9	256'0	0x0000000000000000000000000000000000000000000000000000000000000000
ymm10	256'0	0x0000000000000000000000000000000000000000000000000000000000000000
ymm11	256'0	0x0000000000000000000000000000000000000000000000000000000000000000
ymm12	256'0	0x0000000000000000000000000000000000000000000000000000000000000000
ymm13	256'0	0x0000000000000000000000000000000000000000000000000000000000000000
ymm14	256'0	0x0000000000000000000000000000000000000000000000000000000000000000
ymm15	256'0	0x0000000000000000000000000000000000000000000000000000000000000000

Count 98) reg	kstate	xstate		90	nop
---------------------
rax	64'0	0
rbx	64'0	0
rcx	64'0	0
rdx	64'0	0
rsi	64'0	0
rdi	64'0	0
rsp	ptr ( symloc ( 1 , 128 ) , 64'952 )	140737488345552
rbp	ptr ( symloc ( 1 , 128 ) , 64'976 )	140737488345576
r8	64'0	0
r9	64'0	0
r10	64'0	0
r11	64'0	0
r12	64'0	0
r13	64'0	0
r14	64'0	0
r15	64'0	0
cf	1'0	0
pf	1'1	1
af	1'0	0
zf	1'1	1
sf	1'0	0
of	1'0	0
ymm0	256'0	0x0000000000000000000000000000000000000000000000007ff8000000000000
ymm1	256'0	0x0000000000000000000000000000000000000000000000007ff8000000000000
ymm2	256'0	0x0000000000000000000000000000000000000000000000000000000000000000
ymm3	256'0	0x0000000000000000000000000000000000000000000000000000000000000000
ymm4	256'0	0x0000000000000000000000000000000000000000000000000000000000000000
ymm5	256'0	0x0000000000000000000000000000000000000000000000000000000000000000
ymm6	256'0	0x0000000000000000000000000000000000000000000000000000000000000000
ymm7	256'0	0x0000000000000000000000000000000000000000000000000000000000000000
ymm8	256'0	0x0000000000000000000000000000000000000000000000000000000000000000
ymm9	256'0	0x0000000000000000000000000000000000000000000000000000000000000000
ymm10	256'0	0x0000000000000000000000000000000000000000000000000000000000000000
ymm11	256'0	0x0000000000000000000000000000000000000000000000000000000000000000
ymm12	256'0	0x0000000000000000000000000000000000000000000000000000000000000000
ymm13	256'0	0x0000000000000000000000000000000000000000000000000000000000000000
ymm14	256'0	0x0000000000000000000000000000000000000000000000000000000000000000
ymm15	256'0	0x0000000000000000000000000000000000000000000000000000000000000000

Count 99) reg	kstate	xstate		c9	leaveq 
---------------------
rax	64'0	0
rbx	64'0	0
rcx	64'0	0
rdx	64'0	0
rsi	64'0	0
rdi	64'0	0
rsp	ptr ( symloc ( 1 , 128 ) , 64'952 )	140737488345552
rbp	ptr ( symloc ( 1 , 128 ) , 64'976 )	140737488345576
r8	64'0	0
r9	64'0	0
r10	64'0	0
r11	64'0	0
r12	64'0	0
r13	64'0	0
r14	64'0	0
r15	64'0	0
cf	1'0	0
pf	1'1	1
af	1'0	0
zf	1'1	1
sf	1'0	0
of	1'0	0
ymm0	256'0	0x0000000000000000000000000000000000000000000000007ff8000000000000
ymm1	256'0	0x0000000000000000000000000000000000000000000000007ff8000000000000
ymm2	256'0	0x0000000000000000000000000000000000000000000000000000000000000000
ymm3	256'0	0x0000000000000000000000000000000000000000000000000000000000000000
ymm4	256'0	0x0000000000000000000000000000000000000000000000000000000000000000
ymm5	256'0	0x0000000000000000000000000000000000000000000000000000000000000000
ymm6	256'0	0x0000000000000000000000000000000000000000000000000000000000000000
ymm7	256'0	0x0000000000000000000000000000000000000000000000000000000000000000
ymm8	256'0	0x0000000000000000000000000000000000000000000000000000000000000000
ymm9	256'0	0x0000000000000000000000000000000000000000000000000000000000000000
ymm10	256'0	0x0000000000000000000000000000000000000000000000000000000000000000
ymm11	256'0	0x0000000000000000000000000000000000000000000000000000000000000000
ymm12	256'0	0x0000000000000000000000000000000000000000000000000000000000000000
ymm13	256'0	0x0000000000000000000000000000000000000000000000000000000000000000
ymm14	256'0	0x0000000000000000000000000000000000000000000000000000000000000000
ymm15	256'0	0x0000000000000000000000000000000000000000000000000000000000000000

Count 100) reg	kstate	xstate		c3	retq   
---------------------
rax	64'0	0
rbx	64'0	0
rcx	64'0	0
rdx	64'0	0
rsi	64'0	0
rdi	64'0	0
rsp	ptr ( symloc ( 1 , 128 ) , 64'984 )	140737488345584
rbp	ptr ( symloc ( 1 , 128 ) , 64'1008 )	140737488345608
r8	64'0	0
r9	64'0	0
r10	64'0	0
r11	64'0	0
r12	64'0	0
r13	64'0	0
r14	64'0	0
r15	64'0	0
cf	1'0	0
pf	1'1	1
af	1'0	0
zf	1'1	1
sf	1'0	0
of	1'0	0
ymm0	256'0	0x0000000000000000000000000000000000000000000000007ff8000000000000
ymm1	256'0	0x0000000000000000000000000000000000000000000000007ff8000000000000
ymm2	256'0	0x0000000000000000000000000000000000000000000000000000000000000000
ymm3	256'0	0x0000000000000000000000000000000000000000000000000000000000000000
ymm4	256'0	0x0000000000000000000000000000000000000000000000000000000000000000
ymm5	256'0	0x0000000000000000000000000000000000000000000000000000000000000000
ymm6	256'0	0x0000000000000000000000000000000000000000000000000000000000000000
ymm7	256'0	0x0000000000000000000000000000000000000000000000000000000000000000
ymm8	256'0	0x0000000000000000000000000000000000000000000000000000000000000000
ymm9	256'0	0x0000000000000000000000000000000000000000000000000000000000000000
ymm10	256'0	0x0000000000000000000000000000000000000000000000000000000000000000
ymm11	256'0	0x0000000000000000000000000000000000000000000000000000000000000000
ymm12	256'0	0x0000000000000000000000000000000000000000000000000000000000000000
ymm13	256'0	0x0000000000000000000000000000000000000000000000000000000000000000
ymm14	256'0	0x0000000000000000000000000000000000000000000000000000000000000000
ymm15	256'0	0x0000000000000000000000000000000000000000000000000000000000000000

Count 101) reg	kstate	xstate		8b 45 f8	mov    -0x8(%rbp),%eax
---------------------
rax	64'0	0
rbx	64'0	0
rcx	64'0	0
rdx	64'0	0
rsi	64'0	0
rdi	64'0	0
rsp	ptr ( symloc ( 1 , 128 ) , 64'992 )	140737488345592
rbp	ptr ( symloc ( 1 , 128 ) , 64'1008 )	140737488345608
r8	64'0	0
r9	64'0	0
r10	64'0	0
r11	64'0	0
r12	64'0	0
r13	64'0	0
r14	64'0	0
r15	64'0	0
cf	1'0	0
pf	1'1	1
af	1'0	0
zf	1'1	1
sf	1'0	0
of	1'0	0
ymm0	256'0	0x0000000000000000000000000000000000000000000000007ff8000000000000
ymm1	256'0	0x0000000000000000000000000000000000000000000000007ff8000000000000
ymm2	256'0	0x0000000000000000000000000000000000000000000000000000000000000000
ymm3	256'0	0x0000000000000000000000000000000000000000000000000000000000000000
ymm4	256'0	0x0000000000000000000000000000000000000000000000000000000000000000
ymm5	256'0	0x0000000000000000000000000000000000000000000000000000000000000000
ymm6	256'0	0x0000000000000000000000000000000000000000000000000000000000000000
ymm7	256'0	0x0000000000000000000000000000000000000000000000000000000000000000
ymm8	256'0	0x0000000000000000000000000000000000000000000000000000000000000000
ymm9	256'0	0x0000000000000000000000000000000000000000000000000000000000000000
ymm10	256'0	0x0000000000000000000000000000000000000000000000000000000000000000
ymm11	256'0	0x0000000000000000000000000000000000000000000000000000000000000000
ymm12	256'0	0x0000000000000000000000000000000000000000000000000000000000000000
ymm13	256'0	0x0000000000000000000000000000000000000000000000000000000000000000
ymm14	256'0	0x0000000000000000000000000000000000000000000000000000000000000000
ymm15	256'0	0x0000000000000000000000000000000000000000000000000000000000000000

Count 102) reg	kstate	xstate		48 63 d0	movslq %eax,%rdx
---------------------
rax	64'0	0
rbx	64'0	0
rcx	64'0	0
rdx	64'0	0
rsi	64'0	0
rdi	64'0	0
rsp	ptr ( symloc ( 1 , 128 ) , 64'992 )	140737488345592
rbp	ptr ( symloc ( 1 , 128 ) , 64'1008 )	140737488345608
r8	64'0	0
r9	64'0	0
r10	64'0	0
r11	64'0	0
r12	64'0	0
r13	64'0	0
r14	64'0	0
r15	64'0	0
cf	1'0	0
pf	1'1	1
af	1'0	0
zf	1'1	1
sf	1'0	0
of	1'0	0
ymm0	256'0	0x0000000000000000000000000000000000000000000000007ff8000000000000
ymm1	256'0	0x0000000000000000000000000000000000000000000000007ff8000000000000
ymm2	256'0	0x0000000000000000000000000000000000000000000000000000000000000000
ymm3	256'0	0x0000000000000000000000000000000000000000000000000000000000000000
ymm4	256'0	0x0000000000000000000000000000000000000000000000000000000000000000
ymm5	256'0	0x0000000000000000000000000000000000000000000000000000000000000000
ymm6	256'0	0x0000000000000000000000000000000000000000000000000000000000000000
ymm7	256'0	0x0000000000000000000000000000000000000000000000000000000000000000
ymm8	256'0	0x0000000000000000000000000000000000000000000000000000000000000000
ymm9	256'0	0x0000000000000000000000000000000000000000000000000000000000000000
ymm10	256'0	0x0000000000000000000000000000000000000000000000000000000000000000
ymm11	256'0	0x0000000000000000000000000000000000000000000000000000000000000000
ymm12	256'0	0x0000000000000000000000000000000000000000000000000000000000000000
ymm13	256'0	0x0000000000000000000000000000000000000000000000000000000000000000
ymm14	256'0	0x0000000000000000000000000000000000000000000000000000000000000000
ymm15	256'0	0x0000000000000000000000000000000000000000000000000000000000000000

Count 103) reg	kstate	xstate		48 89 d0	mov    %rdx,%rax
---------------------
rax	64'0	0
rbx	64'0	0
rcx	64'0	0
rdx	64'0	0
rsi	64'0	0
rdi	64'0	0
rsp	ptr ( symloc ( 1 , 128 ) , 64'992 )	140737488345592
rbp	ptr ( symloc ( 1 , 128 ) , 64'1008 )	140737488345608
r8	64'0	0
r9	64'0	0
r10	64'0	0
r11	64'0	0
r12	64'0	0
r13	64'0	0
r14	64'0	0
r15	64'0	0
cf	1'0	0
pf	1'1	1
af	1'0	0
zf	1'1	1
sf	1'0	0
of	1'0	0
ymm0	256'0	0x0000000000000000000000000000000000000000000000007ff8000000000000
ymm1	256'0	0x0000000000000000000000000000000000000000000000007ff8000000000000
ymm2	256'0	0x0000000000000000000000000000000000000000000000000000000000000000
ymm3	256'0	0x0000000000000000000000000000000000000000000000000000000000000000
ymm4	256'0	0x0000000000000000000000000000000000000000000000000000000000000000
ymm5	256'0	0x0000000000000000000000000000000000000000000000000000000000000000
ymm6	256'0	0x0000000000000000000000000000000000000000000000000000000000000000
ymm7	256'0	0x0000000000000000000000000000000000000000000000000000000000000000
ymm8	256'0	0x0000000000000000000000000000000000000000000000000000000000000000
ymm9	256'0	0x0000000000000000000000000000000000000000000000000000000000000000
ymm10	256'0	0x0000000000000000000000000000000000000000000000000000000000000000
ymm11	256'0	0x0000000000000000000000000000000000000000000000000000000000000000
ymm12	256'0	0x0000000000000000000000000000000000000000000000000000000000000000
ymm13	256'0	0x0000000000000000000000000000000000000000000000000000000000000000
ymm14	256'0	0x0000000000000000000000000000000000000000000000000000000000000000
ymm15	256'0	0x0000000000000000000000000000000000000000000000000000000000000000

Count 104) reg	kstate	xstate		48 01 c0	add    %rax,%rax
---------------------
rax	64'0	0
rbx	64'0	0
rcx	64'0	0
rdx	64'0	0
rsi	64'0	0
rdi	64'0	0
rsp	ptr ( symloc ( 1 , 128 ) , 64'992 )	140737488345592
rbp	ptr ( symloc ( 1 , 128 ) , 64'1008 )	140737488345608
r8	64'0	0
r9	64'0	0
r10	64'0	0
r11	64'0	0
r12	64'0	0
r13	64'0	0
r14	64'0	0
r15	64'0	0
cf	1'0	0
pf	1'1	1
af	1'0	0
zf	1'1	1
sf	1'0	0
of	1'0	0
ymm0	256'0	0x0000000000000000000000000000000000000000000000007ff8000000000000
ymm1	256'0	0x0000000000000000000000000000000000000000000000007ff8000000000000
ymm2	256'0	0x0000000000000000000000000000000000000000000000000000000000000000
ymm3	256'0	0x0000000000000000000000000000000000000000000000000000000000000000
ymm4	256'0	0x0000000000000000000000000000000000000000000000000000000000000000
ymm5	256'0	0x0000000000000000000000000000000000000000000000000000000000000000
ymm6	256'0	0x0000000000000000000000000000000000000000000000000000000000000000
ymm7	256'0	0x0000000000000000000000000000000000000000000000000000000000000000
ymm8	256'0	0x0000000000000000000000000000000000000000000000000000000000000000
ymm9	256'0	0x0000000000000000000000000000000000000000000000000000000000000000
ymm10	256'0	0x0000000000000000000000000000000000000000000000000000000000000000
ymm11	256'0	0x0000000000000000000000000000000000000000000000000000000000000000
ymm12	256'0	0x0000000000000000000000000000000000000000000000000000000000000000
ymm13	256'0	0x0000000000000000000000000000000000000000000000000000000000000000
ymm14	256'0	0x0000000000000000000000000000000000000000000000000000000000000000
ymm15	256'0	0x0000000000000000000000000000000000000000000000000000000000000000

Count 105) reg	kstate	xstate		48 01 d0	add    %rdx,%rax
---------------------
rax	64'0	0
rbx	64'0	0
rcx	64'0	0
rdx	64'0	0
rsi	64'0	0
rdi	64'0	0
rsp	ptr ( symloc ( 1 , 128 ) , 64'992 )	140737488345592
rbp	ptr ( symloc ( 1 , 128 ) , 64'1008 )	140737488345608
r8	64'0	0
r9	64'0	0
r10	64'0	0
r11	64'0	0
r12	64'0	0
r13	64'0	0
r14	64'0	0
r15	64'0	0
cf	1'0	0
pf	1'1	1
af	1'0	0
zf	1'1	1
sf	1'0	0
of	1'0	0
ymm0	256'0	0x0000000000000000000000000000000000000000000000007ff8000000000000
ymm1	256'0	0x0000000000000000000000000000000000000000000000007ff8000000000000
ymm2	256'0	0x0000000000000000000000000000000000000000000000000000000000000000
ymm3	256'0	0x0000000000000000000000000000000000000000000000000000000000000000
ymm4	256'0	0x0000000000000000000000000000000000000000000000000000000000000000
ymm5	256'0	0x0000000000000000000000000000000000000000000000000000000000000000
ymm6	256'0	0x0000000000000000000000000000000000000000000000000000000000000000
ymm7	256'0	0x0000000000000000000000000000000000000000000000000000000000000000
ymm8	256'0	0x0000000000000000000000000000000000000000000000000000000000000000
ymm9	256'0	0x0000000000000000000000000000000000000000000000000000000000000000
ymm10	256'0	0x0000000000000000000000000000000000000000000000000000000000000000
ymm11	256'0	0x0000000000000000000000000000000000000000000000000000000000000000
ymm12	256'0	0x0000000000000000000000000000000000000000000000000000000000000000
ymm13	256'0	0x0000000000000000000000000000000000000000000000000000000000000000
ymm14	256'0	0x0000000000000000000000000000000000000000000000000000000000000000
ymm15	256'0	0x0000000000000000000000000000000000000000000000000000000000000000

Count 106) reg	kstate	xstate		48 c1 e0 03	shl    $0x3,%rax
---------------------
rax	64'0	0
rbx	64'0	0
rcx	64'0	0
rdx	64'0	0
rsi	64'0	0
rdi	64'0	0
rsp	ptr ( symloc ( 1 , 128 ) , 64'992 )	140737488345592
rbp	ptr ( symloc ( 1 , 128 ) , 64'1008 )	140737488345608
r8	64'0	0
r9	64'0	0
r10	64'0	0
r11	64'0	0
r12	64'0	0
r13	64'0	0
r14	64'0	0
r15	64'0	0
cf	1'0	0
pf	1'1	1
af	1'0	0
zf	1'1	1
sf	1'0	0
of	1'0	0
ymm0	256'0	0x0000000000000000000000000000000000000000000000007ff8000000000000
ymm1	256'0	0x0000000000000000000000000000000000000000000000007ff8000000000000
ymm2	256'0	0x0000000000000000000000000000000000000000000000000000000000000000
ymm3	256'0	0x0000000000000000000000000000000000000000000000000000000000000000
ymm4	256'0	0x0000000000000000000000000000000000000000000000000000000000000000
ymm5	256'0	0x0000000000000000000000000000000000000000000000000000000000000000
ymm6	256'0	0x0000000000000000000000000000000000000000000000000000000000000000
ymm7	256'0	0x0000000000000000000000000000000000000000000000000000000000000000
ymm8	256'0	0x0000000000000000000000000000000000000000000000000000000000000000
ymm9	256'0	0x0000000000000000000000000000000000000000000000000000000000000000
ymm10	256'0	0x0000000000000000000000000000000000000000000000000000000000000000
ymm11	256'0	0x0000000000000000000000000000000000000000000000000000000000000000
ymm12	256'0	0x0000000000000000000000000000000000000000000000000000000000000000
ymm13	256'0	0x0000000000000000000000000000000000000000000000000000000000000000
ymm14	256'0	0x0000000000000000000000000000000000000000000000000000000000000000
ymm15	256'0	0x0000000000000000000000000000000000000000000000000000000000000000

Count 107) reg	kstate	xstate		48 05 6e 07 40 00	add    $0x40076e,%rax
---------------------
rax	64'0	0
rbx	64'0	0
rcx	64'0	0
rdx	64'0	0
rsi	64'0	0
rdi	64'0	0
rsp	ptr ( symloc ( 1 , 128 ) , 64'992 )	140737488345592
rbp	ptr ( symloc ( 1 , 128 ) , 64'1008 )	140737488345608
r8	64'0	0
r9	64'0	0
r10	64'0	0
r11	64'0	0
r12	64'0	0
r13	64'0	0
r14	64'0	0
r15	64'0	0
cf	1'0	0
pf	1'1	1
af	#ifMInt undefBool #then 1'1 #else 1'0 #fi	0
zf	1'1	1
sf	1'0	0
of	#ifMInt undefBool #then 1'1 #else 1'0 #fi	0
ymm0	256'0	0x0000000000000000000000000000000000000000000000007ff8000000000000
ymm1	256'0	0x0000000000000000000000000000000000000000000000007ff8000000000000
ymm2	256'0	0x0000000000000000000000000000000000000000000000000000000000000000
ymm3	256'0	0x0000000000000000000000000000000000000000000000000000000000000000
ymm4	256'0	0x0000000000000000000000000000000000000000000000000000000000000000
ymm5	256'0	0x0000000000000000000000000000000000000000000000000000000000000000
ymm6	256'0	0x0000000000000000000000000000000000000000000000000000000000000000
ymm7	256'0	0x0000000000000000000000000000000000000000000000000000000000000000
ymm8	256'0	0x0000000000000000000000000000000000000000000000000000000000000000
ymm9	256'0	0x0000000000000000000000000000000000000000000000000000000000000000
ymm10	256'0	0x0000000000000000000000000000000000000000000000000000000000000000
ymm11	256'0	0x0000000000000000000000000000000000000000000000000000000000000000
ymm12	256'0	0x0000000000000000000000000000000000000000000000000000000000000000
ymm13	256'0	0x0000000000000000000000000000000000000000000000000000000000000000
ymm14	256'0	0x0000000000000000000000000000000000000000000000000000000000000000
ymm15	256'0	0x0000000000000000000000000000000000000000000000000000000000000000

Count 108) reg	kstate	xstate		0f b6 40 10	movzbl 0x10(%rax),%eax
---------------------
rax	ptr ( symloc ( 3 , 128 ) , 64'0 )	4196206
rbx	64'0	0
rcx	64'0	0
rdx	64'0	0
rsi	64'0	0
rdi	64'0	0
rsp	ptr ( symloc ( 1 , 128 ) , 64'992 )	140737488345592
rbp	ptr ( symloc ( 1 , 128 ) , 64'1008 )	140737488345608
r8	64'0	0
r9	64'0	0
r10	64'0	0
r11	64'0	0
r12	64'0	0
r13	64'0	0
r14	64'0	0
r15	64'0	0
cf	ptr ( symloc ( 3 , 128 ) , 1'0 )	0
pf	1'1	0
af	ptr ( symloc ( 3 , 128 ) , 1'0 )	0
zf	1'1	0
sf	ptr ( symloc ( 3 , 128 ) , 1'0 )	0
of	1'0	0
ymm0	256'0	0x0000000000000000000000000000000000000000000000007ff8000000000000
ymm1	256'0	0x0000000000000000000000000000000000000000000000007ff8000000000000
ymm2	256'0	0x0000000000000000000000000000000000000000000000000000000000000000
ymm3	256'0	0x0000000000000000000000000000000000000000000000000000000000000000
ymm4	256'0	0x0000000000000000000000000000000000000000000000000000000000000000
ymm5	256'0	0x0000000000000000000000000000000000000000000000000000000000000000
ymm6	256'0	0x0000000000000000000000000000000000000000000000000000000000000000
ymm7	256'0	0x0000000000000000000000000000000000000000000000000000000000000000
ymm8	256'0	0x0000000000000000000000000000000000000000000000000000000000000000
ymm9	256'0	0x0000000000000000000000000000000000000000000000000000000000000000
ymm10	256'0	0x0000000000000000000000000000000000000000000000000000000000000000
ymm11	256'0	0x0000000000000000000000000000000000000000000000000000000000000000
ymm12	256'0	0x0000000000000000000000000000000000000000000000000000000000000000
ymm13	256'0	0x0000000000000000000000000000000000000000000000000000000000000000
ymm14	256'0	0x0000000000000000000000000000000000000000000000000000000000000000
ymm15	256'0	0x0000000000000000000000000000000000000000000000000000000000000000

Count 109) reg	kstate	xstate		c0 e8 02	shr    $0x2,%al
---------------------
rax	64'0	1
rbx	64'0	0
rcx	64'0	0
rdx	64'0	0
rsi	64'0	0
rdi	64'0	0
rsp	ptr ( symloc ( 1 , 128 ) , 64'992 )	140737488345592
rbp	ptr ( symloc ( 1 , 128 ) , 64'1008 )	140737488345608
r8	64'0	0
r9	64'0	0
r10	64'0	0
r11	64'0	0
r12	64'0	0
r13	64'0	0
r14	64'0	0
r15	64'0	0
cf	ptr ( symloc ( 3 , 128 ) , 1'0 )	0
pf	1'1	0
af	ptr ( symloc ( 3 , 128 ) , 1'0 )	0
zf	1'1	0
sf	ptr ( symloc ( 3 , 128 ) , 1'0 )	0
of	1'0	0
ymm0	256'0	0x0000000000000000000000000000000000000000000000007ff8000000000000
ymm1	256'0	0x0000000000000000000000000000000000000000000000007ff8000000000000
ymm2	256'0	0x0000000000000000000000000000000000000000000000000000000000000000
ymm3	256'0	0x0000000000000000000000000000000000000000000000000000000000000000
ymm4	256'0	0x0000000000000000000000000000000000000000000000000000000000000000
ymm5	256'0	0x0000000000000000000000000000000000000000000000000000000000000000
ymm6	256'0	0x0000000000000000000000000000000000000000000000000000000000000000
ymm7	256'0	0x0000000000000000000000000000000000000000000000000000000000000000
ymm8	256'0	0x0000000000000000000000000000000000000000000000000000000000000000
ymm9	256'0	0x0000000000000000000000000000000000000000000000000000000000000000
ymm10	256'0	0x0000000000000000000000000000000000000000000000000000000000000000
ymm11	256'0	0x0000000000000000000000000000000000000000000000000000000000000000
ymm12	256'0	0x0000000000000000000000000000000000000000000000000000000000000000
ymm13	256'0	0x0000000000000000000000000000000000000000000000000000000000000000
ymm14	256'0	0x0000000000000000000000000000000000000000000000000000000000000000
ymm15	256'0	0x0000000000000000000000000000000000000000000000000000000000000000

Count 110) reg	kstate	xstate		83 e0 01	and    $0x1,%eax
---------------------
rax	64'0	0
rbx	64'0	0
rcx	64'0	0
rdx	64'0	0
rsi	64'0	0
rdi	64'0	0
rsp	ptr ( symloc ( 1 , 128 ) , 64'992 )	140737488345592
rbp	ptr ( symloc ( 1 , 128 ) , 64'1008 )	140737488345608
r8	64'0	0
r9	64'0	0
r10	64'0	0
r11	64'0	0
r12	64'0	0
r13	64'0	0
r14	64'0	0
r15	64'0	0
cf	1'0	0
pf	1'1	1
af	#ifMInt undefBool #then 1'1 #else 1'0 #fi	0
zf	1'1	1
sf	1'0	0
of	#ifMInt undefBool #then 1'1 #else 1'0 #fi	0
ymm0	256'0	0x0000000000000000000000000000000000000000000000007ff8000000000000
ymm1	256'0	0x0000000000000000000000000000000000000000000000007ff8000000000000
ymm2	256'0	0x0000000000000000000000000000000000000000000000000000000000000000
ymm3	256'0	0x0000000000000000000000000000000000000000000000000000000000000000
ymm4	256'0	0x0000000000000000000000000000000000000000000000000000000000000000
ymm5	256'0	0x0000000000000000000000000000000000000000000000000000000000000000
ymm6	256'0	0x0000000000000000000000000000000000000000000000000000000000000000
ymm7	256'0	0x0000000000000000000000000000000000000000000000000000000000000000
ymm8	256'0	0x0000000000000000000000000000000000000000000000000000000000000000
ymm9	256'0	0x0000000000000000000000000000000000000000000000000000000000000000
ymm10	256'0	0x0000000000000000000000000000000000000000000000000000000000000000
ymm11	256'0	0x0000000000000000000000000000000000000000000000000000000000000000
ymm12	256'0	0x0000000000000000000000000000000000000000000000000000000000000000
ymm13	256'0	0x0000000000000000000000000000000000000000000000000000000000000000
ymm14	256'0	0x0000000000000000000000000000000000000000000000000000000000000000
ymm15	256'0	0x0000000000000000000000000000000000000000000000000000000000000000

Count 111) reg	kstate	xstate		0f b6 c8	movzbl %al,%ecx
---------------------
rax	64'0	0
rbx	64'0	0
rcx	64'0	0
rdx	64'0	0
rsi	64'0	0
rdi	64'0	0
rsp	ptr ( symloc ( 1 , 128 ) , 64'992 )	140737488345592
rbp	ptr ( symloc ( 1 , 128 ) , 64'1008 )	140737488345608
r8	64'0	0
r9	64'0	0
r10	64'0	0
r11	64'0	0
r12	64'0	0
r13	64'0	0
r14	64'0	0
r15	64'0	0
cf	1'0	0
pf	1'1	1
af	undefMInt	0
zf	1'1	1
sf	1'0	0
of	1'0	0
ymm0	256'0	0x0000000000000000000000000000000000000000000000007ff8000000000000
ymm1	256'0	0x0000000000000000000000000000000000000000000000007ff8000000000000
ymm2	256'0	0x0000000000000000000000000000000000000000000000000000000000000000
ymm3	256'0	0x0000000000000000000000000000000000000000000000000000000000000000
ymm4	256'0	0x0000000000000000000000000000000000000000000000000000000000000000
ymm5	256'0	0x0000000000000000000000000000000000000000000000000000000000000000
ymm6	256'0	0x0000000000000000000000000000000000000000000000000000000000000000
ymm7	256'0	0x0000000000000000000000000000000000000000000000000000000000000000
ymm8	256'0	0x0000000000000000000000000000000000000000000000000000000000000000
ymm9	256'0	0x0000000000000000000000000000000000000000000000000000000000000000
ymm10	256'0	0x0000000000000000000000000000000000000000000000000000000000000000
ymm11	256'0	0x0000000000000000000000000000000000000000000000000000000000000000
ymm12	256'0	0x0000000000000000000000000000000000000000000000000000000000000000
ymm13	256'0	0x0000000000000000000000000000000000000000000000000000000000000000
ymm14	256'0	0x0000000000000000000000000000000000000000000000000000000000000000
ymm15	256'0	0x0000000000000000000000000000000000000000000000000000000000000000

Count 112) reg	kstate	xstate		8b 45 f8	mov    -0x8(%rbp),%eax
---------------------
rax	64'0	0
rbx	64'0	0
rcx	64'0	0
rdx	64'0	0
rsi	64'0	0
rdi	64'0	0
rsp	ptr ( symloc ( 1 , 128 ) , 64'992 )	140737488345592
rbp	ptr ( symloc ( 1 , 128 ) , 64'1008 )	140737488345608
r8	64'0	0
r9	64'0	0
r10	64'0	0
r11	64'0	0
r12	64'0	0
r13	64'0	0
r14	64'0	0
r15	64'0	0
cf	1'0	0
pf	1'1	1
af	undefMInt	0
zf	1'1	1
sf	1'0	0
of	1'0	0
ymm0	256'0	0x0000000000000000000000000000000000000000000000007ff8000000000000
ymm1	256'0	0x0000000000000000000000000000000000000000000000007ff8000000000000
ymm2	256'0	0x0000000000000000000000000000000000000000000000000000000000000000
ymm3	256'0	0x0000000000000000000000000000000000000000000000000000000000000000
ymm4	256'0	0x0000000000000000000000000000000000000000000000000000000000000000
ymm5	256'0	0x0000000000000000000000000000000000000000000000000000000000000000
ymm6	256'0	0x0000000000000000000000000000000000000000000000000000000000000000
ymm7	256'0	0x0000000000000000000000000000000000000000000000000000000000000000
ymm8	256'0	0x0000000000000000000000000000000000000000000000000000000000000000
ymm9	256'0	0x0000000000000000000000000000000000000000000000000000000000000000
ymm10	256'0	0x0000000000000000000000000000000000000000000000000000000000000000
ymm11	256'0	0x0000000000000000000000000000000000000000000000000000000000000000
ymm12	256'0	0x0000000000000000000000000000000000000000000000000000000000000000
ymm13	256'0	0x0000000000000000000000000000000000000000000000000000000000000000
ymm14	256'0	0x0000000000000000000000000000000000000000000000000000000000000000
ymm15	256'0	0x0000000000000000000000000000000000000000000000000000000000000000

Count 113) reg	kstate	xstate		48 63 d0	movslq %eax,%rdx
---------------------
rax	64'0	0
rbx	64'0	0
rcx	64'0	0
rdx	64'0	0
rsi	64'0	0
rdi	64'0	0
rsp	ptr ( symloc ( 1 , 128 ) , 64'992 )	140737488345592
rbp	ptr ( symloc ( 1 , 128 ) , 64'1008 )	140737488345608
r8	64'0	0
r9	64'0	0
r10	64'0	0
r11	64'0	0
r12	64'0	0
r13	64'0	0
r14	64'0	0
r15	64'0	0
cf	1'0	0
pf	1'1	1
af	undefMInt	0
zf	1'1	1
sf	1'0	0
of	1'0	0
ymm0	256'0	0x0000000000000000000000000000000000000000000000007ff8000000000000
ymm1	256'0	0x0000000000000000000000000000000000000000000000007ff8000000000000
ymm2	256'0	0x0000000000000000000000000000000000000000000000000000000000000000
ymm3	256'0	0x0000000000000000000000000000000000000000000000000000000000000000
ymm4	256'0	0x0000000000000000000000000000000000000000000000000000000000000000
ymm5	256'0	0x0000000000000000000000000000000000000000000000000000000000000000
ymm6	256'0	0x0000000000000000000000000000000000000000000000000000000000000000
ymm7	256'0	0x0000000000000000000000000000000000000000000000000000000000000000
ymm8	256'0	0x0000000000000000000000000000000000000000000000000000000000000000
ymm9	256'0	0x0000000000000000000000000000000000000000000000000000000000000000
ymm10	256'0	0x0000000000000000000000000000000000000000000000000000000000000000
ymm11	256'0	0x0000000000000000000000000000000000000000000000000000000000000000
ymm12	256'0	0x0000000000000000000000000000000000000000000000000000000000000000
ymm13	256'0	0x0000000000000000000000000000000000000000000000000000000000000000
ymm14	256'0	0x0000000000000000000000000000000000000000000000000000000000000000
ymm15	256'0	0x0000000000000000000000000000000000000000000000000000000000000000

Count 114) reg	kstate	xstate		48 89 d0	mov    %rdx,%rax
---------------------
rax	64'0	0
rbx	64'0	0
rcx	64'0	0
rdx	64'0	0
rsi	64'0	0
rdi	64'0	0
rsp	ptr ( symloc ( 1 , 128 ) , 64'992 )	140737488345592
rbp	ptr ( symloc ( 1 , 128 ) , 64'1008 )	140737488345608
r8	64'0	0
r9	64'0	0
r10	64'0	0
r11	64'0	0
r12	64'0	0
r13	64'0	0
r14	64'0	0
r15	64'0	0
cf	1'0	0
pf	1'1	1
af	undefMInt	0
zf	1'1	1
sf	1'0	0
of	1'0	0
ymm0	256'0	0x0000000000000000000000000000000000000000000000007ff8000000000000
ymm1	256'0	0x0000000000000000000000000000000000000000000000007ff8000000000000
ymm2	256'0	0x0000000000000000000000000000000000000000000000000000000000000000
ymm3	256'0	0x0000000000000000000000000000000000000000000000000000000000000000
ymm4	256'0	0x0000000000000000000000000000000000000000000000000000000000000000
ymm5	256'0	0x0000000000000000000000000000000000000000000000000000000000000000
ymm6	256'0	0x0000000000000000000000000000000000000000000000000000000000000000
ymm7	256'0	0x0000000000000000000000000000000000000000000000000000000000000000
ymm8	256'0	0x0000000000000000000000000000000000000000000000000000000000000000
ymm9	256'0	0x0000000000000000000000000000000000000000000000000000000000000000
ymm10	256'0	0x0000000000000000000000000000000000000000000000000000000000000000
ymm11	256'0	0x0000000000000000000000000000000000000000000000000000000000000000
ymm12	256'0	0x0000000000000000000000000000000000000000000000000000000000000000
ymm13	256'0	0x0000000000000000000000000000000000000000000000000000000000000000
ymm14	256'0	0x0000000000000000000000000000000000000000000000000000000000000000
ymm15	256'0	0x0000000000000000000000000000000000000000000000000000000000000000

Count 115) reg	kstate	xstate		48 01 c0	add    %rax,%rax
---------------------
rax	64'0	0
rbx	64'0	0
rcx	64'0	0
rdx	64'0	0
rsi	64'0	0
rdi	64'0	0
rsp	ptr ( symloc ( 1 , 128 ) , 64'992 )	140737488345592
rbp	ptr ( symloc ( 1 , 128 ) , 64'1008 )	140737488345608
r8	64'0	0
r9	64'0	0
r10	64'0	0
r11	64'0	0
r12	64'0	0
r13	64'0	0
r14	64'0	0
r15	64'0	0
cf	1'0	0
pf	1'1	1
af	undefMInt	0
zf	1'1	1
sf	1'0	0
of	1'0	0
ymm0	256'0	0x0000000000000000000000000000000000000000000000007ff8000000000000
ymm1	256'0	0x0000000000000000000000000000000000000000000000007ff8000000000000
ymm2	256'0	0x0000000000000000000000000000000000000000000000000000000000000000
ymm3	256'0	0x0000000000000000000000000000000000000000000000000000000000000000
ymm4	256'0	0x0000000000000000000000000000000000000000000000000000000000000000
ymm5	256'0	0x0000000000000000000000000000000000000000000000000000000000000000
ymm6	256'0	0x0000000000000000000000000000000000000000000000000000000000000000
ymm7	256'0	0x0000000000000000000000000000000000000000000000000000000000000000
ymm8	256'0	0x0000000000000000000000000000000000000000000000000000000000000000
ymm9	256'0	0x0000000000000000000000000000000000000000000000000000000000000000
ymm10	256'0	0x0000000000000000000000000000000000000000000000000000000000000000
ymm11	256'0	0x0000000000000000000000000000000000000000000000000000000000000000
ymm12	256'0	0x0000000000000000000000000000000000000000000000000000000000000000
ymm13	256'0	0x0000000000000000000000000000000000000000000000000000000000000000
ymm14	256'0	0x0000000000000000000000000000000000000000000000000000000000000000
ymm15	256'0	0x0000000000000000000000000000000000000000000000000000000000000000

Count 116) reg	kstate	xstate		48 01 d0	add    %rdx,%rax
---------------------
rax	64'0	0
rbx	64'0	0
rcx	64'0	0
rdx	64'0	0
rsi	64'0	0
rdi	64'0	0
rsp	ptr ( symloc ( 1 , 128 ) , 64'992 )	140737488345592
rbp	ptr ( symloc ( 1 , 128 ) , 64'1008 )	140737488345608
r8	64'0	0
r9	64'0	0
r10	64'0	0
r11	64'0	0
r12	64'0	0
r13	64'0	0
r14	64'0	0
r15	64'0	0
cf	1'0	0
pf	1'1	1
af	1'0	0
zf	1'1	1
sf	1'0	0
of	1'0	0
ymm0	256'0	0x0000000000000000000000000000000000000000000000007ff8000000000000
ymm1	256'0	0x0000000000000000000000000000000000000000000000007ff8000000000000
ymm2	256'0	0x0000000000000000000000000000000000000000000000000000000000000000
ymm3	256'0	0x0000000000000000000000000000000000000000000000000000000000000000
ymm4	256'0	0x0000000000000000000000000000000000000000000000000000000000000000
ymm5	256'0	0x0000000000000000000000000000000000000000000000000000000000000000
ymm6	256'0	0x0000000000000000000000000000000000000000000000000000000000000000
ymm7	256'0	0x0000000000000000000000000000000000000000000000000000000000000000
ymm8	256'0	0x0000000000000000000000000000000000000000000000000000000000000000
ymm9	256'0	0x0000000000000000000000000000000000000000000000000000000000000000
ymm10	256'0	0x0000000000000000000000000000000000000000000000000000000000000000
ymm11	256'0	0x0000000000000000000000000000000000000000000000000000000000000000
ymm12	256'0	0x0000000000000000000000000000000000000000000000000000000000000000
ymm13	256'0	0x0000000000000000000000000000000000000000000000000000000000000000
ymm14	256'0	0x0000000000000000000000000000000000000000000000000000000000000000
ymm15	256'0	0x0000000000000000000000000000000000000000000000000000000000000000

Count 117) reg	kstate	xstate		48 c1 e0 03	shl    $0x3,%rax
---------------------
rax	64'0	0
rbx	64'0	0
rcx	64'0	0
rdx	64'0	0
rsi	64'0	0
rdi	64'0	0
rsp	ptr ( symloc ( 1 , 128 ) , 64'992 )	140737488345592
rbp	ptr ( symloc ( 1 , 128 ) , 64'1008 )	140737488345608
r8	64'0	0
r9	64'0	0
r10	64'0	0
r11	64'0	0
r12	64'0	0
r13	64'0	0
r14	64'0	0
r15	64'0	0
cf	1'0	0
pf	1'1	1
af	1'0	0
zf	1'1	1
sf	1'0	0
of	1'0	0
ymm0	256'0	0x0000000000000000000000000000000000000000000000007ff8000000000000
ymm1	256'0	0x0000000000000000000000000000000000000000000000007ff8000000000000
ymm2	256'0	0x0000000000000000000000000000000000000000000000000000000000000000
ymm3	256'0	0x0000000000000000000000000000000000000000000000000000000000000000
ymm4	256'0	0x0000000000000000000000000000000000000000000000000000000000000000
ymm5	256'0	0x0000000000000000000000000000000000000000000000000000000000000000
ymm6	256'0	0x0000000000000000000000000000000000000000000000000000000000000000
ymm7	256'0	0x0000000000000000000000000000000000000000000000000000000000000000
ymm8	256'0	0x0000000000000000000000000000000000000000000000000000000000000000
ymm9	256'0	0x0000000000000000000000000000000000000000000000000000000000000000
ymm10	256'0	0x0000000000000000000000000000000000000000000000000000000000000000
ymm11	256'0	0x0000000000000000000000000000000000000000000000000000000000000000
ymm12	256'0	0x0000000000000000000000000000000000000000000000000000000000000000
ymm13	256'0	0x0000000000000000000000000000000000000000000000000000000000000000
ymm14	256'0	0x0000000000000000000000000000000000000000000000000000000000000000
ymm15	256'0	0x0000000000000000000000000000000000000000000000000000000000000000

Count 118) reg	kstate	xstate		48 05 76 07 40 00	add    $0x400776,%rax
---------------------
rax	64'0	0
rbx	64'0	0
rcx	64'0	0
rdx	64'0	0
rsi	64'0	0
rdi	64'0	0
rsp	ptr ( symloc ( 1 , 128 ) , 64'992 )	140737488345592
rbp	ptr ( symloc ( 1 , 128 ) , 64'1008 )	140737488345608
r8	64'0	0
r9	64'0	0
r10	64'0	0
r11	64'0	0
r12	64'0	0
r13	64'0	0
r14	64'0	0
r15	64'0	0
cf	1'0	0
pf	1'1	1
af	#ifMInt undefBool #then 1'1 #else 1'0 #fi	0
zf	1'1	1
sf	1'0	0
of	#ifMInt undefBool #then 1'1 #else 1'0 #fi	0
ymm0	256'0	0x0000000000000000000000000000000000000000000000007ff8000000000000
ymm1	256'0	0x0000000000000000000000000000000000000000000000007ff8000000000000
ymm2	256'0	0x0000000000000000000000000000000000000000000000000000000000000000
ymm3	256'0	0x0000000000000000000000000000000000000000000000000000000000000000
ymm4	256'0	0x0000000000000000000000000000000000000000000000000000000000000000
ymm5	256'0	0x0000000000000000000000000000000000000000000000000000000000000000
ymm6	256'0	0x0000000000000000000000000000000000000000000000000000000000000000
ymm7	256'0	0x0000000000000000000000000000000000000000000000000000000000000000
ymm8	256'0	0x0000000000000000000000000000000000000000000000000000000000000000
ymm9	256'0	0x0000000000000000000000000000000000000000000000000000000000000000
ymm10	256'0	0x0000000000000000000000000000000000000000000000000000000000000000
ymm11	256'0	0x0000000000000000000000000000000000000000000000000000000000000000
ymm12	256'0	0x0000000000000000000000000000000000000000000000000000000000000000
ymm13	256'0	0x0000000000000000000000000000000000000000000000000000000000000000
ymm14	256'0	0x0000000000000000000000000000000000000000000000000000000000000000
ymm15	256'0	0x0000000000000000000000000000000000000000000000000000000000000000

Count 119) reg	kstate	xstate		c5 fb 10 00	vmovsd (%rax),%xmm0
---------------------
rax	ptr ( symloc ( 3 , 128 ) , 64'8 )	4196214
rbx	64'0	0
rcx	64'0	0
rdx	64'0	0
rsi	64'0	0
rdi	64'0	0
rsp	ptr ( symloc ( 1 , 128 ) , 64'992 )	140737488345592
rbp	ptr ( symloc ( 1 , 128 ) , 64'1008 )	140737488345608
r8	64'0	0
r9	64'0	0
r10	64'0	0
r11	64'0	0
r12	64'0	0
r13	64'0	0
r14	64'0	0
r15	64'0	0
cf	ptr ( symloc ( 3 , 128 ) , 1'0 )	0
pf	1'0	0
af	ptr ( symloc ( 3 , 128 ) , 1'0 )	0
zf	1'0	0
sf	ptr ( symloc ( 3 , 128 ) , 1'0 )	0
of	1'0	0
ymm0	256'0	0x0000000000000000000000000000000000000000000000007ff8000000000000
ymm1	256'0	0x0000000000000000000000000000000000000000000000007ff8000000000000
ymm2	256'0	0x0000000000000000000000000000000000000000000000000000000000000000
ymm3	256'0	0x0000000000000000000000000000000000000000000000000000000000000000
ymm4	256'0	0x0000000000000000000000000000000000000000000000000000000000000000
ymm5	256'0	0x0000000000000000000000000000000000000000000000000000000000000000
ymm6	256'0	0x0000000000000000000000000000000000000000000000000000000000000000
ymm7	256'0	0x0000000000000000000000000000000000000000000000000000000000000000
ymm8	256'0	0x0000000000000000000000000000000000000000000000000000000000000000
ymm9	256'0	0x0000000000000000000000000000000000000000000000000000000000000000
ymm10	256'0	0x0000000000000000000000000000000000000000000000000000000000000000
ymm11	256'0	0x0000000000000000000000000000000000000000000000000000000000000000
ymm12	256'0	0x0000000000000000000000000000000000000000000000000000000000000000
ymm13	256'0	0x0000000000000000000000000000000000000000000000000000000000000000
ymm14	256'0	0x0000000000000000000000000000000000000000000000000000000000000000
ymm15	256'0	0x0000000000000000000000000000000000000000000000000000000000000000

Count 120) reg	kstate	xstate		8b 45 f8	mov    -0x8(%rbp),%eax
---------------------
rax	ptr ( symloc ( 3 , 128 ) , 64'8 )	4196214
rbx	64'0	0
rcx	64'0	0
rdx	64'0	0
rsi	64'0	0
rdi	64'0	0
rsp	ptr ( symloc ( 1 , 128 ) , 64'992 )	140737488345592
rbp	ptr ( symloc ( 1 , 128 ) , 64'1008 )	140737488345608
r8	64'0	0
r9	64'0	0
r10	64'0	0
r11	64'0	0
r12	64'0	0
r13	64'0	0
r14	64'0	0
r15	64'0	0
cf	ptr ( symloc ( 3 , 128 ) , 1'0 )	0
pf	1'0	0
af	ptr ( symloc ( 3 , 128 ) , 1'0 )	0
zf	1'0	0
sf	ptr ( symloc ( 3 , 128 ) , 1'0 )	0
of	1'0	0
ymm0	256'0	0x0000000000000000000000000000000000000000000000007ff8000000000000
ymm1	256'0	0x0000000000000000000000000000000000000000000000007ff8000000000000
ymm2	256'0	0x0000000000000000000000000000000000000000000000000000000000000000
ymm3	256'0	0x0000000000000000000000000000000000000000000000000000000000000000
ymm4	256'0	0x0000000000000000000000000000000000000000000000000000000000000000
ymm5	256'0	0x0000000000000000000000000000000000000000000000000000000000000000
ymm6	256'0	0x0000000000000000000000000000000000000000000000000000000000000000
ymm7	256'0	0x0000000000000000000000000000000000000000000000000000000000000000
ymm8	256'0	0x0000000000000000000000000000000000000000000000000000000000000000
ymm9	256'0	0x0000000000000000000000000000000000000000000000000000000000000000
ymm10	256'0	0x0000000000000000000000000000000000000000000000000000000000000000
ymm11	256'0	0x0000000000000000000000000000000000000000000000000000000000000000
ymm12	256'0	0x0000000000000000000000000000000000000000000000000000000000000000
ymm13	256'0	0x0000000000000000000000000000000000000000000000000000000000000000
ymm14	256'0	0x0000000000000000000000000000000000000000000000000000000000000000
ymm15	256'0	0x0000000000000000000000000000000000000000000000000000000000000000

Count 121) reg	kstate	xstate		48 63 d0	movslq %eax,%rdx
---------------------
rax	64'0	0
rbx	64'0	0
rcx	64'0	0
rdx	64'0	0
rsi	64'0	0
rdi	64'0	0
rsp	ptr ( symloc ( 1 , 128 ) , 64'992 )	140737488345592
rbp	ptr ( symloc ( 1 , 128 ) , 64'1008 )	140737488345608
r8	64'0	0
r9	64'0	0
r10	64'0	0
r11	64'0	0
r12	64'0	0
r13	64'0	0
r14	64'0	0
r15	64'0	0
cf	ptr ( symloc ( 3 , 128 ) , 1'0 )	0
pf	1'0	0
af	ptr ( symloc ( 3 , 128 ) , 1'0 )	0
zf	1'0	0
sf	ptr ( symloc ( 3 , 128 ) , 1'0 )	0
of	1'0	0
ymm0	256'0	0x0000000000000000000000000000000000000000000000007ff8000000000000
ymm1	256'0	0x0000000000000000000000000000000000000000000000007ff8000000000000
ymm2	256'0	0x0000000000000000000000000000000000000000000000000000000000000000
ymm3	256'0	0x0000000000000000000000000000000000000000000000000000000000000000
ymm4	256'0	0x0000000000000000000000000000000000000000000000000000000000000000
ymm5	256'0	0x0000000000000000000000000000000000000000000000000000000000000000
ymm6	256'0	0x0000000000000000000000000000000000000000000000000000000000000000
ymm7	256'0	0x0000000000000000000000000000000000000000000000000000000000000000
ymm8	256'0	0x0000000000000000000000000000000000000000000000000000000000000000
ymm9	256'0	0x0000000000000000000000000000000000000000000000000000000000000000
ymm10	256'0	0x0000000000000000000000000000000000000000000000000000000000000000
ymm11	256'0	0x0000000000000000000000000000000000000000000000000000000000000000
ymm12	256'0	0x0000000000000000000000000000000000000000000000000000000000000000
ymm13	256'0	0x0000000000000000000000000000000000000000000000000000000000000000
ymm14	256'0	0x0000000000000000000000000000000000000000000000000000000000000000
ymm15	256'0	0x0000000000000000000000000000000000000000000000000000000000000000

Count 122) reg	kstate	xstate		48 89 d0	mov    %rdx,%rax
---------------------
rax	64'0	0
rbx	64'0	0
rcx	64'0	0
rdx	64'0	0
rsi	64'0	0
rdi	64'0	0
rsp	ptr ( symloc ( 1 , 128 ) , 64'992 )	140737488345592
rbp	ptr ( symloc ( 1 , 128 ) , 64'1008 )	140737488345608
r8	64'0	0
r9	64'0	0
r10	64'0	0
r11	64'0	0
r12	64'0	0
r13	64'0	0
r14	64'0	0
r15	64'0	0
cf	ptr ( symloc ( 3 , 128 ) , 1'0 )	0
pf	1'0	0
af	ptr ( symloc ( 3 , 128 ) , 1'0 )	0
zf	1'0	0
sf	ptr ( symloc ( 3 , 128 ) , 1'0 )	0
of	1'0	0
ymm0	256'0	0x0000000000000000000000000000000000000000000000007ff8000000000000
ymm1	256'0	0x0000000000000000000000000000000000000000000000007ff8000000000000
ymm2	256'0	0x0000000000000000000000000000000000000000000000000000000000000000
ymm3	256'0	0x0000000000000000000000000000000000000000000000000000000000000000
ymm4	256'0	0x0000000000000000000000000000000000000000000000000000000000000000
ymm5	256'0	0x0000000000000000000000000000000000000000000000000000000000000000
ymm6	256'0	0x0000000000000000000000000000000000000000000000000000000000000000
ymm7	256'0	0x0000000000000000000000000000000000000000000000000000000000000000
ymm8	256'0	0x0000000000000000000000000000000000000000000000000000000000000000
ymm9	256'0	0x0000000000000000000000000000000000000000000000000000000000000000
ymm10	256'0	0x0000000000000000000000000000000000000000000000000000000000000000
ymm11	256'0	0x0000000000000000000000000000000000000000000000000000000000000000
ymm12	256'0	0x0000000000000000000000000000000000000000000000000000000000000000
ymm13	256'0	0x0000000000000000000000000000000000000000000000000000000000000000
ymm14	256'0	0x0000000000000000000000000000000000000000000000000000000000000000
ymm15	256'0	0x0000000000000000000000000000000000000000000000000000000000000000

Count 123) reg	kstate	xstate		48 01 c0	add    %rax,%rax
---------------------
rax	64'0	0
rbx	64'0	0
rcx	64'0	0
rdx	64'0	0
rsi	64'0	0
rdi	64'0	0
rsp	ptr ( symloc ( 1 , 128 ) , 64'992 )	140737488345592
rbp	ptr ( symloc ( 1 , 128 ) , 64'1008 )	140737488345608
r8	64'0	0
r9	64'0	0
r10	64'0	0
r11	64'0	0
r12	64'0	0
r13	64'0	0
r14	64'0	0
r15	64'0	0
cf	ptr ( symloc ( 3 , 128 ) , 1'0 )	0
pf	1'0	0
af	ptr ( symloc ( 3 , 128 ) , 1'0 )	0
zf	1'0	0
sf	ptr ( symloc ( 3 , 128 ) , 1'0 )	0
of	1'0	0
ymm0	256'0	0x0000000000000000000000000000000000000000000000007ff8000000000000
ymm1	256'0	0x0000000000000000000000000000000000000000000000007ff8000000000000
ymm2	256'0	0x0000000000000000000000000000000000000000000000000000000000000000
ymm3	256'0	0x0000000000000000000000000000000000000000000000000000000000000000
ymm4	256'0	0x0000000000000000000000000000000000000000000000000000000000000000
ymm5	256'0	0x0000000000000000000000000000000000000000000000000000000000000000
ymm6	256'0	0x0000000000000000000000000000000000000000000000000000000000000000
ymm7	256'0	0x0000000000000000000000000000000000000000000000000000000000000000
ymm8	256'0	0x0000000000000000000000000000000000000000000000000000000000000000
ymm9	256'0	0x0000000000000000000000000000000000000000000000000000000000000000
ymm10	256'0	0x0000000000000000000000000000000000000000000000000000000000000000
ymm11	256'0	0x0000000000000000000000000000000000000000000000000000000000000000
ymm12	256'0	0x0000000000000000000000000000000000000000000000000000000000000000
ymm13	256'0	0x0000000000000000000000000000000000000000000000000000000000000000
ymm14	256'0	0x0000000000000000000000000000000000000000000000000000000000000000
ymm15	256'0	0x0000000000000000000000000000000000000000000000000000000000000000

Count 124) reg	kstate	xstate		48 01 d0	add    %rdx,%rax
---------------------
rax	64'0	0
rbx	64'0	0
rcx	64'0	0
rdx	64'0	0
rsi	64'0	0
rdi	64'0	0
rsp	ptr ( symloc ( 1 , 128 ) , 64'992 )	140737488345592
rbp	ptr ( symloc ( 1 , 128 ) , 64'1008 )	140737488345608
r8	64'0	0
r9	64'0	0
r10	64'0	0
r11	64'0	0
r12	64'0	0
r13	64'0	0
r14	64'0	0
r15	64'0	0
cf	1'0	0
pf	1'1	1
af	1'0	0
zf	1'1	1
sf	1'0	0
of	1'0	0
ymm0	256'0	0x0000000000000000000000000000000000000000000000007ff8000000000000
ymm1	256'0	0x0000000000000000000000000000000000000000000000007ff8000000000000
ymm2	256'0	0x0000000000000000000000000000000000000000000000000000000000000000
ymm3	256'0	0x0000000000000000000000000000000000000000000000000000000000000000
ymm4	256'0	0x0000000000000000000000000000000000000000000000000000000000000000
ymm5	256'0	0x0000000000000000000000000000000000000000000000000000000000000000
ymm6	256'0	0x0000000000000000000000000000000000000000000000000000000000000000
ymm7	256'0	0x0000000000000000000000000000000000000000000000000000000000000000
ymm8	256'0	0x0000000000000000000000000000000000000000000000000000000000000000
ymm9	256'0	0x0000000000000000000000000000000000000000000000000000000000000000
ymm10	256'0	0x0000000000000000000000000000000000000000000000000000000000000000
ymm11	256'0	0x0000000000000000000000000000000000000000000000000000000000000000
ymm12	256'0	0x0000000000000000000000000000000000000000000000000000000000000000
ymm13	256'0	0x0000000000000000000000000000000000000000000000000000000000000000
ymm14	256'0	0x0000000000000000000000000000000000000000000000000000000000000000
ymm15	256'0	0x0000000000000000000000000000000000000000000000000000000000000000

Count 125) reg	kstate	xstate		48 c1 e0 03	shl    $0x3,%rax
---------------------
rax	64'0	0
rbx	64'0	0
rcx	64'0	0
rdx	64'0	0
rsi	64'0	0
rdi	64'0	0
rsp	ptr ( symloc ( 1 , 128 ) , 64'992 )	140737488345592
rbp	ptr ( symloc ( 1 , 128 ) , 64'1008 )	140737488345608
r8	64'0	0
r9	64'0	0
r10	64'0	0
r11	64'0	0
r12	64'0	0
r13	64'0	0
r14	64'0	0
r15	64'0	0
cf	1'0	0
pf	1'1	1
af	1'0	0
zf	1'1	1
sf	1'0	0
of	1'0	0
ymm0	256'0	0x0000000000000000000000000000000000000000000000007ff8000000000000
ymm1	256'0	0x0000000000000000000000000000000000000000000000007ff8000000000000
ymm2	256'0	0x0000000000000000000000000000000000000000000000000000000000000000
ymm3	256'0	0x0000000000000000000000000000000000000000000000000000000000000000
ymm4	256'0	0x0000000000000000000000000000000000000000000000000000000000000000
ymm5	256'0	0x0000000000000000000000000000000000000000000000000000000000000000
ymm6	256'0	0x0000000000000000000000000000000000000000000000000000000000000000
ymm7	256'0	0x0000000000000000000000000000000000000000000000000000000000000000
ymm8	256'0	0x0000000000000000000000000000000000000000000000000000000000000000
ymm9	256'0	0x0000000000000000000000000000000000000000000000000000000000000000
ymm10	256'0	0x0000000000000000000000000000000000000000000000000000000000000000
ymm11	256'0	0x0000000000000000000000000000000000000000000000000000000000000000
ymm12	256'0	0x0000000000000000000000000000000000000000000000000000000000000000
ymm13	256'0	0x0000000000000000000000000000000000000000000000000000000000000000
ymm14	256'0	0x0000000000000000000000000000000000000000000000000000000000000000
ymm15	256'0	0x0000000000000000000000000000000000000000000000000000000000000000

Count 126) reg	kstate	xstate		48 05 6e 07 40 00	add    $0x40076e,%rax
---------------------
rax	64'0	0
rbx	64'0	0
rcx	64'0	0
rdx	64'0	0
rsi	64'0	0
rdi	64'0	0
rsp	ptr ( symloc ( 1 , 128 ) , 64'992 )	140737488345592
rbp	ptr ( symloc ( 1 , 128 ) , 64'1008 )	140737488345608
r8	64'0	0
r9	64'0	0
r10	64'0	0
r11	64'0	0
r12	64'0	0
r13	64'0	0
r14	64'0	0
r15	64'0	0
cf	1'0	0
pf	1'1	1
af	#ifMInt undefBool #then 1'1 #else 1'0 #fi	0
zf	1'1	1
sf	1'0	0
of	#ifMInt undefBool #then 1'1 #else 1'0 #fi	0
ymm0	256'0	0x0000000000000000000000000000000000000000000000007ff8000000000000
ymm1	256'0	0x0000000000000000000000000000000000000000000000007ff8000000000000
ymm2	256'0	0x0000000000000000000000000000000000000000000000000000000000000000
ymm3	256'0	0x0000000000000000000000000000000000000000000000000000000000000000
ymm4	256'0	0x0000000000000000000000000000000000000000000000000000000000000000
ymm5	256'0	0x0000000000000000000000000000000000000000000000000000000000000000
ymm6	256'0	0x0000000000000000000000000000000000000000000000000000000000000000
ymm7	256'0	0x0000000000000000000000000000000000000000000000000000000000000000
ymm8	256'0	0x0000000000000000000000000000000000000000000000000000000000000000
ymm9	256'0	0x0000000000000000000000000000000000000000000000000000000000000000
ymm10	256'0	0x0000000000000000000000000000000000000000000000000000000000000000
ymm11	256'0	0x0000000000000000000000000000000000000000000000000000000000000000
ymm12	256'0	0x0000000000000000000000000000000000000000000000000000000000000000
ymm13	256'0	0x0000000000000000000000000000000000000000000000000000000000000000
ymm14	256'0	0x0000000000000000000000000000000000000000000000000000000000000000
ymm15	256'0	0x0000000000000000000000000000000000000000000000000000000000000000

Count 127) reg	kstate	xstate		48 8b 00	mov    (%rax),%rax
---------------------
rax	ptr ( symloc ( 3 , 128 ) , 64'0 )	4196206
rbx	64'0	0
rcx	64'0	0
rdx	64'0	0
rsi	64'0	0
rdi	64'0	0
rsp	ptr ( symloc ( 1 , 128 ) , 64'992 )	140737488345592
rbp	ptr ( symloc ( 1 , 128 ) , 64'1008 )	140737488345608
r8	64'0	0
r9	64'0	0
r10	64'0	0
r11	64'0	0
r12	64'0	0
r13	64'0	0
r14	64'0	0
r15	64'0	0
cf	ptr ( symloc ( 3 , 128 ) , 1'0 )	0
pf	1'1	0
af	ptr ( symloc ( 3 , 128 ) , 1'0 )	0
zf	1'1	0
sf	ptr ( symloc ( 3 , 128 ) , 1'0 )	0
of	1'0	0
ymm0	256'0	0x0000000000000000000000000000000000000000000000007ff8000000000000
ymm1	256'0	0x0000000000000000000000000000000000000000000000007ff8000000000000
ymm2	256'0	0x0000000000000000000000000000000000000000000000000000000000000000
ymm3	256'0	0x0000000000000000000000000000000000000000000000000000000000000000
ymm4	256'0	0x0000000000000000000000000000000000000000000000000000000000000000
ymm5	256'0	0x0000000000000000000000000000000000000000000000000000000000000000
ymm6	256'0	0x0000000000000000000000000000000000000000000000000000000000000000
ymm7	256'0	0x0000000000000000000000000000000000000000000000000000000000000000
ymm8	256'0	0x0000000000000000000000000000000000000000000000000000000000000000
ymm9	256'0	0x0000000000000000000000000000000000000000000000000000000000000000
ymm10	256'0	0x0000000000000000000000000000000000000000000000000000000000000000
ymm11	256'0	0x0000000000000000000000000000000000000000000000000000000000000000
ymm12	256'0	0x0000000000000000000000000000000000000000000000000000000000000000
ymm13	256'0	0x0000000000000000000000000000000000000000000000000000000000000000
ymm14	256'0	0x0000000000000000000000000000000000000000000000000000000000000000
ymm15	256'0	0x0000000000000000000000000000000000000000000000000000000000000000

Count 128) reg	kstate	xstate		89 cf	mov    %ecx,%edi
---------------------
rax	64'0	9221120237041090560
rbx	64'0	0
rcx	64'0	0
rdx	64'0	0
rsi	64'0	0
rdi	64'0	0
rsp	ptr ( symloc ( 1 , 128 ) , 64'992 )	140737488345592
rbp	ptr ( symloc ( 1 , 128 ) , 64'1008 )	140737488345608
r8	64'0	0
r9	64'0	0
r10	64'0	0
r11	64'0	0
r12	64'0	0
r13	64'0	0
r14	64'0	0
r15	64'0	0
cf	ptr ( symloc ( 3 , 128 ) , 1'0 )	0
pf	1'1	0
af	ptr ( symloc ( 3 , 128 ) , 1'0 )	0
zf	1'1	0
sf	ptr ( symloc ( 3 , 128 ) , 1'0 )	0
of	1'0	0
ymm0	256'0	0x0000000000000000000000000000000000000000000000007ff8000000000000
ymm1	256'0	0x0000000000000000000000000000000000000000000000007ff8000000000000
ymm2	256'0	0x0000000000000000000000000000000000000000000000000000000000000000
ymm3	256'0	0x0000000000000000000000000000000000000000000000000000000000000000
ymm4	256'0	0x0000000000000000000000000000000000000000000000000000000000000000
ymm5	256'0	0x0000000000000000000000000000000000000000000000000000000000000000
ymm6	256'0	0x0000000000000000000000000000000000000000000000000000000000000000
ymm7	256'0	0x0000000000000000000000000000000000000000000000000000000000000000
ymm8	256'0	0x0000000000000000000000000000000000000000000000000000000000000000
ymm9	256'0	0x0000000000000000000000000000000000000000000000000000000000000000
ymm10	256'0	0x0000000000000000000000000000000000000000000000000000000000000000
ymm11	256'0	0x0000000000000000000000000000000000000000000000000000000000000000
ymm12	256'0	0x0000000000000000000000000000000000000000000000000000000000000000
ymm13	256'0	0x0000000000000000000000000000000000000000000000000000000000000000
ymm14	256'0	0x0000000000000000000000000000000000000000000000000000000000000000
ymm15	256'0	0x0000000000000000000000000000000000000000000000000000000000000000

Count 129) reg	kstate	xstate		c5 f9 28 c8	vmovapd %xmm0,%xmm1
---------------------
rax	64'0	9221120237041090560
rbx	64'0	0
rcx	64'0	0
rdx	64'0	0
rsi	64'0	0
rdi	64'0	0
rsp	ptr ( symloc ( 1 , 128 ) , 64'992 )	140737488345592
rbp	ptr ( symloc ( 1 , 128 ) , 64'1008 )	140737488345608
r8	64'0	0
r9	64'0	0
r10	64'0	0
r11	64'0	0
r12	64'0	0
r13	64'0	0
r14	64'0	0
r15	64'0	0
cf	ptr ( symloc ( 3 , 128 ) , 1'0 )	0
pf	1'1	0
af	ptr ( symloc ( 3 , 128 ) , 1'0 )	0
zf	1'1	0
sf	ptr ( symloc ( 3 , 128 ) , 1'0 )	0
of	1'0	0
ymm0	256'0	0x0000000000000000000000000000000000000000000000007ff8000000000000
ymm1	256'0	0x0000000000000000000000000000000000000000000000007ff8000000000000
ymm2	256'0	0x0000000000000000000000000000000000000000000000000000000000000000
ymm3	256'0	0x0000000000000000000000000000000000000000000000000000000000000000
ymm4	256'0	0x0000000000000000000000000000000000000000000000000000000000000000
ymm5	256'0	0x0000000000000000000000000000000000000000000000000000000000000000
ymm6	256'0	0x0000000000000000000000000000000000000000000000000000000000000000
ymm7	256'0	0x0000000000000000000000000000000000000000000000000000000000000000
ymm8	256'0	0x0000000000000000000000000000000000000000000000000000000000000000
ymm9	256'0	0x0000000000000000000000000000000000000000000000000000000000000000
ymm10	256'0	0x0000000000000000000000000000000000000000000000000000000000000000
ymm11	256'0	0x0000000000000000000000000000000000000000000000000000000000000000
ymm12	256'0	0x0000000000000000000000000000000000000000000000000000000000000000
ymm13	256'0	0x0000000000000000000000000000000000000000000000000000000000000000
ymm14	256'0	0x0000000000000000000000000000000000000000000000000000000000000000
ymm15	256'0	0x0000000000000000000000000000000000000000000000000000000000000000

Count 130) reg	kstate	xstate		c4 e1 f9 6e c0	vmovq  %rax,%xmm0
---------------------
rax	64'0	9221120237041090560
rbx	64'0	0
rcx	64'0	0
rdx	64'0	0
rsi	64'0	0
rdi	64'0	0
rsp	ptr ( symloc ( 1 , 128 ) , 64'992 )	140737488345592
rbp	ptr ( symloc ( 1 , 128 ) , 64'1008 )	140737488345608
r8	64'0	0
r9	64'0	0
r10	64'0	0
r11	64'0	0
r12	64'0	0
r13	64'0	0
r14	64'0	0
r15	64'0	0
cf	ptr ( symloc ( 3 , 128 ) , 1'0 )	0
pf	1'1	0
af	ptr ( symloc ( 3 , 128 ) , 1'0 )	0
zf	1'1	0
sf	ptr ( symloc ( 3 , 128 ) , 1'0 )	0
of	1'0	0
ymm0	256'0	0x0000000000000000000000000000000000000000000000007ff8000000000000
ymm1	256'0	0x0000000000000000000000000000000000000000000000007ff8000000000000
ymm2	256'0	0x0000000000000000000000000000000000000000000000000000000000000000
ymm3	256'0	0x0000000000000000000000000000000000000000000000000000000000000000
ymm4	256'0	0x0000000000000000000000000000000000000000000000000000000000000000
ymm5	256'0	0x0000000000000000000000000000000000000000000000000000000000000000
ymm6	256'0	0x0000000000000000000000000000000000000000000000000000000000000000
ymm7	256'0	0x0000000000000000000000000000000000000000000000000000000000000000
ymm8	256'0	0x0000000000000000000000000000000000000000000000000000000000000000
ymm9	256'0	0x0000000000000000000000000000000000000000000000000000000000000000
ymm10	256'0	0x0000000000000000000000000000000000000000000000000000000000000000
ymm11	256'0	0x0000000000000000000000000000000000000000000000000000000000000000
ymm12	256'0	0x0000000000000000000000000000000000000000000000000000000000000000
ymm13	256'0	0x0000000000000000000000000000000000000000000000000000000000000000
ymm14	256'0	0x0000000000000000000000000000000000000000000000000000000000000000
ymm15	256'0	0x0000000000000000000000000000000000000000000000000000000000000000

Count 131) reg	kstate	xstate		e8 94 fd ff ff	callq  0x40039b <test_islessequal>
---------------------
rax	64'0	9221120237041090560
rbx	64'0	0
rcx	64'0	0
rdx	64'0	0
rsi	64'0	0
rdi	64'0	0
rsp	ptr ( symloc ( 1 , 128 ) , 64'992 )	140737488345592
rbp	ptr ( symloc ( 1 , 128 ) , 64'1008 )	140737488345608
r8	64'0	0
r9	64'0	0
r10	64'0	0
r11	64'0	0
r12	64'0	0
r13	64'0	0
r14	64'0	0
r15	64'0	0
cf	ptr ( symloc ( 3 , 128 ) , 1'0 )	0
pf	1'1	0
af	ptr ( symloc ( 3 , 128 ) , 1'0 )	0
zf	1'1	0
sf	ptr ( symloc ( 3 , 128 ) , 1'0 )	0
of	1'0	0
ymm0	256'0	0x0000000000000000000000000000000000000000000000007ff8000000000000
ymm1	256'0	0x0000000000000000000000000000000000000000000000007ff8000000000000
ymm2	256'0	0x0000000000000000000000000000000000000000000000000000000000000000
ymm3	256'0	0x0000000000000000000000000000000000000000000000000000000000000000
ymm4	256'0	0x0000000000000000000000000000000000000000000000000000000000000000
ymm5	256'0	0x0000000000000000000000000000000000000000000000000000000000000000
ymm6	256'0	0x0000000000000000000000000000000000000000000000000000000000000000
ymm7	256'0	0x0000000000000000000000000000000000000000000000000000000000000000
ymm8	256'0	0x0000000000000000000000000000000000000000000000000000000000000000
ymm9	256'0	0x0000000000000000000000000000000000000000000000000000000000000000
ymm10	256'0	0x0000000000000000000000000000000000000000000000000000000000000000
ymm11	256'0	0x0000000000000000000000000000000000000000000000000000000000000000
ymm12	256'0	0x0000000000000000000000000000000000000000000000000000000000000000
ymm13	256'0	0x0000000000000000000000000000000000000000000000000000000000000000
ymm14	256'0	0x0000000000000000000000000000000000000000000000000000000000000000
ymm15	256'0	0x0000000000000000000000000000000000000000000000000000000000000000

Count 132) reg	kstate	xstate		55	push   %rbp
---------------------
rax	64'0	9221120237041090560
rbx	64'0	0
rcx	64'0	0
rdx	64'0	0
rsi	64'0	0
rdi	64'0	0
rsp	ptr ( symloc ( 1 , 128 ) , 64'984 )	140737488345584
rbp	ptr ( symloc ( 1 , 128 ) , 64'1008 )	140737488345608
r8	64'0	0
r9	64'0	0
r10	64'0	0
r11	64'0	0
r12	64'0	0
r13	64'0	0
r14	64'0	0
r15	64'0	0
cf	ptr ( symloc ( 3 , 128 ) , 1'0 )	0
pf	1'1	0
af	ptr ( symloc ( 3 , 128 ) , 1'0 )	0
zf	1'1	0
sf	ptr ( symloc ( 3 , 128 ) , 1'0 )	0
of	1'0	0
ymm0	256'0	0x0000000000000000000000000000000000000000000000007ff8000000000000
ymm1	256'0	0x0000000000000000000000000000000000000000000000007ff8000000000000
ymm2	256'0	0x0000000000000000000000000000000000000000000000000000000000000000
ymm3	256'0	0x0000000000000000000000000000000000000000000000000000000000000000
ymm4	256'0	0x0000000000000000000000000000000000000000000000000000000000000000
ymm5	256'0	0x0000000000000000000000000000000000000000000000000000000000000000
ymm6	256'0	0x0000000000000000000000000000000000000000000000000000000000000000
ymm7	256'0	0x0000000000000000000000000000000000000000000000000000000000000000
ymm8	256'0	0x0000000000000000000000000000000000000000000000000000000000000000
ymm9	256'0	0x0000000000000000000000000000000000000000000000000000000000000000
ymm10	256'0	0x0000000000000000000000000000000000000000000000000000000000000000
ymm11	256'0	0x0000000000000000000000000000000000000000000000000000000000000000
ymm12	256'0	0x0000000000000000000000000000000000000000000000000000000000000000
ymm13	256'0	0x0000000000000000000000000000000000000000000000000000000000000000
ymm14	256'0	0x0000000000000000000000000000000000000000000000000000000000000000
ymm15	256'0	0x0000000000000000000000000000000000000000000000000000000000000000

Count 133) reg	kstate	xstate		48 89 e5	mov    %rsp,%rbp
---------------------
rax	64'0	9221120237041090560
rbx	64'0	0
rcx	64'0	0
rdx	64'0	0
rsi	64'0	0
rdi	64'0	0
rsp	ptr ( symloc ( 1 , 128 ) , 64'976 )	140737488345576
rbp	ptr ( symloc ( 1 , 128 ) , 64'1008 )	140737488345608
r8	64'0	0
r9	64'0	0
r10	64'0	0
r11	64'0	0
r12	64'0	0
r13	64'0	0
r14	64'0	0
r15	64'0	0
cf	ptr ( symloc ( 3 , 128 ) , 1'0 )	0
pf	1'1	0
af	ptr ( symloc ( 3 , 128 ) , 1'0 )	0
zf	1'1	0
sf	ptr ( symloc ( 3 , 128 ) , 1'0 )	0
of	1'0	0
ymm0	256'0	0x0000000000000000000000000000000000000000000000007ff8000000000000
ymm1	256'0	0x0000000000000000000000000000000000000000000000007ff8000000000000
ymm2	256'0	0x0000000000000000000000000000000000000000000000000000000000000000
ymm3	256'0	0x0000000000000000000000000000000000000000000000000000000000000000
ymm4	256'0	0x0000000000000000000000000000000000000000000000000000000000000000
ymm5	256'0	0x0000000000000000000000000000000000000000000000000000000000000000
ymm6	256'0	0x0000000000000000000000000000000000000000000000000000000000000000
ymm7	256'0	0x0000000000000000000000000000000000000000000000000000000000000000
ymm8	256'0	0x0000000000000000000000000000000000000000000000000000000000000000
ymm9	256'0	0x0000000000000000000000000000000000000000000000000000000000000000
ymm10	256'0	0x0000000000000000000000000000000000000000000000000000000000000000
ymm11	256'0	0x0000000000000000000000000000000000000000000000000000000000000000
ymm12	256'0	0x0000000000000000000000000000000000000000000000000000000000000000
ymm13	256'0	0x0000000000000000000000000000000000000000000000000000000000000000
ymm14	256'0	0x0000000000000000000000000000000000000000000000000000000000000000
ymm15	256'0	0x0000000000000000000000000000000000000000000000000000000000000000

Count 134) reg	kstate	xstate		48 83 ec 18	sub    $0x18,%rsp
---------------------
rax	64'0	9221120237041090560
rbx	64'0	0
rcx	64'0	0
rdx	64'0	0
rsi	64'0	0
rdi	64'0	0
rsp	ptr ( symloc ( 1 , 128 ) , 64'976 )	140737488345576
rbp	ptr ( symloc ( 1 , 128 ) , 64'976 )	140737488345576
r8	64'0	0
r9	64'0	0
r10	64'0	0
r11	64'0	0
r12	64'0	0
r13	64'0	0
r14	64'0	0
r15	64'0	0
cf	ptr ( symloc ( 3 , 128 ) , 1'0 )	0
pf	1'1	0
af	ptr ( symloc ( 3 , 128 ) , 1'0 )	0
zf	1'1	0
sf	ptr ( symloc ( 3 , 128 ) , 1'0 )	0
of	1'0	0
ymm0	256'0	0x0000000000000000000000000000000000000000000000007ff8000000000000
ymm1	256'0	0x0000000000000000000000000000000000000000000000007ff8000000000000
ymm2	256'0	0x0000000000000000000000000000000000000000000000000000000000000000
ymm3	256'0	0x0000000000000000000000000000000000000000000000000000000000000000
ymm4	256'0	0x0000000000000000000000000000000000000000000000000000000000000000
ymm5	256'0	0x0000000000000000000000000000000000000000000000000000000000000000
ymm6	256'0	0x0000000000000000000000000000000000000000000000000000000000000000
ymm7	256'0	0x0000000000000000000000000000000000000000000000000000000000000000
ymm8	256'0	0x0000000000000000000000000000000000000000000000000000000000000000
ymm9	256'0	0x0000000000000000000000000000000000000000000000000000000000000000
ymm10	256'0	0x0000000000000000000000000000000000000000000000000000000000000000
ymm11	256'0	0x0000000000000000000000000000000000000000000000000000000000000000
ymm12	256'0	0x0000000000000000000000000000000000000000000000000000000000000000
ymm13	256'0	0x0000000000000000000000000000000000000000000000000000000000000000
ymm14	256'0	0x0000000000000000000000000000000000000000000000000000000000000000
ymm15	256'0	0x0000000000000000000000000000000000000000000000000000000000000000

Count 135) reg	kstate	xstate		c5 fb 11 45 f8	vmovsd %xmm0,-0x8(%rbp)
---------------------
rax	64'0	9221120237041090560
rbx	64'0	0
rcx	64'0	0
rdx	64'0	0
rsi	64'0	0
rdi	64'0	0
rsp	ptr ( symloc ( 1 , 128 ) , 64'952 )	140737488345552
rbp	ptr ( symloc ( 1 , 128 ) , 64'976 )	140737488345576
r8	64'0	0
r9	64'0	0
r10	64'0	0
r11	64'0	0
r12	64'0	0
r13	64'0	0
r14	64'0	0
r15	64'0	0
cf	1'0	0
pf	1'1	0
af	ptr ( symloc ( 1 , 128 ) , 1'1 )	0
zf	1'0	0
sf	ptr ( symloc ( 1 , 128 ) , 1'0 )	0
of	1'0	0
ymm0	256'0	0x0000000000000000000000000000000000000000000000007ff8000000000000
ymm1	256'0	0x0000000000000000000000000000000000000000000000007ff8000000000000
ymm2	256'0	0x0000000000000000000000000000000000000000000000000000000000000000
ymm3	256'0	0x0000000000000000000000000000000000000000000000000000000000000000
ymm4	256'0	0x0000000000000000000000000000000000000000000000000000000000000000
ymm5	256'0	0x0000000000000000000000000000000000000000000000000000000000000000
ymm6	256'0	0x0000000000000000000000000000000000000000000000000000000000000000
ymm7	256'0	0x0000000000000000000000000000000000000000000000000000000000000000
ymm8	256'0	0x0000000000000000000000000000000000000000000000000000000000000000
ymm9	256'0	0x0000000000000000000000000000000000000000000000000000000000000000
ymm10	256'0	0x0000000000000000000000000000000000000000000000000000000000000000
ymm11	256'0	0x0000000000000000000000000000000000000000000000000000000000000000
ymm12	256'0	0x0000000000000000000000000000000000000000000000000000000000000000
ymm13	256'0	0x0000000000000000000000000000000000000000000000000000000000000000
ymm14	256'0	0x0000000000000000000000000000000000000000000000000000000000000000
ymm15	256'0	0x0000000000000000000000000000000000000000000000000000000000000000

Count 136) reg	kstate	xstate		c5 fb 11 4d f0	vmovsd %xmm1,-0x10(%rbp)
---------------------
rax	64'0	9221120237041090560
rbx	64'0	0
rcx	64'0	0
rdx	64'0	0
rsi	64'0	0
rdi	64'0	0
rsp	ptr ( symloc ( 1 , 128 ) , 64'952 )	140737488345552
rbp	ptr ( symloc ( 1 , 128 ) , 64'976 )	140737488345576
r8	64'0	0
r9	64'0	0
r10	64'0	0
r11	64'0	0
r12	64'0	0
r13	64'0	0
r14	64'0	0
r15	64'0	0
cf	1'0	0
pf	1'1	0
af	ptr ( symloc ( 1 , 128 ) , 1'1 )	0
zf	1'0	0
sf	ptr ( symloc ( 1 , 128 ) , 1'0 )	0
of	1'0	0
ymm0	256'0	0x0000000000000000000000000000000000000000000000007ff8000000000000
ymm1	256'0	0x0000000000000000000000000000000000000000000000007ff8000000000000
ymm2	256'0	0x0000000000000000000000000000000000000000000000000000000000000000
ymm3	256'0	0x0000000000000000000000000000000000000000000000000000000000000000
ymm4	256'0	0x0000000000000000000000000000000000000000000000000000000000000000
ymm5	256'0	0x0000000000000000000000000000000000000000000000000000000000000000
ymm6	256'0	0x0000000000000000000000000000000000000000000000000000000000000000
ymm7	256'0	0x0000000000000000000000000000000000000000000000000000000000000000
ymm8	256'0	0x0000000000000000000000000000000000000000000000000000000000000000
ymm9	256'0	0x0000000000000000000000000000000000000000000000000000000000000000
ymm10	256'0	0x0000000000000000000000000000000000000000000000000000000000000000
ymm11	256'0	0x0000000000000000000000000000000000000000000000000000000000000000
ymm12	256'0	0x0000000000000000000000000000000000000000000000000000000000000000
ymm13	256'0	0x0000000000000000000000000000000000000000000000000000000000000000
ymm14	256'0	0x0000000000000000000000000000000000000000000000000000000000000000
ymm15	256'0	0x0000000000000000000000000000000000000000000000000000000000000000

Count 137) reg	kstate	xstate		89 7d ec	mov    %edi,-0x14(%rbp)
---------------------
rax	64'0	9221120237041090560
rbx	64'0	0
rcx	64'0	0
rdx	64'0	0
rsi	64'0	0
rdi	64'0	0
rsp	ptr ( symloc ( 1 , 128 ) , 64'952 )	140737488345552
rbp	ptr ( symloc ( 1 , 128 ) , 64'976 )	140737488345576
r8	64'0	0
r9	64'0	0
r10	64'0	0
r11	64'0	0
r12	64'0	0
r13	64'0	0
r14	64'0	0
r15	64'0	0
cf	1'0	0
pf	1'1	0
af	ptr ( symloc ( 1 , 128 ) , 1'1 )	0
zf	1'0	0
sf	ptr ( symloc ( 1 , 128 ) , 1'0 )	0
of	1'0	0
ymm0	256'0	0x0000000000000000000000000000000000000000000000007ff8000000000000
ymm1	256'0	0x0000000000000000000000000000000000000000000000007ff8000000000000
ymm2	256'0	0x0000000000000000000000000000000000000000000000000000000000000000
ymm3	256'0	0x0000000000000000000000000000000000000000000000000000000000000000
ymm4	256'0	0x0000000000000000000000000000000000000000000000000000000000000000
ymm5	256'0	0x0000000000000000000000000000000000000000000000000000000000000000
ymm6	256'0	0x0000000000000000000000000000000000000000000000000000000000000000
ymm7	256'0	0x0000000000000000000000000000000000000000000000000000000000000000
ymm8	256'0	0x0000000000000000000000000000000000000000000000000000000000000000
ymm9	256'0	0x0000000000000000000000000000000000000000000000000000000000000000
ymm10	256'0	0x0000000000000000000000000000000000000000000000000000000000000000
ymm11	256'0	0x0000000000000000000000000000000000000000000000000000000000000000
ymm12	256'0	0x0000000000000000000000000000000000000000000000000000000000000000
ymm13	256'0	0x0000000000000000000000000000000000000000000000000000000000000000
ymm14	256'0	0x0000000000000000000000000000000000000000000000000000000000000000
ymm15	256'0	0x0000000000000000000000000000000000000000000000000000000000000000

Count 138) reg	kstate	xstate		c5 fb 10 45 f0	vmovsd -0x10(%rbp),%xmm0
---------------------
rax	64'0	9221120237041090560
rbx	64'0	0
rcx	64'0	0
rdx	64'0	0
rsi	64'0	0
rdi	64'0	0
rsp	ptr ( symloc ( 1 , 128 ) , 64'952 )	140737488345552
rbp	ptr ( symloc ( 1 , 128 ) , 64'976 )	140737488345576
r8	64'0	0
r9	64'0	0
r10	64'0	0
r11	64'0	0
r12	64'0	0
r13	64'0	0
r14	64'0	0
r15	64'0	0
cf	1'0	0
pf	1'1	0
af	ptr ( symloc ( 1 , 128 ) , 1'1 )	0
zf	1'0	0
sf	ptr ( symloc ( 1 , 128 ) , 1'0 )	0
of	1'0	0
ymm0	256'0	0x0000000000000000000000000000000000000000000000007ff8000000000000
ymm1	256'0	0x0000000000000000000000000000000000000000000000007ff8000000000000
ymm2	256'0	0x0000000000000000000000000000000000000000000000000000000000000000
ymm3	256'0	0x0000000000000000000000000000000000000000000000000000000000000000
ymm4	256'0	0x0000000000000000000000000000000000000000000000000000000000000000
ymm5	256'0	0x0000000000000000000000000000000000000000000000000000000000000000
ymm6	256'0	0x0000000000000000000000000000000000000000000000000000000000000000
ymm7	256'0	0x0000000000000000000000000000000000000000000000000000000000000000
ymm8	256'0	0x0000000000000000000000000000000000000000000000000000000000000000
ymm9	256'0	0x0000000000000000000000000000000000000000000000000000000000000000
ymm10	256'0	0x0000000000000000000000000000000000000000000000000000000000000000
ymm11	256'0	0x0000000000000000000000000000000000000000000000000000000000000000
ymm12	256'0	0x0000000000000000000000000000000000000000000000000000000000000000
ymm13	256'0	0x0000000000000000000000000000000000000000000000000000000000000000
ymm14	256'0	0x0000000000000000000000000000000000000000000000000000000000000000
ymm15	256'0	0x0000000000000000000000000000000000000000000000000000000000000000

Count 139) reg	kstate	xstate		c5 f9 2e 45 f8	vucomisd -0x8(%rbp),%xmm0
---------------------
rax	64'0	9221120237041090560
rbx	64'0	0
rcx	64'0	0
rdx	64'0	0
rsi	64'0	0
rdi	64'0	0
rsp	ptr ( symloc ( 1 , 128 ) , 64'952 )	140737488345552
rbp	ptr ( symloc ( 1 , 128 ) , 64'976 )	140737488345576
r8	64'0	0
r9	64'0	0
r10	64'0	0
r11	64'0	0
r12	64'0	0
r13	64'0	0
r14	64'0	0
r15	64'0	0
cf	1'0	0
pf	1'1	0
af	ptr ( symloc ( 1 , 128 ) , 1'1 )	0
zf	1'0	0
sf	ptr ( symloc ( 1 , 128 ) , 1'0 )	0
of	1'0	0
ymm0	256'0	0x0000000000000000000000000000000000000000000000007ff8000000000000
ymm1	256'0	0x0000000000000000000000000000000000000000000000007ff8000000000000
ymm2	256'0	0x0000000000000000000000000000000000000000000000000000000000000000
ymm3	256'0	0x0000000000000000000000000000000000000000000000000000000000000000
ymm4	256'0	0x0000000000000000000000000000000000000000000000000000000000000000
ymm5	256'0	0x0000000000000000000000000000000000000000000000000000000000000000
ymm6	256'0	0x0000000000000000000000000000000000000000000000000000000000000000
ymm7	256'0	0x0000000000000000000000000000000000000000000000000000000000000000
ymm8	256'0	0x0000000000000000000000000000000000000000000000000000000000000000
ymm9	256'0	0x0000000000000000000000000000000000000000000000000000000000000000
ymm10	256'0	0x0000000000000000000000000000000000000000000000000000000000000000
ymm11	256'0	0x0000000000000000000000000000000000000000000000000000000000000000
ymm12	256'0	0x0000000000000000000000000000000000000000000000000000000000000000
ymm13	256'0	0x0000000000000000000000000000000000000000000000000000000000000000
ymm14	256'0	0x0000000000000000000000000000000000000000000000000000000000000000
ymm15	256'0	0x0000000000000000000000000000000000000000000000000000000000000000

Count 140) reg	kstate	xstate		0f 92 c0	setb   %al
---------------------
rax	64'0	9221120237041090560
rbx	64'0	0
rcx	64'0	0
rdx	64'0	0
rsi	64'0	0
rdi	64'0	0
rsp	ptr ( symloc ( 1 , 128 ) , 64'952 )	140737488345552
rbp	ptr ( symloc ( 1 , 128 ) , 64'976 )	140737488345576
r8	64'0	0
r9	64'0	0
r10	64'0	0
r11	64'0	0
r12	64'0	0
r13	64'0	0
r14	64'0	0
r15	64'0	0
cf	1'0	1
pf	1'0	1
af	1'0	0
zf	1'1	1
sf	1'0	0
of	1'0	0
ymm0	256'0	0x0000000000000000000000000000000000000000000000007ff8000000000000
ymm1	256'0	0x0000000000000000000000000000000000000000000000007ff8000000000000
ymm2	256'0	0x0000000000000000000000000000000000000000000000000000000000000000
ymm3	256'0	0x0000000000000000000000000000000000000000000000000000000000000000
ymm4	256'0	0x0000000000000000000000000000000000000000000000000000000000000000
ymm5	256'0	0x0000000000000000000000000000000000000000000000000000000000000000
ymm6	256'0	0x0000000000000000000000000000000000000000000000000000000000000000
ymm7	256'0	0x0000000000000000000000000000000000000000000000000000000000000000
ymm8	256'0	0x0000000000000000000000000000000000000000000000000000000000000000
ymm9	256'0	0x0000000000000000000000000000000000000000000000000000000000000000
ymm10	256'0	0x0000000000000000000000000000000000000000000000000000000000000000
ymm11	256'0	0x0000000000000000000000000000000000000000000000000000000000000000
ymm12	256'0	0x0000000000000000000000000000000000000000000000000000000000000000
ymm13	256'0	0x0000000000000000000000000000000000000000000000000000000000000000
ymm14	256'0	0x0000000000000000000000000000000000000000000000000000000000000000
ymm15	256'0	0x0000000000000000000000000000000000000000000000000000000000000000

Count 141) reg	kstate	xstate		83 f0 01	xor    $0x1,%eax
---------------------
rax	64'0	9221120237041090561
rbx	64'0	0
rcx	64'0	0
rdx	64'0	0
rsi	64'0	0
rdi	64'0	0
rsp	ptr ( symloc ( 1 , 128 ) , 64'952 )	140737488345552
rbp	ptr ( symloc ( 1 , 128 ) , 64'976 )	140737488345576
r8	64'0	0
r9	64'0	0
r10	64'0	0
r11	64'0	0
r12	64'0	0
r13	64'0	0
r14	64'0	0
r15	64'0	0
cf	1'0	1
pf	1'0	1
af	1'0	0
zf	1'1	1
sf	1'0	0
of	1'0	0
ymm0	256'0	0x0000000000000000000000000000000000000000000000007ff8000000000000
ymm1	256'0	0x0000000000000000000000000000000000000000000000007ff8000000000000
ymm2	256'0	0x0000000000000000000000000000000000000000000000000000000000000000
ymm3	256'0	0x0000000000000000000000000000000000000000000000000000000000000000
ymm4	256'0	0x0000000000000000000000000000000000000000000000000000000000000000
ymm5	256'0	0x0000000000000000000000000000000000000000000000000000000000000000
ymm6	256'0	0x0000000000000000000000000000000000000000000000000000000000000000
ymm7	256'0	0x0000000000000000000000000000000000000000000000000000000000000000
ymm8	256'0	0x0000000000000000000000000000000000000000000000000000000000000000
ymm9	256'0	0x0000000000000000000000000000000000000000000000000000000000000000
ymm10	256'0	0x0000000000000000000000000000000000000000000000000000000000000000
ymm11	256'0	0x0000000000000000000000000000000000000000000000000000000000000000
ymm12	256'0	0x0000000000000000000000000000000000000000000000000000000000000000
ymm13	256'0	0x0000000000000000000000000000000000000000000000000000000000000000
ymm14	256'0	0x0000000000000000000000000000000000000000000000000000000000000000
ymm15	256'0	0x0000000000000000000000000000000000000000000000000000000000000000

Count 142) reg	kstate	xstate		84 c0	test   %al,%al
---------------------
rax	64'1	0
rbx	64'0	0
rcx	64'0	0
rdx	64'0	0
rsi	64'0	0
rdi	64'0	0
rsp	ptr ( symloc ( 1 , 128 ) , 64'952 )	140737488345552
rbp	ptr ( symloc ( 1 , 128 ) , 64'976 )	140737488345576
r8	64'0	0
r9	64'0	0
r10	64'0	0
r11	64'0	0
r12	64'0	0
r13	64'0	0
r14	64'0	0
r15	64'0	0
cf	1'0	0
pf	1'0	1
af	undefMInt	0
zf	1'0	1
sf	1'0	0
of	1'0	0
ymm0	256'0	0x0000000000000000000000000000000000000000000000007ff8000000000000
ymm1	256'0	0x0000000000000000000000000000000000000000000000007ff8000000000000
ymm2	256'0	0x0000000000000000000000000000000000000000000000000000000000000000
ymm3	256'0	0x0000000000000000000000000000000000000000000000000000000000000000
ymm4	256'0	0x0000000000000000000000000000000000000000000000000000000000000000
ymm5	256'0	0x0000000000000000000000000000000000000000000000000000000000000000
ymm6	256'0	0x0000000000000000000000000000000000000000000000000000000000000000
ymm7	256'0	0x0000000000000000000000000000000000000000000000000000000000000000
ymm8	256'0	0x0000000000000000000000000000000000000000000000000000000000000000
ymm9	256'0	0x0000000000000000000000000000000000000000000000000000000000000000
ymm10	256'0	0x0000000000000000000000000000000000000000000000000000000000000000
ymm11	256'0	0x0000000000000000000000000000000000000000000000000000000000000000
ymm12	256'0	0x0000000000000000000000000000000000000000000000000000000000000000
ymm13	256'0	0x0000000000000000000000000000000000000000000000000000000000000000
ymm14	256'0	0x0000000000000000000000000000000000000000000000000000000000000000
ymm15	256'0	0x0000000000000000000000000000000000000000000000000000000000000000

Count 143) reg	kstate	xstate		74 0b	je     0x4003cf <L54>
---------------------
rax	64'1	0
rbx	64'0	0
rcx	64'0	0
rdx	64'0	0
rsi	64'0	0
rdi	64'0	0
rsp	ptr ( symloc ( 1 , 128 ) , 64'952 )	140737488345552
rbp	ptr ( symloc ( 1 , 128 ) , 64'976 )	140737488345576
r8	64'0	0
r9	64'0	0
r10	64'0	0
r11	64'0	0
r12	64'0	0
r13	64'0	0
r14	64'0	0
r15	64'0	0
cf	1'0	0
pf	1'0	1
af	undefMInt	0
zf	1'0	1
sf	1'0	0
of	1'0	0
ymm0	256'0	0x0000000000000000000000000000000000000000000000007ff8000000000000
ymm1	256'0	0x0000000000000000000000000000000000000000000000007ff8000000000000
ymm2	256'0	0x0000000000000000000000000000000000000000000000000000000000000000
ymm3	256'0	0x0000000000000000000000000000000000000000000000000000000000000000
ymm4	256'0	0x0000000000000000000000000000000000000000000000000000000000000000
ymm5	256'0	0x0000000000000000000000000000000000000000000000000000000000000000
ymm6	256'0	0x0000000000000000000000000000000000000000000000000000000000000000
ymm7	256'0	0x0000000000000000000000000000000000000000000000000000000000000000
ymm8	256'0	0x0000000000000000000000000000000000000000000000000000000000000000
ymm9	256'0	0x0000000000000000000000000000000000000000000000000000000000000000
ymm10	256'0	0x0000000000000000000000000000000000000000000000000000000000000000
ymm11	256'0	0x0000000000000000000000000000000000000000000000000000000000000000
ymm12	256'0	0x0000000000000000000000000000000000000000000000000000000000000000
ymm13	256'0	0x0000000000000000000000000000000000000000000000000000000000000000
ymm14	256'0	0x0000000000000000000000000000000000000000000000000000000000000000
ymm15	256'0	0x0000000000000000000000000000000000000000000000000000000000000000

Count 144) reg	kstate	xstate		83 7d ec 00	cmpl   $0x0,-0x14(%rbp)
---------------------
rax	64'1	0
rbx	64'0	0
rcx	64'0	0
rdx	64'0	0
rsi	64'0	0
rdi	64'0	0
rsp	ptr ( symloc ( 1 , 128 ) , 64'952 )	140737488345552
rbp	ptr ( symloc ( 1 , 128 ) , 64'976 )	140737488345576
r8	64'0	0
r9	64'0	0
r10	64'0	0
r11	64'0	0
r12	64'0	0
r13	64'0	0
r14	64'0	0
r15	64'0	0
cf	1'0	0
pf	1'0	1
af	undefMInt	0
zf	1'0	1
sf	1'0	0
of	1'0	0
ymm0	256'0	0x0000000000000000000000000000000000000000000000007ff8000000000000
ymm1	256'0	0x0000000000000000000000000000000000000000000000007ff8000000000000
ymm2	256'0	0x0000000000000000000000000000000000000000000000000000000000000000
ymm3	256'0	0x0000000000000000000000000000000000000000000000000000000000000000
ymm4	256'0	0x0000000000000000000000000000000000000000000000000000000000000000
ymm5	256'0	0x0000000000000000000000000000000000000000000000000000000000000000
ymm6	256'0	0x0000000000000000000000000000000000000000000000000000000000000000
ymm7	256'0	0x0000000000000000000000000000000000000000000000000000000000000000
ymm8	256'0	0x0000000000000000000000000000000000000000000000000000000000000000
ymm9	256'0	0x0000000000000000000000000000000000000000000000000000000000000000
ymm10	256'0	0x0000000000000000000000000000000000000000000000000000000000000000
ymm11	256'0	0x0000000000000000000000000000000000000000000000000000000000000000
ymm12	256'0	0x0000000000000000000000000000000000000000000000000000000000000000
ymm13	256'0	0x0000000000000000000000000000000000000000000000000000000000000000
ymm14	256'0	0x0000000000000000000000000000000000000000000000000000000000000000
ymm15	256'0	0x0000000000000000000000000000000000000000000000000000000000000000

Count 145) reg	kstate	xstate		74 05	je     0x4003da <L56>
---------------------
rax	64'1	0
rbx	64'0	0
rcx	64'0	0
rdx	64'0	0
rsi	64'0	0
rdi	64'0	0
rsp	ptr ( symloc ( 1 , 128 ) , 64'952 )	140737488345552
rbp	ptr ( symloc ( 1 , 128 ) , 64'976 )	140737488345576
r8	64'0	0
r9	64'0	0
r10	64'0	0
r11	64'0	0
r12	64'0	0
r13	64'0	0
r14	64'0	0
r15	64'0	0
cf	1'0	0
pf	1'1	1
af	1'0	0
zf	1'1	1
sf	1'0	0
of	1'0	0
ymm0	256'0	0x0000000000000000000000000000000000000000000000007ff8000000000000
ymm1	256'0	0x0000000000000000000000000000000000000000000000007ff8000000000000
ymm2	256'0	0x0000000000000000000000000000000000000000000000000000000000000000
ymm3	256'0	0x0000000000000000000000000000000000000000000000000000000000000000
ymm4	256'0	0x0000000000000000000000000000000000000000000000000000000000000000
ymm5	256'0	0x0000000000000000000000000000000000000000000000000000000000000000
ymm6	256'0	0x0000000000000000000000000000000000000000000000000000000000000000
ymm7	256'0	0x0000000000000000000000000000000000000000000000000000000000000000
ymm8	256'0	0x0000000000000000000000000000000000000000000000000000000000000000
ymm9	256'0	0x0000000000000000000000000000000000000000000000000000000000000000
ymm10	256'0	0x0000000000000000000000000000000000000000000000000000000000000000
ymm11	256'0	0x0000000000000000000000000000000000000000000000000000000000000000
ymm12	256'0	0x0000000000000000000000000000000000000000000000000000000000000000
ymm13	256'0	0x0000000000000000000000000000000000000000000000000000000000000000
ymm14	256'0	0x0000000000000000000000000000000000000000000000000000000000000000
ymm15	256'0	0x0000000000000000000000000000000000000000000000000000000000000000

Count 146) reg	kstate	xstate		90	nop
---------------------
rax	64'1	0
rbx	64'0	0
rcx	64'0	0
rdx	64'0	0
rsi	64'0	0
rdi	64'0	0
rsp	ptr ( symloc ( 1 , 128 ) , 64'952 )	140737488345552
rbp	ptr ( symloc ( 1 , 128 ) , 64'976 )	140737488345576
r8	64'0	0
r9	64'0	0
r10	64'0	0
r11	64'0	0
r12	64'0	0
r13	64'0	0
r14	64'0	0
r15	64'0	0
cf	1'0	0
pf	1'1	1
af	1'0	0
zf	1'1	1
sf	1'0	0
of	1'0	0
ymm0	256'0	0x0000000000000000000000000000000000000000000000007ff8000000000000
ymm1	256'0	0x0000000000000000000000000000000000000000000000007ff8000000000000
ymm2	256'0	0x0000000000000000000000000000000000000000000000000000000000000000
ymm3	256'0	0x0000000000000000000000000000000000000000000000000000000000000000
ymm4	256'0	0x0000000000000000000000000000000000000000000000000000000000000000
ymm5	256'0	0x0000000000000000000000000000000000000000000000000000000000000000
ymm6	256'0	0x0000000000000000000000000000000000000000000000000000000000000000
ymm7	256'0	0x0000000000000000000000000000000000000000000000000000000000000000
ymm8	256'0	0x0000000000000000000000000000000000000000000000000000000000000000
ymm9	256'0	0x0000000000000000000000000000000000000000000000000000000000000000
ymm10	256'0	0x0000000000000000000000000000000000000000000000000000000000000000
ymm11	256'0	0x0000000000000000000000000000000000000000000000000000000000000000
ymm12	256'0	0x0000000000000000000000000000000000000000000000000000000000000000
ymm13	256'0	0x0000000000000000000000000000000000000000000000000000000000000000
ymm14	256'0	0x0000000000000000000000000000000000000000000000000000000000000000
ymm15	256'0	0x0000000000000000000000000000000000000000000000000000000000000000

Count 147) reg	kstate	xstate		c9	leaveq 
---------------------
rax	64'1	0
rbx	64'0	0
rcx	64'0	0
rdx	64'0	0
rsi	64'0	0
rdi	64'0	0
rsp	ptr ( symloc ( 1 , 128 ) , 64'944 )	140737488345552
rbp	ptr ( symloc ( 1 , 128 ) , 64'976 )	140737488345576
r8	64'0	0
r9	64'0	0
r10	64'0	0
r11	64'0	0
r12	64'0	0
r13	64'0	0
r14	64'0	0
r15	64'0	0
cf	1'0	0
pf	1'1	1
af	1'0	0
zf	1'1	1
sf	1'0	0
of	1'0	0
ymm0	256'0	0x0000000000000000000000000000000000000000000000007ff8000000000000
ymm1	256'0	0x0000000000000000000000000000000000000000000000007ff8000000000000
ymm2	256'0	0x0000000000000000000000000000000000000000000000000000000000000000
ymm3	256'0	0x0000000000000000000000000000000000000000000000000000000000000000
ymm4	256'0	0x0000000000000000000000000000000000000000000000000000000000000000
ymm5	256'0	0x0000000000000000000000000000000000000000000000000000000000000000
ymm6	256'0	0x0000000000000000000000000000000000000000000000000000000000000000
ymm7	256'0	0x0000000000000000000000000000000000000000000000000000000000000000
ymm8	256'0	0x0000000000000000000000000000000000000000000000000000000000000000
ymm9	256'0	0x0000000000000000000000000000000000000000000000000000000000000000
ymm10	256'0	0x0000000000000000000000000000000000000000000000000000000000000000
ymm11	256'0	0x0000000000000000000000000000000000000000000000000000000000000000
ymm12	256'0	0x0000000000000000000000000000000000000000000000000000000000000000
ymm13	256'0	0x0000000000000000000000000000000000000000000000000000000000000000
ymm14	256'0	0x0000000000000000000000000000000000000000000000000000000000000000
ymm15	256'0	0x0000000000000000000000000000000000000000000000000000000000000000

Count 148) reg	kstate	xstate		c3	retq   
---------------------
rax	64'1	0
rbx	64'0	0
rcx	64'0	0
rdx	64'0	0
rsi	64'0	0
rdi	64'0	0
rsp	ptr ( symloc ( 1 , 128 ) , 64'936 )	140737488345584
rbp	ptr ( symloc ( 1 , 128 ) , 64'976 )	140737488345608
r8	64'0	0
r9	64'0	0
r10	64'0	0
r11	64'0	0
r12	64'0	0
r13	64'0	0
r14	64'0	0
r15	64'0	0
cf	1'0	0
pf	1'1	1
af	1'0	0
zf	1'1	1
sf	1'0	0
of	1'0	0
ymm0	256'0	0x0000000000000000000000000000000000000000000000007ff8000000000000
ymm1	256'0	0x0000000000000000000000000000000000000000000000007ff8000000000000
ymm2	256'0	0x0000000000000000000000000000000000000000000000000000000000000000
ymm3	256'0	0x0000000000000000000000000000000000000000000000000000000000000000
ymm4	256'0	0x0000000000000000000000000000000000000000000000000000000000000000
ymm5	256'0	0x0000000000000000000000000000000000000000000000000000000000000000
ymm6	256'0	0x0000000000000000000000000000000000000000000000000000000000000000
ymm7	256'0	0x0000000000000000000000000000000000000000000000000000000000000000
ymm8	256'0	0x0000000000000000000000000000000000000000000000000000000000000000
ymm9	256'0	0x0000000000000000000000000000000000000000000000000000000000000000
ymm10	256'0	0x0000000000000000000000000000000000000000000000000000000000000000
ymm11	256'0	0x0000000000000000000000000000000000000000000000000000000000000000
ymm12	256'0	0x0000000000000000000000000000000000000000000000000000000000000000
ymm13	256'0	0x0000000000000000000000000000000000000000000000000000000000000000
ymm14	256'0	0x0000000000000000000000000000000000000000000000000000000000000000
ymm15	256'0	0x0000000000000000000000000000000000000000000000000000000000000000

Count 149) reg	kstate	xstate		8b 45 f8	mov    -0x8(%rbp),%eax
---------------------
rax	64'1	0
rbx	64'0	0
rcx	64'0	0
rdx	64'0	0
rsi	64'0	0
rdi	64'0	0
rsp	ptr ( symloc ( 1 , 128 ) , 64'936 )	140737488345592
rbp	ptr ( symloc ( 1 , 128 ) , 64'936 )	140737488345608
r8	64'0	0
r9	64'0	0
r10	64'0	0
r11	64'0	0
r12	64'0	0
r13	64'0	0
r14	64'0	0
r15	64'0	0
cf	1'0	0
pf	1'1	1
af	1'0	0
zf	1'1	1
sf	1'0	0
of	1'0	0
ymm0	256'0	0x0000000000000000000000000000000000000000000000007ff8000000000000
ymm1	256'0	0x0000000000000000000000000000000000000000000000007ff8000000000000
ymm2	256'0	0x0000000000000000000000000000000000000000000000000000000000000000
ymm3	256'0	0x0000000000000000000000000000000000000000000000000000000000000000
ymm4	256'0	0x0000000000000000000000000000000000000000000000000000000000000000
ymm5	256'0	0x0000000000000000000000000000000000000000000000000000000000000000
ymm6	256'0	0x0000000000000000000000000000000000000000000000000000000000000000
ymm7	256'0	0x0000000000000000000000000000000000000000000000000000000000000000
ymm8	256'0	0x0000000000000000000000000000000000000000000000000000000000000000
ymm9	256'0	0x0000000000000000000000000000000000000000000000000000000000000000
ymm10	256'0	0x0000000000000000000000000000000000000000000000000000000000000000
ymm11	256'0	0x0000000000000000000000000000000000000000000000000000000000000000
ymm12	256'0	0x0000000000000000000000000000000000000000000000000000000000000000
ymm13	256'0	0x0000000000000000000000000000000000000000000000000000000000000000
ymm14	256'0	0x0000000000000000000000000000000000000000000000000000000000000000
ymm15	256'0	0x0000000000000000000000000000000000000000000000000000000000000000

Count 150) reg	kstate	xstate		48 63 d0	movslq %eax,%rdx
---------------------
rax	64'-1	0
rbx	64'0	0
rcx	64'0	0
rdx	64'0	0
rsi	64'0	0
rdi	64'0	0
rsp	ptr ( symloc ( 1 , 128 ) , 64'936 )	140737488345592
rbp	ptr ( symloc ( 1 , 128 ) , 64'936 )	140737488345608
r8	64'0	0
r9	64'0	0
r10	64'0	0
r11	64'0	0
r12	64'0	0
r13	64'0	0
r14	64'0	0
r15	64'0	0
cf	1'0	0
pf	1'1	1
af	1'0	0
zf	1'1	1
sf	1'0	0
of	1'0	0
ymm0	256'0	0x0000000000000000000000000000000000000000000000007ff8000000000000
ymm1	256'0	0x0000000000000000000000000000000000000000000000007ff8000000000000
ymm2	256'0	0x0000000000000000000000000000000000000000000000000000000000000000
ymm3	256'0	0x0000000000000000000000000000000000000000000000000000000000000000
ymm4	256'0	0x0000000000000000000000000000000000000000000000000000000000000000
ymm5	256'0	0x0000000000000000000000000000000000000000000000000000000000000000
ymm6	256'0	0x0000000000000000000000000000000000000000000000000000000000000000
ymm7	256'0	0x0000000000000000000000000000000000000000000000000000000000000000
ymm8	256'0	0x0000000000000000000000000000000000000000000000000000000000000000
ymm9	256'0	0x0000000000000000000000000000000000000000000000000000000000000000
ymm10	256'0	0x0000000000000000000000000000000000000000000000000000000000000000
ymm11	256'0	0x0000000000000000000000000000000000000000000000000000000000000000
ymm12	256'0	0x0000000000000000000000000000000000000000000000000000000000000000
ymm13	256'0	0x0000000000000000000000000000000000000000000000000000000000000000
ymm14	256'0	0x0000000000000000000000000000000000000000000000000000000000000000
ymm15	256'0	0x0000000000000000000000000000000000000000000000000000000000000000

Count 151) reg	kstate	xstate		48 89 d0	mov    %rdx,%rax
---------------------
rax	64'-1	0
rbx	64'0	0
rcx	64'0	0
rdx	64'0	0
rsi	64'0	0
rdi	64'0	0
rsp	ptr ( symloc ( 1 , 128 ) , 64'936 )	140737488345592
rbp	ptr ( symloc ( 1 , 128 ) , 64'936 )	140737488345608
r8	64'0	0
r9	64'0	0
r10	64'0	0
r11	64'0	0
r12	64'0	0
r13	64'0	0
r14	64'0	0
r15	64'0	0
cf	1'0	0
pf	1'1	1
af	1'0	0
zf	1'1	1
sf	1'0	0
of	1'0	0
ymm0	256'0	0x0000000000000000000000000000000000000000000000007ff8000000000000
ymm1	256'0	0x0000000000000000000000000000000000000000000000007ff8000000000000
ymm2	256'0	0x0000000000000000000000000000000000000000000000000000000000000000
ymm3	256'0	0x0000000000000000000000000000000000000000000000000000000000000000
ymm4	256'0	0x0000000000000000000000000000000000000000000000000000000000000000
ymm5	256'0	0x0000000000000000000000000000000000000000000000000000000000000000
ymm6	256'0	0x0000000000000000000000000000000000000000000000000000000000000000
ymm7	256'0	0x0000000000000000000000000000000000000000000000000000000000000000
ymm8	256'0	0x0000000000000000000000000000000000000000000000000000000000000000
ymm9	256'0	0x0000000000000000000000000000000000000000000000000000000000000000
ymm10	256'0	0x0000000000000000000000000000000000000000000000000000000000000000
ymm11	256'0	0x0000000000000000000000000000000000000000000000000000000000000000
ymm12	256'0	0x0000000000000000000000000000000000000000000000000000000000000000
ymm13	256'0	0x0000000000000000000000000000000000000000000000000000000000000000
ymm14	256'0	0x0000000000000000000000000000000000000000000000000000000000000000
ymm15	256'0	0x0000000000000000000000000000000000000000000000000000000000000000
[4m[1m[34mfp-cmp-4 Compare Results :[0m
Failed:[4m[1m[91mfp-cmp-4: kstate xstate count unequal[0m
kstates = 5776
xstates = 66272

Failed:[4m[1m[91mFail[0m
1 != 0
pf at instrcount: 16

Failed:[4m[1m[91mFail[0m
1 != 0
zf at instrcount: 16

Failed:[4m[1m[91mFail[0m
0000000000000000 != 0000000000000001
rax at instrcount: 16

Failed:[4m[1m[91mFail[0m
1 != 0
pf at instrcount: 17

Failed:[4m[1m[91mFail[0m
1 != 0
zf at instrcount: 17

Failed:[4m[1m[91mFail[0m
0000000000000000 != 0000000000000001
rax at instrcount: 17

Failed:[4m[1m[91mFail[0m
1 != 0
pf at instrcount: 18

Failed:[4m[1m[91mFail[0m
1 != 0
zf at instrcount: 18

Failed:[4m[1m[91mFail[0m
0000000000000000 != 0000000000000001
rax at instrcount: 18

Failed:[4m[1m[91mFail[0m
0000000000000000 != 0000000000000001
rcx at instrcount: 19

Failed:[4m[1m[91mFail[0m
1 != 0
pf at instrcount: 19

Failed:[4m[1m[91mFail[0m
1 != 0
zf at instrcount: 19

Failed:[4m[1m[91mFail[0m
0000000000000000 != 0000000000000001
rcx at instrcount: 20

Failed:[4m[1m[91mFail[0m
1 != 0
pf at instrcount: 20

Failed:[4m[1m[91mFail[0m
1 != 0
zf at instrcount: 20

Failed:[4m[1m[91mFail[0m
0000000000000000 != 0000000000000001
rcx at instrcount: 21

Failed:[4m[1m[91mFail[0m
1 != 0
pf at instrcount: 21

Failed:[4m[1m[91mFail[0m
1 != 0
zf at instrcount: 21

Failed:[4m[1m[91mFail[0m
0000000000000000 != 0000000000000001
rcx at instrcount: 22

Failed:[4m[1m[91mFail[0m
1 != 0
pf at instrcount: 22

Failed:[4m[1m[91mFail[0m
1 != 0
zf at instrcount: 22

Failed:[4m[1m[91mFail[0m
0000000000000000 != 0000000000000001
rcx at instrcount: 23

Failed:[4m[1m[91mFail[0m
0000000000000000 != 0000000000000001
rcx at instrcount: 24

Failed:[4m[1m[91mFail[0m
0000000000000000 != 0000000000000001
rcx at instrcount: 25

Failed:[4m[1m[91mFail[0m
0000000000000000 != 0000000000000001
rcx at instrcount: 25

Failed:[4m[1m[91mFail[0m
0000000000000000 != 0000000000000001
rcx at instrcount: 25

Failed:[4m[1m[91mFail[0m
0000000000000000000000000000000000000000000000000000000000000000 != 0000000000000000000000000000000000000000000000007ff8000000000000
ymm0 at instrcount: 25

Failed:[4m[1m[91mFail[0m
0000000000000000 != 0000000000000001
rcx at instrcount: 26

Failed:[4m[1m[91mFail[0m
0000000000000000000000000000000000000000000000000000000000000000 != 0000000000000000000000000000000000000000000000007ff8000000000000
ymm0 at instrcount: 26

Failed:[4m[1m[91mFail[0m
0000000000000000 != 0000000000000001
rcx at instrcount: 27

Failed:[4m[1m[91mFail[0m
0000000000000000000000000000000000000000000000000000000000000000 != 0000000000000000000000000000000000000000000000007ff8000000000000
ymm0 at instrcount: 27

Failed:[4m[1m[91mFail[0m
0000000000000000 != 0000000000000001
rcx at instrcount: 28

Failed:[4m[1m[91mFail[0m
0000000000000000000000000000000000000000000000000000000000000000 != 0000000000000000000000000000000000000000000000007ff8000000000000
ymm0 at instrcount: 28

Failed:[4m[1m[91mFail[0m
0000000000000000 != 0000000000000001
rcx at instrcount: 29

Failed:[4m[1m[91mFail[0m
0000000000000000000000000000000000000000000000000000000000000000 != 0000000000000000000000000000000000000000000000007ff8000000000000
ymm0 at instrcount: 29

Failed:[4m[1m[91mFail[0m
0000000000000000 != 0000000000000001
rcx at instrcount: 30

Failed:[4m[1m[91mFail[0m
0000000000000000000000000000000000000000000000000000000000000000 != 0000000000000000000000000000000000000000000000007ff8000000000000
ymm0 at instrcount: 30

Failed:[4m[1m[91mFail[0m
0000000000000000 != 0000000000000001
rcx at instrcount: 31

Failed:[4m[1m[91mFail[0m
0000000000000000000000000000000000000000000000000000000000000000 != 0000000000000000000000000000000000000000000000007ff8000000000000
ymm0 at instrcount: 31

Failed:[4m[1m[91mFail[0m
0000000000000000 != 0000000000000001
rcx at instrcount: 31

Failed:[4m[1m[91mFail[0m
1 != 0
pf at instrcount: 31

Failed:[4m[1m[91mFail[0m
1 != 0
zf at instrcount: 31

Failed:[4m[1m[91mFail[0m
0000000000000000000000000000000000000000000000000000000000000000 != 0000000000000000000000000000000000000000000000007ff8000000000000
ymm0 at instrcount: 31

Failed:[4m[1m[91mFail[0m
0000000000000000 != 7ff8000000000000
rax at instrcount: 31

Failed:[4m[1m[91mFail[0m
0000000000000000 != 0000000000000001
rcx at instrcount: 32

Failed:[4m[1m[91mFail[0m
1 != 0
pf at instrcount: 32

Failed:[4m[1m[91mFail[0m
1 != 0
zf at instrcount: 32

Failed:[4m[1m[91mFail[0m
0000000000000000000000000000000000000000000000000000000000000000 != 0000000000000000000000000000000000000000000000007ff8000000000000
ymm0 at instrcount: 32

Failed:[4m[1m[91mFail[0m
0000000000000000 != 7ff8000000000000
rax at instrcount: 32

Failed:[4m[1m[91mFail[0m
0000000000000000 != 0000000000000001
rcx at instrcount: 33

Failed:[4m[1m[91mFail[0m
0000000000000000 != 0000000000000001
rdi at instrcount: 33

Failed:[4m[1m[91mFail[0m
1 != 0
pf at instrcount: 33

Failed:[4m[1m[91mFail[0m
1 != 0
zf at instrcount: 33

Failed:[4m[1m[91mFail[0m
0000000000000000000000000000000000000000000000000000000000000000 != 0000000000000000000000000000000000000000000000007ff8000000000000
ymm0 at instrcount: 33

Failed:[4m[1m[91mFail[0m
0000000000000000 != 7ff8000000000000
rax at instrcount: 33

Failed:[4m[1m[91mFail[0m
0000000000000000 != 0000000000000001
rcx at instrcount: 34

Failed:[4m[1m[91mFail[0m
0000000000000000 != 0000000000000001
rdi at instrcount: 34

Failed:[4m[1m[91mFail[0m
1 != 0
pf at instrcount: 34

Failed:[4m[1m[91mFail[0m
1 != 0
zf at instrcount: 34

Failed:[4m[1m[91mFail[0m
0000000000000000000000000000000000000000000000000000000000000000 != 0000000000000000000000000000000000000000000000007ff8000000000000
ymm0 at instrcount: 34

Failed:[4m[1m[91mFail[0m
0000000000000000000000000000000000000000000000000000000000000000 != 0000000000000000000000000000000000000000000000007ff8000000000000
ymm1 at instrcount: 34

Failed:[4m[1m[91mFail[0m
0000000000000000 != 7ff8000000000000
rax at instrcount: 34

Failed:[4m[1m[91mFail[0m
0000000000000000 != 0000000000000001
rcx at instrcount: 35

Failed:[4m[1m[91mFail[0m
0000000000000000 != 0000000000000001
rdi at instrcount: 35

Failed:[4m[1m[91mFail[0m
1 != 0
pf at instrcount: 35

Failed:[4m[1m[91mFail[0m
1 != 0
zf at instrcount: 35

Failed:[4m[1m[91mFail[0m
0000000000000000000000000000000000000000000000000000000000000000 != 0000000000000000000000000000000000000000000000007ff8000000000000
ymm0 at instrcount: 35

Failed:[4m[1m[91mFail[0m
0000000000000000000000000000000000000000000000000000000000000000 != 0000000000000000000000000000000000000000000000007ff8000000000000
ymm1 at instrcount: 35

Failed:[4m[1m[91mFail[0m
0000000000000000 != 7ff8000000000000
rax at instrcount: 35

Failed:[4m[1m[91mFail[0m
0000000000000000 != 0000000000000001
rcx at instrcount: 36

Failed:[4m[1m[91mFail[0m
0000000000000000 != 0000000000000001
rdi at instrcount: 36

Failed:[4m[1m[91mFail[0m
1 != 0
pf at instrcount: 36

Failed:[4m[1m[91mFail[0m
1 != 0
zf at instrcount: 36

Failed:[4m[1m[91mFail[0m
0000000000000000000000000000000000000000000000000000000000000000 != 0000000000000000000000000000000000000000000000007ff8000000000000
ymm0 at instrcount: 36

Failed:[4m[1m[91mFail[0m
0000000000000000000000000000000000000000000000000000000000000000 != 0000000000000000000000000000000000000000000000007ff8000000000000
ymm1 at instrcount: 36

Failed:[4m[1m[91mFail[0m
0000000000000000 != 7ff8000000000000
rax at instrcount: 36

Failed:[4m[1m[91mFail[0m
0000000000000000 != 0000000000000001
rcx at instrcount: 37

Failed:[4m[1m[91mFail[0m
0000000000000000 != 0000000000000001
rdi at instrcount: 37

Failed:[4m[1m[91mFail[0m
1 != 0
pf at instrcount: 37

Failed:[4m[1m[91mFail[0m
1 != 0
zf at instrcount: 37

Failed:[4m[1m[91mFail[0m
0000000000000000000000000000000000000000000000000000000000000000 != 0000000000000000000000000000000000000000000000007ff8000000000000
ymm0 at instrcount: 37

Failed:[4m[1m[91mFail[0m
0000000000000000000000000000000000000000000000000000000000000000 != 0000000000000000000000000000000000000000000000007ff8000000000000
ymm1 at instrcount: 37

Failed:[4m[1m[91mFail[0m
0000000000000000 != 7ff8000000000000
rax at instrcount: 37

Failed:[4m[1m[91mFail[0m
0000000000000000 != 0000000000000001
rcx at instrcount: 38

Failed:[4m[1m[91mFail[0m
0000000000000000 != 0000000000000001
rdi at instrcount: 38

Failed:[4m[1m[91mFail[0m
1 != 0
pf at instrcount: 38

Failed:[4m[1m[91mFail[0m
1 != 0
zf at instrcount: 38

Failed:[4m[1m[91mFail[0m
0000000000000000000000000000000000000000000000000000000000000000 != 0000000000000000000000000000000000000000000000007ff8000000000000
ymm0 at instrcount: 38

Failed:[4m[1m[91mFail[0m
0000000000000000000000000000000000000000000000000000000000000000 != 0000000000000000000000000000000000000000000000007ff8000000000000
ymm1 at instrcount: 38

Failed:[4m[1m[91mFail[0m
0000000000000000 != 7ff8000000000000
rax at instrcount: 38

Failed:[4m[1m[91mFail[0m
0000000000000000 != 0000000000000001
rcx at instrcount: 39

Failed:[4m[1m[91mFail[0m
0000000000000000 != 0000000000000001
rdi at instrcount: 39

Failed:[4m[1m[91mFail[0m
1 != 0
pf at instrcount: 39

Failed:[4m[1m[91mFail[0m
0000000000000000000000000000000000000000000000000000000000000000 != 0000000000000000000000000000000000000000000000007ff8000000000000
ymm0 at instrcount: 39

Failed:[4m[1m[91mFail[0m
0000000000000000000000000000000000000000000000000000000000000000 != 0000000000000000000000000000000000000000000000007ff8000000000000
ymm1 at instrcount: 39

Failed:[4m[1m[91mFail[0m
0000000000000000 != 7ff8000000000000
rax at instrcount: 39

Failed:[4m[1m[91mFail[0m
0000000000000000 != 0000000000000001
rcx at instrcount: 40

Failed:[4m[1m[91mFail[0m
0000000000000000 != 0000000000000001
rdi at instrcount: 40

Failed:[4m[1m[91mFail[0m
1 != 0
pf at instrcount: 40

Failed:[4m[1m[91mFail[0m
0000000000000000000000000000000000000000000000000000000000000000 != 0000000000000000000000000000000000000000000000007ff8000000000000
ymm0 at instrcount: 40

Failed:[4m[1m[91mFail[0m
0000000000000000000000000000000000000000000000000000000000000000 != 0000000000000000000000000000000000000000000000007ff8000000000000
ymm1 at instrcount: 40

Failed:[4m[1m[91mFail[0m
0000000000000000 != 7ff8000000000000
rax at instrcount: 40

Failed:[4m[1m[91mFail[0m
0000000000000000 != 0000000000000001
rcx at instrcount: 41

Failed:[4m[1m[91mFail[0m
0000000000000000 != 0000000000000001
rdi at instrcount: 41

Failed:[4m[1m[91mFail[0m
1 != 0
pf at instrcount: 41

Failed:[4m[1m[91mFail[0m
0000000000000000000000000000000000000000000000000000000000000000 != 0000000000000000000000000000000000000000000000007ff8000000000000
ymm0 at instrcount: 41

Failed:[4m[1m[91mFail[0m
0000000000000000000000000000000000000000000000000000000000000000 != 0000000000000000000000000000000000000000000000007ff8000000000000
ymm1 at instrcount: 41

Failed:[4m[1m[91mFail[0m
0000000000000000 != 7ff8000000000000
rax at instrcount: 41

Failed:[4m[1m[91mFail[0m
0000000000000000 != 0000000000000001
rcx at instrcount: 42

Failed:[4m[1m[91mFail[0m
0000000000000000 != 0000000000000001
rdi at instrcount: 42

Failed:[4m[1m[91mFail[0m
1 != 0
pf at instrcount: 42

Failed:[4m[1m[91mFail[0m
0000000000000000000000000000000000000000000000000000000000000000 != 0000000000000000000000000000000000000000000000007ff8000000000000
ymm0 at instrcount: 42

Failed:[4m[1m[91mFail[0m
0000000000000000000000000000000000000000000000000000000000000000 != 0000000000000000000000000000000000000000000000007ff8000000000000
ymm1 at instrcount: 42

Failed:[4m[1m[91mFail[0m
0000000000000000 != 7ff8000000000000
rax at instrcount: 42

Failed:[4m[1m[91mFail[0m
0000000000000000 != 0000000000000001
rcx at instrcount: 43

Failed:[4m[1m[91mFail[0m
0000000000000000 != 0000000000000001
rdi at instrcount: 43

Failed:[4m[1m[91mFail[0m
1 != 0
pf at instrcount: 43

Failed:[4m[1m[91mFail[0m
0000000000000000000000000000000000000000000000000000000000000000 != 0000000000000000000000000000000000000000000000007ff8000000000000
ymm0 at instrcount: 43

Failed:[4m[1m[91mFail[0m
0000000000000000000000000000000000000000000000000000000000000000 != 0000000000000000000000000000000000000000000000007ff8000000000000
ymm1 at instrcount: 43

Failed:[4m[1m[91mFail[0m
0000000000000000 != 7ff8000000000000
rax at instrcount: 43

Failed:[4m[1m[91mFail[0m
0000000000000000 != 0000000000000001
rcx at instrcount: 44

Failed:[4m[1m[91mFail[0m
0000000000000000 != 0000000000000001
rdi at instrcount: 44

Failed:[4m[1m[91mFail[0m
0 != 1
cf at instrcount: 44

Failed:[4m[1m[91mFail[0m
0 != 1
pf at instrcount: 44

Failed:[4m[1m[91mFail[0m
0000000000000000000000000000000000000000000000000000000000000000 != 0000000000000000000000000000000000000000000000007ff8000000000000
ymm0 at instrcount: 44

Failed:[4m[1m[91mFail[0m
0000000000000000000000000000000000000000000000000000000000000000 != 0000000000000000000000000000000000000000000000007ff8000000000000
ymm1 at instrcount: 44

Failed:[4m[1m[91mFail[0m
0000000000000000 != 7ff8000000000000
rax at instrcount: 44

Failed:[4m[1m[91mFail[0m
0000000000000000 != 0000000000000001
rcx at instrcount: 45

Failed:[4m[1m[91mFail[0m
0000000000000000 != 0000000000000001
rdi at instrcount: 45

Failed:[4m[1m[91mFail[0m
0 != 1
cf at instrcount: 45

Failed:[4m[1m[91mFail[0m
0 != 1
pf at instrcount: 45

Failed:[4m[1m[91mFail[0m
0000000000000000000000000000000000000000000000000000000000000000 != 0000000000000000000000000000000000000000000000007ff8000000000000
ymm0 at instrcount: 45

Failed:[4m[1m[91mFail[0m
0000000000000000000000000000000000000000000000000000000000000000 != 0000000000000000000000000000000000000000000000007ff8000000000000
ymm1 at instrcount: 45

Failed:[4m[1m[91mFail[0m
0000000000000000 != 7ff8000000000000
rax at instrcount: 45

Failed:[4m[1m[91mFail[0m
0000000000000000 != 0000000000000001
rcx at instrcount: 46

Failed:[4m[1m[91mFail[0m
0000000000000000 != 0000000000000001
rdi at instrcount: 46

Failed:[4m[1m[91mFail[0m
1 != 0
pf at instrcount: 46

Failed:[4m[1m[91mFail[0m
1 != 0
zf at instrcount: 46

Failed:[4m[1m[91mFail[0m
0000000000000000000000000000000000000000000000000000000000000000 != 0000000000000000000000000000000000000000000000007ff8000000000000
ymm0 at instrcount: 46

Failed:[4m[1m[91mFail[0m
0000000000000000000000000000000000000000000000000000000000000000 != 0000000000000000000000000000000000000000000000007ff8000000000000
ymm1 at instrcount: 46

Failed:[4m[1m[91mFail[0m
0000000000000000 != 7ff8000000000000
rax at instrcount: 46

Failed:[4m[1m[91mFail[0m
0000000000000000 != 0000000000000001
rcx at instrcount: 47

Failed:[4m[1m[91mFail[0m
0000000000000000 != 0000000000000001
rdi at instrcount: 47

Failed:[4m[1m[91mFail[0m
1 != 0
pf at instrcount: 47

Failed:[4m[1m[91mFail[0m
1 != 0
zf at instrcount: 47

Failed:[4m[1m[91mFail[0m
0000000000000000000000000000000000000000000000000000000000000000 != 0000000000000000000000000000000000000000000000007ff8000000000000
ymm0 at instrcount: 47

Failed:[4m[1m[91mFail[0m
0000000000000000000000000000000000000000000000000000000000000000 != 0000000000000000000000000000000000000000000000007ff8000000000000
ymm1 at instrcount: 47

Failed:[4m[1m[91mFail[0m
0000000000000000 != 7ff8000000000000
rax at instrcount: 47

Failed:[4m[1m[91mFail[0m
0000000000000000 != 0000000000000001
rcx at instrcount: 48

Failed:[4m[1m[91mFail[0m
0000000000000000 != 0000000000000001
rdi at instrcount: 48

Failed:[4m[1m[91mFail[0m
1 != 0
pf at instrcount: 48

Failed:[4m[1m[91mFail[0m
1 != 0
zf at instrcount: 48

Failed:[4m[1m[91mFail[0m
0000000000000000000000000000000000000000000000000000000000000000 != 0000000000000000000000000000000000000000000000007ff8000000000000
ymm0 at instrcount: 48

Failed:[4m[1m[91mFail[0m
0000000000000000000000000000000000000000000000000000000000000000 != 0000000000000000000000000000000000000000000000007ff8000000000000
ymm1 at instrcount: 48

Failed:[4m[1m[91mFail[0m
0000000000000000 != 7ff8000000000000
rax at instrcount: 48

Failed:[4m[1m[91mFail[0m
0000000000000000 != 0000000000000001
rcx at instrcount: 49

Failed:[4m[1m[91mFail[0m
0000000000000000 != 0000000000000001
rdi at instrcount: 49

Failed:[4m[1m[91mFail[0m
1 != 0
pf at instrcount: 49

Failed:[4m[1m[91mFail[0m
1 != 0
zf at instrcount: 49

Failed:[4m[1m[91mFail[0m
0000000000000000000000000000000000000000000000000000000000000000 != 0000000000000000000000000000000000000000000000007ff8000000000000
ymm0 at instrcount: 49

Failed:[4m[1m[91mFail[0m
0000000000000000000000000000000000000000000000000000000000000000 != 0000000000000000000000000000000000000000000000007ff8000000000000
ymm1 at instrcount: 49

Failed:[4m[1m[91mFail[0m
0000000000000000 != 7ff8000000000000
rax at instrcount: 49

Failed:[4m[1m[91mFail[0m
0000000000000000 != 0000000000000001
rcx at instrcount: 50

Failed:[4m[1m[91mFail[0m
0000000000000000 != 0000000000000001
rdi at instrcount: 50

Failed:[4m[1m[91mFail[0m
1 != 0
pf at instrcount: 50

Failed:[4m[1m[91mFail[0m
1 != 0
zf at instrcount: 50

Failed:[4m[1m[91mFail[0m
0000000000000000000000000000000000000000000000000000000000000000 != 0000000000000000000000000000000000000000000000007ff8000000000000
ymm0 at instrcount: 50

Failed:[4m[1m[91mFail[0m
0000000000000000000000000000000000000000000000000000000000000000 != 0000000000000000000000000000000000000000000000007ff8000000000000
ymm1 at instrcount: 50

Failed:[4m[1m[91mFail[0m
0000000000000000 != 0000000000000001
rcx at instrcount: 51

Failed:[4m[1m[91mFail[0m
0000000000000000 != 0000000000000001
rdi at instrcount: 51

Failed:[4m[1m[91mFail[0m
1 != 0
pf at instrcount: 51

Failed:[4m[1m[91mFail[0m
1 != 0
zf at instrcount: 51

Failed:[4m[1m[91mFail[0m
0000000000000000000000000000000000000000000000000000000000000000 != 0000000000000000000000000000000000000000000000007ff8000000000000
ymm0 at instrcount: 51

Failed:[4m[1m[91mFail[0m
0000000000000000000000000000000000000000000000000000000000000000 != 0000000000000000000000000000000000000000000000007ff8000000000000
ymm1 at instrcount: 51

Failed:[4m[1m[91mFail[0m
0000000000000000 != 0000000000000001
rcx at instrcount: 52

Failed:[4m[1m[91mFail[0m
0000000000000000 != 0000000000000001
rdi at instrcount: 52

Failed:[4m[1m[91mFail[0m
1 != 0
pf at instrcount: 52

Failed:[4m[1m[91mFail[0m
1 != 0
zf at instrcount: 52

Failed:[4m[1m[91mFail[0m
0000000000000000000000000000000000000000000000000000000000000000 != 0000000000000000000000000000000000000000000000007ff8000000000000
ymm0 at instrcount: 52

Failed:[4m[1m[91mFail[0m
0000000000000000000000000000000000000000000000000000000000000000 != 0000000000000000000000000000000000000000000000007ff8000000000000
ymm1 at instrcount: 52

Failed:[4m[1m[91mFail[0m
0000000000000000 != 0000000000000001
rcx at instrcount: 53

Failed:[4m[1m[91mFail[0m
0000000000000000 != 0000000000000001
rdi at instrcount: 53

Failed:[4m[1m[91mFail[0m
1 != 0
pf at instrcount: 53

Failed:[4m[1m[91mFail[0m
1 != 0
zf at instrcount: 53

Failed:[4m[1m[91mFail[0m
0000000000000000000000000000000000000000000000000000000000000000 != 0000000000000000000000000000000000000000000000007ff8000000000000
ymm0 at instrcount: 53

Failed:[4m[1m[91mFail[0m
0000000000000000000000000000000000000000000000000000000000000000 != 0000000000000000000000000000000000000000000000007ff8000000000000
ymm1 at instrcount: 53

Failed:[4m[1m[91mFail[0m
0000000000000000 != 0000000000000001
rcx at instrcount: 54

Failed:[4m[1m[91mFail[0m
0000000000000000 != 0000000000000001
rdi at instrcount: 54

Failed:[4m[1m[91mFail[0m
0000000000000000000000000000000000000000000000000000000000000000 != 0000000000000000000000000000000000000000000000007ff8000000000000
ymm0 at instrcount: 54

Failed:[4m[1m[91mFail[0m
0000000000000000000000000000000000000000000000000000000000000000 != 0000000000000000000000000000000000000000000000007ff8000000000000
ymm1 at instrcount: 54

Failed:[4m[1m[91mFail[0m
0000000000000000 != 0000000000000001
rcx at instrcount: 55

Failed:[4m[1m[91mFail[0m
0000000000000000 != 0000000000000001
rdi at instrcount: 55

Failed:[4m[1m[91mFail[0m
0000000000000000000000000000000000000000000000000000000000000000 != 0000000000000000000000000000000000000000000000007ff8000000000000
ymm0 at instrcount: 55

Failed:[4m[1m[91mFail[0m
0000000000000000000000000000000000000000000000000000000000000000 != 0000000000000000000000000000000000000000000000007ff8000000000000
ymm1 at instrcount: 55

Failed:[4m[1m[91mFail[0m
0000000000000000 != 0000000000000001
rcx at instrcount: 56

Failed:[4m[1m[91mFail[0m
0000000000000000 != 0000000000000001
rdi at instrcount: 56

Failed:[4m[1m[91mFail[0m
0000000000000000000000000000000000000000000000000000000000000000 != 0000000000000000000000000000000000000000000000007ff8000000000000
ymm0 at instrcount: 56

Failed:[4m[1m[91mFail[0m
0000000000000000000000000000000000000000000000000000000000000000 != 0000000000000000000000000000000000000000000000007ff8000000000000
ymm1 at instrcount: 56

Failed:[4m[1m[91mFail[0m
0000000000000000 != 0000000000000001
rcx at instrcount: 56

Failed:[4m[1m[91mFail[0m
0000000000000000 != 0000000000000001
rdi at instrcount: 56

Failed:[4m[1m[91mFail[0m
1 != 0
pf at instrcount: 56

Failed:[4m[1m[91mFail[0m
1 != 0
zf at instrcount: 56

Failed:[4m[1m[91mFail[0m
0000000000000000000000000000000000000000000000000000000000000000 != 0000000000000000000000000000000000000000000000007ff8000000000000
ymm0 at instrcount: 56

Failed:[4m[1m[91mFail[0m
0000000000000000000000000000000000000000000000000000000000000000 != 0000000000000000000000000000000000000000000000007ff8000000000000
ymm1 at instrcount: 56

Failed:[4m[1m[91mFail[0m
0000000000000000 != 0000000000000001
rax at instrcount: 56

Failed:[4m[1m[91mFail[0m
0000000000000000 != 0000000000000001
rcx at instrcount: 57

Failed:[4m[1m[91mFail[0m
0000000000000000 != 0000000000000001
rdi at instrcount: 57

Failed:[4m[1m[91mFail[0m
1 != 0
pf at instrcount: 57

Failed:[4m[1m[91mFail[0m
1 != 0
zf at instrcount: 57

Failed:[4m[1m[91mFail[0m
0000000000000000000000000000000000000000000000000000000000000000 != 0000000000000000000000000000000000000000000000007ff8000000000000
ymm0 at instrcount: 57

Failed:[4m[1m[91mFail[0m
0000000000000000000000000000000000000000000000000000000000000000 != 0000000000000000000000000000000000000000000000007ff8000000000000
ymm1 at instrcount: 57

Failed:[4m[1m[91mFail[0m
0000000000000000 != 0000000000000001
rcx at instrcount: 58

Failed:[4m[1m[91mFail[0m
0000000000000000 != 0000000000000001
rdi at instrcount: 58

Failed:[4m[1m[91mFail[0m
0 != 1
cf at instrcount: 58

Failed:[4m[1m[91mFail[0m
0000000000000000000000000000000000000000000000000000000000000000 != 0000000000000000000000000000000000000000000000007ff8000000000000
ymm0 at instrcount: 58

Failed:[4m[1m[91mFail[0m
0000000000000000000000000000000000000000000000000000000000000000 != 0000000000000000000000000000000000000000000000007ff8000000000000
ymm1 at instrcount: 58

Failed:[4m[1m[91mFail[0m
0000000000000000 != 0000000000000001
rcx at instrcount: 59

Failed:[4m[1m[91mFail[0m
0000000000000000 != 0000000000000001
rdi at instrcount: 59

Failed:[4m[1m[91mFail[0m
0000000000000000000000000000000000000000000000000000000000000000 != 0000000000000000000000000000000000000000000000007ff8000000000000
ymm0 at instrcount: 59

Failed:[4m[1m[91mFail[0m
0000000000000000000000000000000000000000000000000000000000000000 != 0000000000000000000000000000000000000000000000007ff8000000000000
ymm1 at instrcount: 59

Failed:[4m[1m[91mFail[0m
0000000000000000 != 0000000000000001
rdi at instrcount: 60

Failed:[4m[1m[91mFail[0m
0000000000000000000000000000000000000000000000000000000000000000 != 0000000000000000000000000000000000000000000000007ff8000000000000
ymm0 at instrcount: 60

Failed:[4m[1m[91mFail[0m
0000000000000000000000000000000000000000000000000000000000000000 != 0000000000000000000000000000000000000000000000007ff8000000000000
ymm1 at instrcount: 60

Failed:[4m[1m[91mFail[0m
0000000000000000 != 0000000000000001
rdi at instrcount: 61

Failed:[4m[1m[91mFail[0m
0000000000000000000000000000000000000000000000000000000000000000 != 0000000000000000000000000000000000000000000000007ff8000000000000
ymm0 at instrcount: 61

Failed:[4m[1m[91mFail[0m
0000000000000000000000000000000000000000000000000000000000000000 != 0000000000000000000000000000000000000000000000007ff8000000000000
ymm1 at instrcount: 61

Failed:[4m[1m[91mFail[0m
0000000000000000 != 0000000000000001
rdi at instrcount: 62

Failed:[4m[1m[91mFail[0m
0000000000000000000000000000000000000000000000000000000000000000 != 0000000000000000000000000000000000000000000000007ff8000000000000
ymm0 at instrcount: 62

Failed:[4m[1m[91mFail[0m
0000000000000000000000000000000000000000000000000000000000000000 != 0000000000000000000000000000000000000000000000007ff8000000000000
ymm1 at instrcount: 62

Failed:[4m[1m[91mFail[0m
0000000000000000 != 0000000000000001
rdi at instrcount: 63

Failed:[4m[1m[91mFail[0m
0000000000000000000000000000000000000000000000000000000000000000 != 0000000000000000000000000000000000000000000000007ff8000000000000
ymm0 at instrcount: 63

Failed:[4m[1m[91mFail[0m
0000000000000000000000000000000000000000000000000000000000000000 != 0000000000000000000000000000000000000000000000007ff8000000000000
ymm1 at instrcount: 63

Failed:[4m[1m[91mFail[0m
0000000000000000 != 0000000000000001
rdi at instrcount: 64

Failed:[4m[1m[91mFail[0m
0000000000000000000000000000000000000000000000000000000000000000 != 0000000000000000000000000000000000000000000000007ff8000000000000
ymm0 at instrcount: 64

Failed:[4m[1m[91mFail[0m
0000000000000000000000000000000000000000000000000000000000000000 != 0000000000000000000000000000000000000000000000007ff8000000000000
ymm1 at instrcount: 64

Failed:[4m[1m[91mFail[0m
0000000000000000 != 0000000000000001
rdi at instrcount: 65

Failed:[4m[1m[91mFail[0m
0000000000000000000000000000000000000000000000000000000000000000 != 0000000000000000000000000000000000000000000000007ff8000000000000
ymm0 at instrcount: 65

Failed:[4m[1m[91mFail[0m
0000000000000000000000000000000000000000000000000000000000000000 != 0000000000000000000000000000000000000000000000007ff8000000000000
ymm1 at instrcount: 65

Failed:[4m[1m[91mFail[0m
0000000000000000 != 0000000000000001
rdi at instrcount: 66

Failed:[4m[1m[91mFail[0m
0000000000000000000000000000000000000000000000000000000000000000 != 0000000000000000000000000000000000000000000000007ff8000000000000
ymm0 at instrcount: 66

Failed:[4m[1m[91mFail[0m
0000000000000000000000000000000000000000000000000000000000000000 != 0000000000000000000000000000000000000000000000007ff8000000000000
ymm1 at instrcount: 66

Failed:[4m[1m[91mFail[0m
0000000000000000 != 0000000000000001
rdi at instrcount: 66

Failed:[4m[1m[91mFail[0m
0000000000000000000000000000000000000000000000000000000000000000 != 0000000000000000000000000000000000000000000000007ff8000000000000
ymm0 at instrcount: 66

Failed:[4m[1m[91mFail[0m
0000000000000000000000000000000000000000000000000000000000000000 != 0000000000000000000000000000000000000000000000007ff8000000000000
ymm1 at instrcount: 66

Failed:[4m[1m[91mFail[0m
0000000000000000 != 0000000000000001
rdi at instrcount: 66

Failed:[4m[1m[91mFail[0m
0000000000000000000000000000000000000000000000000000000000000000 != 0000000000000000000000000000000000000000000000007ff8000000000000
ymm0 at instrcount: 66

Failed:[4m[1m[91mFail[0m
0000000000000000000000000000000000000000000000000000000000000000 != 0000000000000000000000000000000000000000000000007ff8000000000000
ymm1 at instrcount: 66

Failed:[4m[1m[91mFail[0m
0000000000000000 != 0000000000000001
rdi at instrcount: 67

Failed:[4m[1m[91mFail[0m
0000000000000000000000000000000000000000000000000000000000000000 != 0000000000000000000000000000000000000000000000007ff8000000000000
ymm0 at instrcount: 67

Failed:[4m[1m[91mFail[0m
0000000000000000000000000000000000000000000000000000000000000000 != 0000000000000000000000000000000000000000000000007ff8000000000000
ymm1 at instrcount: 67

Failed:[4m[1m[91mFail[0m
0000000000000000 != 0000000000000001
rdi at instrcount: 68

Failed:[4m[1m[91mFail[0m
0000000000000000000000000000000000000000000000000000000000000000 != 0000000000000000000000000000000000000000000000007ff8000000000000
ymm0 at instrcount: 68

Failed:[4m[1m[91mFail[0m
0000000000000000000000000000000000000000000000000000000000000000 != 0000000000000000000000000000000000000000000000007ff8000000000000
ymm1 at instrcount: 68

Failed:[4m[1m[91mFail[0m
0000000000000000 != 0000000000000001
rdi at instrcount: 69

Failed:[4m[1m[91mFail[0m
0000000000000000000000000000000000000000000000000000000000000000 != 0000000000000000000000000000000000000000000000007ff8000000000000
ymm0 at instrcount: 69

Failed:[4m[1m[91mFail[0m
0000000000000000000000000000000000000000000000000000000000000000 != 0000000000000000000000000000000000000000000000007ff8000000000000
ymm1 at instrcount: 69

Failed:[4m[1m[91mFail[0m
0000000000000000 != 0000000000000001
rdi at instrcount: 70

Failed:[4m[1m[91mFail[0m
0000000000000000000000000000000000000000000000000000000000000000 != 0000000000000000000000000000000000000000000000007ff8000000000000
ymm0 at instrcount: 70

Failed:[4m[1m[91mFail[0m
0000000000000000000000000000000000000000000000000000000000000000 != 0000000000000000000000000000000000000000000000007ff8000000000000
ymm1 at instrcount: 70

Failed:[4m[1m[91mFail[0m
0000000000000000 != 0000000000000001
rdi at instrcount: 71

Failed:[4m[1m[91mFail[0m
0000000000000000000000000000000000000000000000000000000000000000 != 0000000000000000000000000000000000000000000000007ff8000000000000
ymm0 at instrcount: 71

Failed:[4m[1m[91mFail[0m
0000000000000000000000000000000000000000000000000000000000000000 != 0000000000000000000000000000000000000000000000007ff8000000000000
ymm1 at instrcount: 71

Failed:[4m[1m[91mFail[0m
0000000000000000 != 0000000000000001
rdi at instrcount: 72

Failed:[4m[1m[91mFail[0m
0000000000000000000000000000000000000000000000000000000000000000 != 0000000000000000000000000000000000000000000000007ff8000000000000
ymm0 at instrcount: 72

Failed:[4m[1m[91mFail[0m
0000000000000000000000000000000000000000000000000000000000000000 != 0000000000000000000000000000000000000000000000007ff8000000000000
ymm1 at instrcount: 72

Failed:[4m[1m[91mFail[0m
0000000000000000 != 0000000000000001
rdi at instrcount: 72

Failed:[4m[1m[91mFail[0m
1 != 0
pf at instrcount: 72

Failed:[4m[1m[91mFail[0m
1 != 0
zf at instrcount: 72

Failed:[4m[1m[91mFail[0m
0000000000000000000000000000000000000000000000000000000000000000 != 0000000000000000000000000000000000000000000000007ff8000000000000
ymm0 at instrcount: 72

Failed:[4m[1m[91mFail[0m
0000000000000000000000000000000000000000000000000000000000000000 != 0000000000000000000000000000000000000000000000007ff8000000000000
ymm1 at instrcount: 72

Failed:[4m[1m[91mFail[0m
0000000000000000 != 7ff8000000000000
rax at instrcount: 72

Failed:[4m[1m[91mFail[0m
0000000000000000 != 0000000000000001
rdi at instrcount: 73

Failed:[4m[1m[91mFail[0m
1 != 0
pf at instrcount: 73

Failed:[4m[1m[91mFail[0m
1 != 0
zf at instrcount: 73

Failed:[4m[1m[91mFail[0m
0000000000000000000000000000000000000000000000000000000000000000 != 0000000000000000000000000000000000000000000000007ff8000000000000
ymm0 at instrcount: 73

Failed:[4m[1m[91mFail[0m
0000000000000000000000000000000000000000000000000000000000000000 != 0000000000000000000000000000000000000000000000007ff8000000000000
ymm1 at instrcount: 73

Failed:[4m[1m[91mFail[0m
0000000000000000 != 7ff8000000000000
rax at instrcount: 73

Failed:[4m[1m[91mFail[0m
1 != 0
pf at instrcount: 74

Failed:[4m[1m[91mFail[0m
1 != 0
zf at instrcount: 74

Failed:[4m[1m[91mFail[0m
0000000000000000000000000000000000000000000000000000000000000000 != 0000000000000000000000000000000000000000000000007ff8000000000000
ymm0 at instrcount: 74

Failed:[4m[1m[91mFail[0m
0000000000000000000000000000000000000000000000000000000000000000 != 0000000000000000000000000000000000000000000000007ff8000000000000
ymm1 at instrcount: 74

Failed:[4m[1m[91mFail[0m
0000000000000000 != 7ff8000000000000
rax at instrcount: 74

Failed:[4m[1m[91mFail[0m
1 != 0
pf at instrcount: 75

Failed:[4m[1m[91mFail[0m
1 != 0
zf at instrcount: 75

Failed:[4m[1m[91mFail[0m
0000000000000000000000000000000000000000000000000000000000000000 != 0000000000000000000000000000000000000000000000007ff8000000000000
ymm0 at instrcount: 75

Failed:[4m[1m[91mFail[0m
0000000000000000000000000000000000000000000000000000000000000000 != 0000000000000000000000000000000000000000000000007ff8000000000000
ymm1 at instrcount: 75

Failed:[4m[1m[91mFail[0m
0000000000000000 != 7ff8000000000000
rax at instrcount: 75

Failed:[4m[1m[91mFail[0m
1 != 0
pf at instrcount: 76

Failed:[4m[1m[91mFail[0m
1 != 0
zf at instrcount: 76

Failed:[4m[1m[91mFail[0m
0000000000000000000000000000000000000000000000000000000000000000 != 0000000000000000000000000000000000000000000000007ff8000000000000
ymm0 at instrcount: 76

Failed:[4m[1m[91mFail[0m
0000000000000000000000000000000000000000000000000000000000000000 != 0000000000000000000000000000000000000000000000007ff8000000000000
ymm1 at instrcount: 76

Failed:[4m[1m[91mFail[0m
0000000000000000 != 7ff8000000000000
rax at instrcount: 76

Failed:[4m[1m[91mFail[0m
1 != 0
pf at instrcount: 77

Failed:[4m[1m[91mFail[0m
1 != 0
zf at instrcount: 77

Failed:[4m[1m[91mFail[0m
0000000000000000000000000000000000000000000000000000000000000000 != 0000000000000000000000000000000000000000000000007ff8000000000000
ymm0 at instrcount: 77

Failed:[4m[1m[91mFail[0m
0000000000000000000000000000000000000000000000000000000000000000 != 0000000000000000000000000000000000000000000000007ff8000000000000
ymm1 at instrcount: 77

Failed:[4m[1m[91mFail[0m
0000000000000000 != 7ff8000000000000
rax at instrcount: 77

Failed:[4m[1m[91mFail[0m
1 != 0
pf at instrcount: 78

Failed:[4m[1m[91mFail[0m
1 != 0
zf at instrcount: 78

Failed:[4m[1m[91mFail[0m
0000000000000000000000000000000000000000000000000000000000000000 != 0000000000000000000000000000000000000000000000007ff8000000000000
ymm0 at instrcount: 78

Failed:[4m[1m[91mFail[0m
0000000000000000000000000000000000000000000000000000000000000000 != 0000000000000000000000000000000000000000000000007ff8000000000000
ymm1 at instrcount: 78

Failed:[4m[1m[91mFail[0m
0000000000000000 != 7ff8000000000000
rax at instrcount: 78

Failed:[4m[1m[91mFail[0m
1 != 0
pf at instrcount: 79

Failed:[4m[1m[91mFail[0m
1 != 0
zf at instrcount: 79

Failed:[4m[1m[91mFail[0m
0000000000000000000000000000000000000000000000000000000000000000 != 0000000000000000000000000000000000000000000000007ff8000000000000
ymm0 at instrcount: 79

Failed:[4m[1m[91mFail[0m
0000000000000000000000000000000000000000000000000000000000000000 != 0000000000000000000000000000000000000000000000007ff8000000000000
ymm1 at instrcount: 79

Failed:[4m[1m[91mFail[0m
0000000000000000 != 7ff8000000000000
rax at instrcount: 79

Failed:[4m[1m[91mFail[0m
1 != 0
pf at instrcount: 80

Failed:[4m[1m[91mFail[0m
0000000000000000000000000000000000000000000000000000000000000000 != 0000000000000000000000000000000000000000000000007ff8000000000000
ymm0 at instrcount: 80

Failed:[4m[1m[91mFail[0m
0000000000000000000000000000000000000000000000000000000000000000 != 0000000000000000000000000000000000000000000000007ff8000000000000
ymm1 at instrcount: 80

Failed:[4m[1m[91mFail[0m
0000000000000000 != 7ff8000000000000
rax at instrcount: 80

Failed:[4m[1m[91mFail[0m
1 != 0
pf at instrcount: 81

Failed:[4m[1m[91mFail[0m
0000000000000000000000000000000000000000000000000000000000000000 != 0000000000000000000000000000000000000000000000007ff8000000000000
ymm0 at instrcount: 81

Failed:[4m[1m[91mFail[0m
0000000000000000000000000000000000000000000000000000000000000000 != 0000000000000000000000000000000000000000000000007ff8000000000000
ymm1 at instrcount: 81

Failed:[4m[1m[91mFail[0m
0000000000000000 != 7ff8000000000000
rax at instrcount: 81

Failed:[4m[1m[91mFail[0m
1 != 0
pf at instrcount: 82

Failed:[4m[1m[91mFail[0m
0000000000000000000000000000000000000000000000000000000000000000 != 0000000000000000000000000000000000000000000000007ff8000000000000
ymm0 at instrcount: 82

Failed:[4m[1m[91mFail[0m
0000000000000000000000000000000000000000000000000000000000000000 != 0000000000000000000000000000000000000000000000007ff8000000000000
ymm1 at instrcount: 82

Failed:[4m[1m[91mFail[0m
0000000000000000 != 7ff8000000000000
rax at instrcount: 82

Failed:[4m[1m[91mFail[0m
1 != 0
pf at instrcount: 83

Failed:[4m[1m[91mFail[0m
0000000000000000000000000000000000000000000000000000000000000000 != 0000000000000000000000000000000000000000000000007ff8000000000000
ymm0 at instrcount: 83

Failed:[4m[1m[91mFail[0m
0000000000000000000000000000000000000000000000000000000000000000 != 0000000000000000000000000000000000000000000000007ff8000000000000
ymm1 at instrcount: 83

Failed:[4m[1m[91mFail[0m
0000000000000000 != 7ff8000000000000
rax at instrcount: 83

Failed:[4m[1m[91mFail[0m
1 != 0
pf at instrcount: 84

Failed:[4m[1m[91mFail[0m
0000000000000000000000000000000000000000000000000000000000000000 != 0000000000000000000000000000000000000000000000007ff8000000000000
ymm0 at instrcount: 84

Failed:[4m[1m[91mFail[0m
0000000000000000000000000000000000000000000000000000000000000000 != 0000000000000000000000000000000000000000000000007ff8000000000000
ymm1 at instrcount: 84

Failed:[4m[1m[91mFail[0m
0000000000000000 != 7ff8000000000000
rax at instrcount: 84

Failed:[4m[1m[91mFail[0m
0 != 1
cf at instrcount: 85

Failed:[4m[1m[91mFail[0m
0 != 1
pf at instrcount: 85

Failed:[4m[1m[91mFail[0m
0000000000000000000000000000000000000000000000000000000000000000 != 0000000000000000000000000000000000000000000000007ff8000000000000
ymm0 at instrcount: 85

Failed:[4m[1m[91mFail[0m
0000000000000000000000000000000000000000000000000000000000000000 != 0000000000000000000000000000000000000000000000007ff8000000000000
ymm1 at instrcount: 85

Failed:[4m[1m[91mFail[0m
0000000000000001 != 7ff8000000000001
rax at instrcount: 85

Failed:[4m[1m[91mFail[0m
0 != 1
cf at instrcount: 86

Failed:[4m[1m[91mFail[0m
0 != 1
pf at instrcount: 86

Failed:[4m[1m[91mFail[0m
0000000000000000000000000000000000000000000000000000000000000000 != 0000000000000000000000000000000000000000000000007ff8000000000000
ymm0 at instrcount: 86

Failed:[4m[1m[91mFail[0m
0000000000000000000000000000000000000000000000000000000000000000 != 0000000000000000000000000000000000000000000000007ff8000000000000
ymm1 at instrcount: 86

Failed:[4m[1m[91mFail[0m
0000000000000000000000000000000000000000000000000000000000000000 != 0000000000000000000000000000000000000000000000007ff8000000000000
ymm0 at instrcount: 87

Failed:[4m[1m[91mFail[0m
0000000000000000000000000000000000000000000000000000000000000000 != 0000000000000000000000000000000000000000000000007ff8000000000000
ymm1 at instrcount: 87

Failed:[4m[1m[91mFail[0m
0000000000000000000000000000000000000000000000000000000000000000 != 0000000000000000000000000000000000000000000000007ff8000000000000
ymm0 at instrcount: 88

Failed:[4m[1m[91mFail[0m
0000000000000000000000000000000000000000000000000000000000000000 != 0000000000000000000000000000000000000000000000007ff8000000000000
ymm1 at instrcount: 88

Failed:[4m[1m[91mFail[0m
0000000000000000000000000000000000000000000000000000000000000000 != 0000000000000000000000000000000000000000000000007ff8000000000000
ymm0 at instrcount: 89

Failed:[4m[1m[91mFail[0m
0000000000000000000000000000000000000000000000000000000000000000 != 0000000000000000000000000000000000000000000000007ff8000000000000
ymm1 at instrcount: 89

Failed:[4m[1m[91mFail[0m
0000000000000000000000000000000000000000000000000000000000000000 != 0000000000000000000000000000000000000000000000007ff8000000000000
ymm0 at instrcount: 90

Failed:[4m[1m[91mFail[0m
0000000000000000000000000000000000000000000000000000000000000000 != 0000000000000000000000000000000000000000000000007ff8000000000000
ymm1 at instrcount: 90

Failed:[4m[1m[91mFail[0m
0000000000000000000000000000000000000000000000000000000000000000 != 0000000000000000000000000000000000000000000000007ff8000000000000
ymm0 at instrcount: 91

Failed:[4m[1m[91mFail[0m
0000000000000000000000000000000000000000000000000000000000000000 != 0000000000000000000000000000000000000000000000007ff8000000000000
ymm1 at instrcount: 91

Failed:[4m[1m[91mFail[0m
0000000000000000000000000000000000000000000000000000000000000000 != 0000000000000000000000000000000000000000000000007ff8000000000000
ymm0 at instrcount: 92

Failed:[4m[1m[91mFail[0m
0000000000000000000000000000000000000000000000000000000000000000 != 0000000000000000000000000000000000000000000000007ff8000000000000
ymm1 at instrcount: 92

Failed:[4m[1m[91mFail[0m
0000000000000000000000000000000000000000000000000000000000000000 != 0000000000000000000000000000000000000000000000007ff8000000000000
ymm0 at instrcount: 93

Failed:[4m[1m[91mFail[0m
0000000000000000000000000000000000000000000000000000000000000000 != 0000000000000000000000000000000000000000000000007ff8000000000000
ymm1 at instrcount: 93

Failed:[4m[1m[91mFail[0m
0000000000000000000000000000000000000000000000000000000000000000 != 0000000000000000000000000000000000000000000000007ff8000000000000
ymm0 at instrcount: 94

Failed:[4m[1m[91mFail[0m
0000000000000000000000000000000000000000000000000000000000000000 != 0000000000000000000000000000000000000000000000007ff8000000000000
ymm1 at instrcount: 94

Failed:[4m[1m[91mFail[0m
0000000000000000000000000000000000000000000000000000000000000000 != 0000000000000000000000000000000000000000000000007ff8000000000000
ymm0 at instrcount: 95

Failed:[4m[1m[91mFail[0m
0000000000000000000000000000000000000000000000000000000000000000 != 0000000000000000000000000000000000000000000000007ff8000000000000
ymm1 at instrcount: 95

Failed:[4m[1m[91mFail[0m
0000000000000000000000000000000000000000000000000000000000000000 != 0000000000000000000000000000000000000000000000007ff8000000000000
ymm0 at instrcount: 96

Failed:[4m[1m[91mFail[0m
0000000000000000000000000000000000000000000000000000000000000000 != 0000000000000000000000000000000000000000000000007ff8000000000000
ymm1 at instrcount: 96

Failed:[4m[1m[91mFail[0m
0000000000000000000000000000000000000000000000000000000000000000 != 0000000000000000000000000000000000000000000000007ff8000000000000
ymm0 at instrcount: 97

Failed:[4m[1m[91mFail[0m
0000000000000000000000000000000000000000000000000000000000000000 != 0000000000000000000000000000000000000000000000007ff8000000000000
ymm1 at instrcount: 97

Failed:[4m[1m[91mFail[0m
0000000000000000000000000000000000000000000000000000000000000000 != 0000000000000000000000000000000000000000000000007ff8000000000000
ymm0 at instrcount: 98

Failed:[4m[1m[91mFail[0m
0000000000000000000000000000000000000000000000000000000000000000 != 0000000000000000000000000000000000000000000000007ff8000000000000
ymm1 at instrcount: 98

Failed:[4m[1m[91mFail[0m
0000000000000000000000000000000000000000000000000000000000000000 != 0000000000000000000000000000000000000000000000007ff8000000000000
ymm0 at instrcount: 99

Failed:[4m[1m[91mFail[0m
0000000000000000000000000000000000000000000000000000000000000000 != 0000000000000000000000000000000000000000000000007ff8000000000000
ymm1 at instrcount: 99

Failed:[4m[1m[91mFail[0m
0000000000000000000000000000000000000000000000000000000000000000 != 0000000000000000000000000000000000000000000000007ff8000000000000
ymm0 at instrcount: 100

Failed:[4m[1m[91mFail[0m
0000000000000000000000000000000000000000000000000000000000000000 != 0000000000000000000000000000000000000000000000007ff8000000000000
ymm1 at instrcount: 100

Failed:[4m[1m[91mFail[0m
1 != 0
pf at instrcount: 100

Failed:[4m[1m[91mFail[0m
1 != 0
zf at instrcount: 100

Failed:[4m[1m[91mFail[0m
0000000000000000000000000000000000000000000000000000000000000000 != 0000000000000000000000000000000000000000000000007ff8000000000000
ymm0 at instrcount: 100

Failed:[4m[1m[91mFail[0m
0000000000000000000000000000000000000000000000000000000000000000 != 0000000000000000000000000000000000000000000000007ff8000000000000
ymm1 at instrcount: 100

Failed:[4m[1m[91mFail[0m
0000000000000000 != 0000000000000001
rax at instrcount: 100

Failed:[4m[1m[91mFail[0m
1 != 0
pf at instrcount: 101

Failed:[4m[1m[91mFail[0m
1 != 0
zf at instrcount: 101

Failed:[4m[1m[91mFail[0m
0000000000000000000000000000000000000000000000000000000000000000 != 0000000000000000000000000000000000000000000000007ff8000000000000
ymm0 at instrcount: 101

Failed:[4m[1m[91mFail[0m
0000000000000000000000000000000000000000000000000000000000000000 != 0000000000000000000000000000000000000000000000007ff8000000000000
ymm1 at instrcount: 101

Failed:[4m[1m[91mFail[0m
0000000000000000000000000000000000000000000000000000000000000000 != 0000000000000000000000000000000000000000000000007ff8000000000000
ymm0 at instrcount: 102

Failed:[4m[1m[91mFail[0m
0000000000000000000000000000000000000000000000000000000000000000 != 0000000000000000000000000000000000000000000000007ff8000000000000
ymm1 at instrcount: 102

Failed:[4m[1m[91mFail[0m
0000000000000000000000000000000000000000000000000000000000000000 != 0000000000000000000000000000000000000000000000007ff8000000000000
ymm0 at instrcount: 103

Failed:[4m[1m[91mFail[0m
0000000000000000000000000000000000000000000000000000000000000000 != 0000000000000000000000000000000000000000000000007ff8000000000000
ymm1 at instrcount: 103

Failed:[4m[1m[91mFail[0m
0000000000000000000000000000000000000000000000000000000000000000 != 0000000000000000000000000000000000000000000000007ff8000000000000
ymm0 at instrcount: 104

Failed:[4m[1m[91mFail[0m
0000000000000000000000000000000000000000000000000000000000000000 != 0000000000000000000000000000000000000000000000007ff8000000000000
ymm1 at instrcount: 104

Failed:[4m[1m[91mFail[0m
0000000000000000000000000000000000000000000000000000000000000000 != 0000000000000000000000000000000000000000000000007ff8000000000000
ymm0 at instrcount: 105

Failed:[4m[1m[91mFail[0m
0000000000000000000000000000000000000000000000000000000000000000 != 0000000000000000000000000000000000000000000000007ff8000000000000
ymm1 at instrcount: 105

Failed:[4m[1m[91mFail[0m
0000000000000000000000000000000000000000000000000000000000000000 != 0000000000000000000000000000000000000000000000007ff8000000000000
ymm0 at instrcount: 106

Failed:[4m[1m[91mFail[0m
0000000000000000000000000000000000000000000000000000000000000000 != 0000000000000000000000000000000000000000000000007ff8000000000000
ymm1 at instrcount: 106

Failed:[4m[1m[91mFail[0m
0000000000000000000000000000000000000000000000000000000000000000 != 0000000000000000000000000000000000000000000000007ff8000000000000
ymm0 at instrcount: 107

Failed:[4m[1m[91mFail[0m
0000000000000000000000000000000000000000000000000000000000000000 != 0000000000000000000000000000000000000000000000007ff8000000000000
ymm1 at instrcount: 107

Failed:[4m[1m[91mFail[0m
0000000000000000000000000000000000000000000000000000000000000000 != 0000000000000000000000000000000000000000000000007ff8000000000000
ymm0 at instrcount: 108

Failed:[4m[1m[91mFail[0m
0000000000000000000000000000000000000000000000000000000000000000 != 0000000000000000000000000000000000000000000000007ff8000000000000
ymm1 at instrcount: 108

Failed:[4m[1m[91mFail[0m
0000000000000000000000000000000000000000000000000000000000000000 != 0000000000000000000000000000000000000000000000007ff8000000000000
ymm0 at instrcount: 109

Failed:[4m[1m[91mFail[0m
0000000000000000000000000000000000000000000000000000000000000000 != 0000000000000000000000000000000000000000000000007ff8000000000000
ymm1 at instrcount: 109

Failed:[4m[1m[91mFail[0m
0000000000000000000000000000000000000000000000000000000000000000 != 0000000000000000000000000000000000000000000000007ff8000000000000
ymm0 at instrcount: 110

Failed:[4m[1m[91mFail[0m
0000000000000000000000000000000000000000000000000000000000000000 != 0000000000000000000000000000000000000000000000007ff8000000000000
ymm1 at instrcount: 110

Failed:[4m[1m[91mFail[0m
0000000000000000000000000000000000000000000000000000000000000000 != 0000000000000000000000000000000000000000000000007ff8000000000000
ymm0 at instrcount: 110

Failed:[4m[1m[91mFail[0m
0000000000000000000000000000000000000000000000000000000000000000 != 0000000000000000000000000000000000000000000000007ff8000000000000
ymm1 at instrcount: 110

Failed:[4m[1m[91mFail[0m
0000000000000000000000000000000000000000000000000000000000000000 != 0000000000000000000000000000000000000000000000007ff8000000000000
ymm0 at instrcount: 110

Failed:[4m[1m[91mFail[0m
0000000000000000000000000000000000000000000000000000000000000000 != 0000000000000000000000000000000000000000000000007ff8000000000000
ymm1 at instrcount: 110

Failed:[4m[1m[91mFail[0m
0000000000000000000000000000000000000000000000000000000000000000 != 0000000000000000000000000000000000000000000000007ff8000000000000
ymm0 at instrcount: 111

Failed:[4m[1m[91mFail[0m
0000000000000000000000000000000000000000000000000000000000000000 != 0000000000000000000000000000000000000000000000007ff8000000000000
ymm1 at instrcount: 111

Failed:[4m[1m[91mFail[0m
0000000000000000000000000000000000000000000000000000000000000000 != 0000000000000000000000000000000000000000000000007ff8000000000000
ymm0 at instrcount: 112

Failed:[4m[1m[91mFail[0m
0000000000000000000000000000000000000000000000000000000000000000 != 0000000000000000000000000000000000000000000000007ff8000000000000
ymm1 at instrcount: 112

Failed:[4m[1m[91mFail[0m
0000000000000000000000000000000000000000000000000000000000000000 != 0000000000000000000000000000000000000000000000007ff8000000000000
ymm0 at instrcount: 113

Failed:[4m[1m[91mFail[0m
0000000000000000000000000000000000000000000000000000000000000000 != 0000000000000000000000000000000000000000000000007ff8000000000000
ymm1 at instrcount: 113

Failed:[4m[1m[91mFail[0m
0000000000000000000000000000000000000000000000000000000000000000 != 0000000000000000000000000000000000000000000000007ff8000000000000
ymm0 at instrcount: 114

Failed:[4m[1m[91mFail[0m
0000000000000000000000000000000000000000000000000000000000000000 != 0000000000000000000000000000000000000000000000007ff8000000000000
ymm1 at instrcount: 114

Failed:[4m[1m[91mFail[0m
0000000000000000000000000000000000000000000000000000000000000000 != 0000000000000000000000000000000000000000000000007ff8000000000000
ymm0 at instrcount: 115

Failed:[4m[1m[91mFail[0m
0000000000000000000000000000000000000000000000000000000000000000 != 0000000000000000000000000000000000000000000000007ff8000000000000
ymm1 at instrcount: 115

Failed:[4m[1m[91mFail[0m
0000000000000000000000000000000000000000000000000000000000000000 != 0000000000000000000000000000000000000000000000007ff8000000000000
ymm0 at instrcount: 116

Failed:[4m[1m[91mFail[0m
0000000000000000000000000000000000000000000000000000000000000000 != 0000000000000000000000000000000000000000000000007ff8000000000000
ymm1 at instrcount: 116

Failed:[4m[1m[91mFail[0m
1 != 0
pf at instrcount: 116

Failed:[4m[1m[91mFail[0m
1 != 0
zf at instrcount: 116

Failed:[4m[1m[91mFail[0m
0000000000000000000000000000000000000000000000000000000000000000 != 0000000000000000000000000000000000000000000000007ff8000000000000
ymm0 at instrcount: 116

Failed:[4m[1m[91mFail[0m
0000000000000000000000000000000000000000000000000000000000000000 != 0000000000000000000000000000000000000000000000007ff8000000000000
ymm1 at instrcount: 116

Failed:[4m[1m[91mFail[0m
0000000000000000 != 7ff8000000000000
rax at instrcount: 116

Failed:[4m[1m[91mFail[0m
1 != 0
pf at instrcount: 117

Failed:[4m[1m[91mFail[0m
1 != 0
zf at instrcount: 117

Failed:[4m[1m[91mFail[0m
0000000000000000000000000000000000000000000000000000000000000000 != 0000000000000000000000000000000000000000000000007ff8000000000000
ymm0 at instrcount: 117

Failed:[4m[1m[91mFail[0m
0000000000000000000000000000000000000000000000000000000000000000 != 0000000000000000000000000000000000000000000000007ff8000000000000
ymm1 at instrcount: 117

Failed:[4m[1m[91mFail[0m
0000000000000000 != 7ff8000000000000
rax at instrcount: 117

Failed:[4m[1m[91mFail[0m
1 != 0
pf at instrcount: 118

Failed:[4m[1m[91mFail[0m
1 != 0
zf at instrcount: 118

Failed:[4m[1m[91mFail[0m
0000000000000000000000000000000000000000000000000000000000000000 != 0000000000000000000000000000000000000000000000007ff8000000000000
ymm0 at instrcount: 118

Failed:[4m[1m[91mFail[0m
0000000000000000000000000000000000000000000000000000000000000000 != 0000000000000000000000000000000000000000000000007ff8000000000000
ymm1 at instrcount: 118

Failed:[4m[1m[91mFail[0m
0000000000000000 != 7ff8000000000000
rax at instrcount: 118

Failed:[4m[1m[91mFail[0m
1 != 0
pf at instrcount: 119

Failed:[4m[1m[91mFail[0m
1 != 0
zf at instrcount: 119

Failed:[4m[1m[91mFail[0m
0000000000000000000000000000000000000000000000000000000000000000 != 0000000000000000000000000000000000000000000000007ff8000000000000
ymm0 at instrcount: 119

Failed:[4m[1m[91mFail[0m
0000000000000000000000000000000000000000000000000000000000000000 != 0000000000000000000000000000000000000000000000007ff8000000000000
ymm1 at instrcount: 119

Failed:[4m[1m[91mFail[0m
0000000000000000 != 7ff8000000000000
rax at instrcount: 119

Failed:[4m[1m[91mFail[0m
1 != 0
pf at instrcount: 120

Failed:[4m[1m[91mFail[0m
1 != 0
zf at instrcount: 120

Failed:[4m[1m[91mFail[0m
0000000000000000000000000000000000000000000000000000000000000000 != 0000000000000000000000000000000000000000000000007ff8000000000000
ymm0 at instrcount: 120

Failed:[4m[1m[91mFail[0m
0000000000000000000000000000000000000000000000000000000000000000 != 0000000000000000000000000000000000000000000000007ff8000000000000
ymm1 at instrcount: 120

Failed:[4m[1m[91mFail[0m
0000000000000000 != 7ff8000000000000
rax at instrcount: 120

Failed:[4m[1m[91mFail[0m
1 != 0
pf at instrcount: 121

Failed:[4m[1m[91mFail[0m
1 != 0
zf at instrcount: 121

Failed:[4m[1m[91mFail[0m
0000000000000000000000000000000000000000000000000000000000000000 != 0000000000000000000000000000000000000000000000007ff8000000000000
ymm0 at instrcount: 121

Failed:[4m[1m[91mFail[0m
0000000000000000000000000000000000000000000000000000000000000000 != 0000000000000000000000000000000000000000000000007ff8000000000000
ymm1 at instrcount: 121

Failed:[4m[1m[91mFail[0m
0000000000000000 != 7ff8000000000000
rax at instrcount: 121

Failed:[4m[1m[91mFail[0m
1 != 0
pf at instrcount: 122

Failed:[4m[1m[91mFail[0m
1 != 0
zf at instrcount: 122

Failed:[4m[1m[91mFail[0m
0000000000000000000000000000000000000000000000000000000000000000 != 0000000000000000000000000000000000000000000000007ff8000000000000
ymm0 at instrcount: 122

Failed:[4m[1m[91mFail[0m
0000000000000000000000000000000000000000000000000000000000000000 != 0000000000000000000000000000000000000000000000007ff8000000000000
ymm1 at instrcount: 122

Failed:[4m[1m[91mFail[0m
0000000000000000 != 7ff8000000000000
rax at instrcount: 122

Failed:[4m[1m[91mFail[0m
1 != 0
pf at instrcount: 123

Failed:[4m[1m[91mFail[0m
1 != 0
zf at instrcount: 123

Failed:[4m[1m[91mFail[0m
0000000000000000000000000000000000000000000000000000000000000000 != 0000000000000000000000000000000000000000000000007ff8000000000000
ymm0 at instrcount: 123

Failed:[4m[1m[91mFail[0m
0000000000000000000000000000000000000000000000000000000000000000 != 0000000000000000000000000000000000000000000000007ff8000000000000
ymm1 at instrcount: 123

Failed:[4m[1m[91mFail[0m
0000000000000000 != 7ff8000000000000
rax at instrcount: 123

Failed:[4m[1m[91mFail[0m
1 != 0
pf at instrcount: 124

Failed:[4m[1m[91mFail[0m
0000000000000000000000000000000000000000000000000000000000000000 != 0000000000000000000000000000000000000000000000007ff8000000000000
ymm0 at instrcount: 124

Failed:[4m[1m[91mFail[0m
0000000000000000000000000000000000000000000000000000000000000000 != 0000000000000000000000000000000000000000000000007ff8000000000000
ymm1 at instrcount: 124

Failed:[4m[1m[91mFail[0m
0000000000000000 != 7ff8000000000000
rax at instrcount: 124

Failed:[4m[1m[91mFail[0m
1 != 0
pf at instrcount: 125

Failed:[4m[1m[91mFail[0m
0000000000000000000000000000000000000000000000000000000000000000 != 0000000000000000000000000000000000000000000000007ff8000000000000
ymm0 at instrcount: 125

Failed:[4m[1m[91mFail[0m
0000000000000000000000000000000000000000000000000000000000000000 != 0000000000000000000000000000000000000000000000007ff8000000000000
ymm1 at instrcount: 125

Failed:[4m[1m[91mFail[0m
0000000000000000 != 7ff8000000000000
rax at instrcount: 125

Failed:[4m[1m[91mFail[0m
1 != 0
pf at instrcount: 126

Failed:[4m[1m[91mFail[0m
0000000000000000000000000000000000000000000000000000000000000000 != 0000000000000000000000000000000000000000000000007ff8000000000000
ymm0 at instrcount: 126

Failed:[4m[1m[91mFail[0m
0000000000000000000000000000000000000000000000000000000000000000 != 0000000000000000000000000000000000000000000000007ff8000000000000
ymm1 at instrcount: 126

Failed:[4m[1m[91mFail[0m
0000000000000000 != 7ff8000000000000
rax at instrcount: 126

Failed:[4m[1m[91mFail[0m
1 != 0
pf at instrcount: 127

Failed:[4m[1m[91mFail[0m
0000000000000000000000000000000000000000000000000000000000000000 != 0000000000000000000000000000000000000000000000007ff8000000000000
ymm0 at instrcount: 127

Failed:[4m[1m[91mFail[0m
0000000000000000000000000000000000000000000000000000000000000000 != 0000000000000000000000000000000000000000000000007ff8000000000000
ymm1 at instrcount: 127

Failed:[4m[1m[91mFail[0m
0000000000000000 != 7ff8000000000000
rax at instrcount: 127

Failed:[4m[1m[91mFail[0m
1 != 0
pf at instrcount: 128

Failed:[4m[1m[91mFail[0m
0000000000000000000000000000000000000000000000000000000000000000 != 0000000000000000000000000000000000000000000000007ff8000000000000
ymm0 at instrcount: 128

Failed:[4m[1m[91mFail[0m
0000000000000000000000000000000000000000000000000000000000000000 != 0000000000000000000000000000000000000000000000007ff8000000000000
ymm1 at instrcount: 128

Failed:[4m[1m[91mFail[0m
0000000000000000 != 7ff8000000000000
rax at instrcount: 128

Failed:[4m[1m[91mFail[0m
0 != 1
cf at instrcount: 129

Failed:[4m[1m[91mFail[0m
0 != 1
pf at instrcount: 129

Failed:[4m[1m[91mFail[0m
0000000000000000000000000000000000000000000000000000000000000000 != 0000000000000000000000000000000000000000000000007ff8000000000000
ymm0 at instrcount: 129

Failed:[4m[1m[91mFail[0m
0000000000000000000000000000000000000000000000000000000000000000 != 0000000000000000000000000000000000000000000000007ff8000000000000
ymm1 at instrcount: 129

Failed:[4m[1m[91mFail[0m
0000000000000000 != 7ff8000000000001
rax at instrcount: 129

Failed:[4m[1m[91mFail[0m
0 != 1
cf at instrcount: 130

Failed:[4m[1m[91mFail[0m
0 != 1
pf at instrcount: 130

Failed:[4m[1m[91mFail[0m
0000000000000000000000000000000000000000000000000000000000000000 != 0000000000000000000000000000000000000000000000007ff8000000000000
ymm0 at instrcount: 130

Failed:[4m[1m[91mFail[0m
0000000000000000000000000000000000000000000000000000000000000000 != 0000000000000000000000000000000000000000000000007ff8000000000000
ymm1 at instrcount: 130

Failed:[4m[1m[91mFail[0m
0000000000000001 != 0000000000000000
rax at instrcount: 130

Failed:[4m[1m[91mFail[0m
0 != 1
pf at instrcount: 131

Failed:[4m[1m[91mFail[0m
0 != 1
zf at instrcount: 131

Failed:[4m[1m[91mFail[0m
0000000000000000000000000000000000000000000000000000000000000000 != 0000000000000000000000000000000000000000000000007ff8000000000000
ymm0 at instrcount: 131

Failed:[4m[1m[91mFail[0m
0000000000000000000000000000000000000000000000000000000000000000 != 0000000000000000000000000000000000000000000000007ff8000000000000
ymm1 at instrcount: 131

Failed:[4m[1m[91mFail[0m
0000000000000001 != 0000000000000000
rax at instrcount: 131

Failed:[4m[1m[91mFail[0m
0 != 1
pf at instrcount: 132

Failed:[4m[1m[91mFail[0m
0 != 1
zf at instrcount: 132

Failed:[4m[1m[91mFail[0m
0000000000000000000000000000000000000000000000000000000000000000 != 0000000000000000000000000000000000000000000000007ff8000000000000
ymm0 at instrcount: 132

Failed:[4m[1m[91mFail[0m
0000000000000000000000000000000000000000000000000000000000000000 != 0000000000000000000000000000000000000000000000007ff8000000000000
ymm1 at instrcount: 132

Failed:[4m[1m[91mFail[0m
0000000000000001 != 0000000000000000
rax at instrcount: 132

Failed:[4m[1m[91mFail[0m
0 != 1
pf at instrcount: 133

Failed:[4m[1m[91mFail[0m
0 != 1
zf at instrcount: 133

Failed:[4m[1m[91mFail[0m
0000000000000000000000000000000000000000000000000000000000000000 != 0000000000000000000000000000000000000000000000007ff8000000000000
ymm0 at instrcount: 133

Failed:[4m[1m[91mFail[0m
0000000000000000000000000000000000000000000000000000000000000000 != 0000000000000000000000000000000000000000000000007ff8000000000000
ymm1 at instrcount: 133

Failed:[4m[1m[91mFail[0m
0000000000000001 != 0000000000000000
rax at instrcount: 133

Failed:[4m[1m[91mFail[0m
0000000000000000000000000000000000000000000000000000000000000000 != 0000000000000000000000000000000000000000000000007ff8000000000000
ymm0 at instrcount: 134

Failed:[4m[1m[91mFail[0m
0000000000000000000000000000000000000000000000000000000000000000 != 0000000000000000000000000000000000000000000000007ff8000000000000
ymm1 at instrcount: 134

Failed:[4m[1m[91mFail[0m
0000000000000001 != 0000000000000000
rax at instrcount: 134

Failed:[4m[1m[91mFail[0m
0000000000000000000000000000000000000000000000000000000000000000 != 0000000000000000000000000000000000000000000000007ff8000000000000
ymm0 at instrcount: 135

Failed:[4m[1m[91mFail[0m
0000000000000000000000000000000000000000000000000000000000000000 != 0000000000000000000000000000000000000000000000007ff8000000000000
ymm1 at instrcount: 135

Failed:[4m[1m[91mFail[0m
0000000000000001 != 0000000000000000
rax at instrcount: 135

Failed:[4m[1m[91mFail[0m
0000000000000000000000000000000000000000000000000000000000000000 != 0000000000000000000000000000000000000000000000007ff8000000000000
ymm0 at instrcount: 136

Failed:[4m[1m[91mFail[0m
0000000000000000000000000000000000000000000000000000000000000000 != 0000000000000000000000000000000000000000000000007ff8000000000000
ymm1 at instrcount: 136

Failed:[4m[1m[91mFail[0m
0000000000000001 != 0000000000000000
rax at instrcount: 136

Failed:[4m[1m[91mFail[0m
0000000000000000000000000000000000000000000000000000000000000000 != 0000000000000000000000000000000000000000000000007ff8000000000000
ymm0 at instrcount: 137

Failed:[4m[1m[91mFail[0m
0000000000000000000000000000000000000000000000000000000000000000 != 0000000000000000000000000000000000000000000000007ff8000000000000
ymm1 at instrcount: 137

Failed:[4m[1m[91mFail[0m
0000000000000001 != 0000000000000000
rax at instrcount: 137

Failed:[4m[1m[91mFail[0m
0000000000000000000000000000000000000000000000000000000000000000 != 0000000000000000000000000000000000000000000000007ff8000000000000
ymm0 at instrcount: 138

Failed:[4m[1m[91mFail[0m
0000000000000000000000000000000000000000000000000000000000000000 != 0000000000000000000000000000000000000000000000007ff8000000000000
ymm1 at instrcount: 138

Failed:[4m[1m[91mFail[0m
ffffffffffffffff != 0000000000000000
rax at instrcount: 138

Failed:[4m[1m[91mFail[0m
0000000000000000000000000000000000000000000000000000000000000000 != 0000000000000000000000000000000000000000000000007ff8000000000000
ymm0 at instrcount: 139

Failed:[4m[1m[91mFail[0m
0000000000000000000000000000000000000000000000000000000000000000 != 0000000000000000000000000000000000000000000000007ff8000000000000
ymm1 at instrcount: 139

Failed:[4m[1m[91mFail[0m
ffffffffffffffff != 0000000000000000
rax at instrcount: 139

Failed:[4m[1m[91mFail[0m
0000000000000000000000000000000000000000000000000000000000000000 != 0000000000000000000000000000000000000000000000007ff8000000000000
ymm0 at instrcount: 140

Failed:[4m[1m[91mFail[0m
0000000000000000000000000000000000000000000000000000000000000000 != 0000000000000000000000000000000000000000000000007ff8000000000000
ymm1 at instrcount: 140

Passed:[4m[1m[92mPassed[0m
