
test_24.o:     file format elf64-x86-64


Disassembly of section .text:

0000000000000000 <keycomp>:
   0:	55                   	push   %rbp
   1:	48 89 e5             	mov    %rsp,%rbp
   4:	53                   	push   %rbx
   5:	48 83 ec 48          	sub    $0x48,%rsp
   9:	48 89 7d b8          	mov    %rdi,-0x48(%rbp)
   d:	48 8b 45 b8          	mov    -0x48(%rbp),%rax
  11:	48 89 c7             	mov    %rax,%rdi
  14:	e8 00 00 00 00       	callq  19 <keycomp+0x19>
  19:	89 45 e8             	mov    %eax,-0x18(%rbp)
  1c:	83 7d e8 25          	cmpl   $0x25,-0x18(%rbp)
  20:	74 08                	je     2a <keycomp+0x2a>
  22:	8b 45 e8             	mov    -0x18(%rbp),%eax
  25:	e9 67 03 00 00       	jmpq   391 <keycomp+0x391>
  2a:	48 83 45 b8 04       	addq   $0x4,-0x48(%rbp)
  2f:	48 8b 45 b8          	mov    -0x48(%rbp),%rax
  33:	0f b6 00             	movzbl (%rax),%eax
  36:	3c 64                	cmp    $0x64,%al
  38:	74 0a                	je     44 <keycomp+0x44>
  3a:	b8 fe ff ff ff       	mov    $0xfffffffe,%eax
  3f:	e9 4d 03 00 00       	jmpq   391 <keycomp+0x391>
  44:	48 8b 45 b8          	mov    -0x48(%rbp),%rax
  48:	48 83 c0 01          	add    $0x1,%rax
  4c:	0f b6 00             	movzbl (%rax),%eax
  4f:	0f b6 c0             	movzbl %al,%eax
  52:	89 c7                	mov    %eax,%edi
  54:	e8 00 00 00 00       	callq  59 <keycomp+0x59>
  59:	83 f8 09             	cmp    $0x9,%eax
  5c:	74 0a                	je     68 <keycomp+0x68>
  5e:	b8 fd ff ff ff       	mov    $0xfffffffd,%eax
  63:	e9 29 03 00 00       	jmpq   391 <keycomp+0x391>
  68:	48 8b 45 b8          	mov    -0x48(%rbp),%rax
  6c:	48 83 c0 02          	add    $0x2,%rax
  70:	0f b6 00             	movzbl (%rax),%eax
  73:	0f b6 c0             	movzbl %al,%eax
  76:	89 c7                	mov    %eax,%edi
  78:	e8 00 00 00 00       	callq  7d <keycomp+0x7d>
  7d:	89 45 e4             	mov    %eax,-0x1c(%rbp)
  80:	8b 45 e4             	mov    -0x1c(%rbp),%eax
  83:	01 c0                	add    %eax,%eax
  85:	83 f8 1a             	cmp    $0x1a,%eax
  88:	74 0a                	je     94 <keycomp+0x94>
  8a:	b8 fc ff ff ff       	mov    $0xfffffffc,%eax
  8f:	e9 fd 02 00 00       	jmpq   391 <keycomp+0x391>
  94:	48 8b 45 b8          	mov    -0x48(%rbp),%rax
  98:	48 83 c0 03          	add    $0x3,%rax
  9c:	0f b6 00             	movzbl (%rax),%eax
  9f:	0f b6 c0             	movzbl %al,%eax
  a2:	89 c7                	mov    %eax,%edi
  a4:	e8 00 00 00 00       	callq  a9 <keycomp+0xa9>
  a9:	89 45 e0             	mov    %eax,-0x20(%rbp)
  ac:	8b 45 e0             	mov    -0x20(%rbp),%eax
  af:	83 e8 0d             	sub    $0xd,%eax
  b2:	83 f8 01             	cmp    $0x1,%eax
  b5:	76 0a                	jbe    c1 <keycomp+0xc1>
  b7:	b8 fb ff ff ff       	mov    $0xfffffffb,%eax
  bc:	e9 d0 02 00 00       	jmpq   391 <keycomp+0x391>
  c1:	48 8b 45 b8          	mov    -0x48(%rbp),%rax
  c5:	48 83 c0 04          	add    $0x4,%rax
  c9:	0f b6 00             	movzbl (%rax),%eax
  cc:	0f be c0             	movsbl %al,%eax
  cf:	83 e0 0f             	and    $0xf,%eax
  d2:	83 f8 01             	cmp    $0x1,%eax
  d5:	75 49                	jne    120 <keycomp+0x120>
  d7:	48 8b 45 b8          	mov    -0x48(%rbp),%rax
  db:	48 83 c0 04          	add    $0x4,%rax
  df:	0f b6 00             	movzbl (%rax),%eax
  e2:	0f be c0             	movsbl %al,%eax
  e5:	25 f0 00 00 00       	and    $0xf0,%eax
  ea:	83 f8 30             	cmp    $0x30,%eax
  ed:	75 31                	jne    120 <keycomp+0x120>
  ef:	c7 45 ec fc ff ff ff 	movl   $0xfffffffc,-0x14(%rbp)
  f6:	48 8b 45 b8          	mov    -0x48(%rbp),%rax
  fa:	48 83 c0 05          	add    $0x5,%rax
  fe:	0f b6 00             	movzbl (%rax),%eax
 101:	83 e0 0f             	and    $0xf,%eax
 104:	88 45 df             	mov    %al,-0x21(%rbp)
 107:	48 8b 45 b8          	mov    -0x48(%rbp),%rax
 10b:	48 83 c0 05          	add    $0x5,%rax
 10f:	0f b6 00             	movzbl (%rax),%eax
 112:	83 e0 f0             	and    $0xfffffffffffffff0,%eax
 115:	88 45 de             	mov    %al,-0x22(%rbp)
 118:	80 7d df 03          	cmpb   $0x3,-0x21(%rbp)
 11c:	74 0c                	je     12a <keycomp+0x12a>
 11e:	eb 16                	jmp    136 <keycomp+0x136>
 120:	b8 fa ff ff ff       	mov    $0xfffffffa,%eax
 125:	e9 67 02 00 00       	jmpq   391 <keycomp+0x391>
 12a:	80 7d de 60          	cmpb   $0x60,-0x22(%rbp)
 12e:	75 06                	jne    136 <keycomp+0x136>
 130:	83 45 ec 04          	addl   $0x4,-0x14(%rbp)
 134:	eb 04                	jmp    13a <keycomp+0x13a>
 136:	83 45 ec 05          	addl   $0x5,-0x14(%rbp)
 13a:	48 8b 45 b8          	mov    -0x48(%rbp),%rax
 13e:	48 83 c0 06          	add    $0x6,%rax
 142:	0f b6 00             	movzbl (%rax),%eax
 145:	0f b6 c0             	movzbl %al,%eax
 148:	89 c7                	mov    %eax,%edi
 14a:	e8 00 00 00 00       	callq  14f <keycomp+0x14f>
 14f:	88 45 dd             	mov    %al,-0x23(%rbp)
 152:	48 8b 45 b8          	mov    -0x48(%rbp),%rax
 156:	48 83 c0 07          	add    $0x7,%rax
 15a:	0f b6 00             	movzbl (%rax),%eax
 15d:	0f b6 c0             	movzbl %al,%eax
 160:	89 c7                	mov    %eax,%edi
 162:	e8 00 00 00 00       	callq  167 <keycomp+0x167>
 167:	08 45 dd             	or     %al,-0x23(%rbp)
 16a:	0f b6 45 dd          	movzbl -0x23(%rbp),%eax
 16e:	83 f8 b9             	cmp    $0xffffffffffffffb9,%eax
 171:	75 06                	jne    179 <keycomp+0x179>
 173:	83 6d ec 01          	subl   $0x1,-0x14(%rbp)
 177:	eb 08                	jmp    181 <keycomp+0x181>
 179:	8b 45 ec             	mov    -0x14(%rbp),%eax
 17c:	89 c1                	mov    %eax,%ecx
 17e:	d3 65 ec             	shll   %cl,-0x14(%rbp)
 181:	83 7d ec 00          	cmpl   $0x0,-0x14(%rbp)
 185:	74 0a                	je     191 <keycomp+0x191>
 187:	b8 f9 ff ff ff       	mov    $0xfffffff9,%eax
 18c:	e9 00 02 00 00       	jmpq   391 <keycomp+0x391>
 191:	48 8b 45 b8          	mov    -0x48(%rbp),%rax
 195:	48 83 c0 08          	add    $0x8,%rax
 199:	ba 04 00 00 00       	mov    $0x4,%edx
 19e:	48 89 c6             	mov    %rax,%rsi
 1a1:	bf 00 00 00 00       	mov    $0x0,%edi
 1a6:	e8 00 00 00 00       	callq  1ab <keycomp+0x1ab>
 1ab:	66 89 45 da          	mov    %ax,-0x26(%rbp)
 1af:	0f b7 45 da          	movzwl -0x26(%rbp),%eax
 1b3:	66 0d 55 55          	or     $0x5555,%ax
 1b7:	66 3d 57 dd          	cmp    $0xdd57,%ax
 1bb:	75 17                	jne    1d4 <keycomp+0x1d4>
 1bd:	0f b7 45 da          	movzwl -0x26(%rbp),%eax
 1c1:	66 0d aa aa          	or     $0xaaaa,%ax
 1c5:	66 3d bb fe          	cmp    $0xfebb,%ax
 1c9:	75 09                	jne    1d4 <keycomp+0x1d4>
 1cb:	c7 45 ec aa aa 00 00 	movl   $0xaaaa,-0x14(%rbp)
 1d2:	eb 07                	jmp    1db <keycomp+0x1db>
 1d4:	c7 45 ec bb bb 00 00 	movl   $0xbbbb,-0x14(%rbp)
 1db:	48 8b 45 b8          	mov    -0x48(%rbp),%rax
 1df:	48 83 c0 0c          	add    $0xc,%rax
 1e3:	ba 08 00 00 00       	mov    $0x8,%edx
 1e8:	48 89 c6             	mov    %rax,%rsi
 1eb:	bf 00 00 00 00       	mov    $0x0,%edi
 1f0:	e8 00 00 00 00       	callq  1f5 <keycomp+0x1f5>
 1f5:	89 45 d4             	mov    %eax,-0x2c(%rbp)
 1f8:	8b 45 d4             	mov    -0x2c(%rbp),%eax
 1fb:	35 9d 76 88 a4       	xor    $0xa488769d,%eax
 200:	89 45 d0             	mov    %eax,-0x30(%rbp)
 203:	8b 45 d0             	mov    -0x30(%rbp),%eax
 206:	c1 e8 10             	shr    $0x10,%eax
 209:	89 45 cc             	mov    %eax,-0x34(%rbp)
 20c:	8b 45 d0             	mov    -0x30(%rbp),%eax
 20f:	0f b7 c0             	movzwl %ax,%eax
 212:	89 45 c8             	mov    %eax,-0x38(%rbp)
 215:	81 7d cc 4b 4f 00 00 	cmpl   $0x4f4b,-0x34(%rbp)
 21c:	75 11                	jne    22f <keycomp+0x22f>
 21e:	8b 45 ec             	mov    -0x14(%rbp),%eax
 221:	3b 45 c8             	cmp    -0x38(%rbp),%eax
 224:	75 09                	jne    22f <keycomp+0x22f>
 226:	c7 45 ec 00 00 00 00 	movl   $0x0,-0x14(%rbp)
 22d:	eb 07                	jmp    236 <keycomp+0x236>
 22f:	c7 45 ec df bc 00 00 	movl   $0xbcdf,-0x14(%rbp)
 236:	48 8b 45 b8          	mov    -0x48(%rbp),%rax
 23a:	48 8d 48 14          	lea    0x14(%rax),%rcx
 23e:	8b 45 ec             	mov    -0x14(%rbp),%eax
 241:	ba 08 00 00 00       	mov    $0x8,%edx
 246:	48 89 ce             	mov    %rcx,%rsi
 249:	89 c7                	mov    %eax,%edi
 24b:	e8 00 00 00 00       	callq  250 <keycomp+0x250>
 250:	89 45 c4             	mov    %eax,-0x3c(%rbp)
 253:	83 6d c4 03          	subl   $0x3,-0x3c(%rbp)
 257:	8b 45 c4             	mov    -0x3c(%rbp),%eax
 25a:	83 e0 07             	and    $0x7,%eax
 25d:	85 c0                	test   %eax,%eax
 25f:	74 0a                	je     26b <keycomp+0x26b>
 261:	b8 eb ff ff ff       	mov    $0xffffffeb,%eax
 266:	e9 26 01 00 00       	jmpq   391 <keycomp+0x391>
 26b:	81 45 c4 00 00 00 80 	addl   $0x80000000,-0x3c(%rbp)
 272:	81 7d c4 ff ff ff 0f 	cmpl   $0xfffffff,-0x3c(%rbp)
 279:	76 0a                	jbe    285 <keycomp+0x285>
 27b:	b8 ea ff ff ff       	mov    $0xffffffea,%eax
 280:	e9 0c 01 00 00       	jmpq   391 <keycomp+0x391>
 285:	81 75 c4 00 00 d0 00 	xorl   $0xd00000,-0x3c(%rbp)
 28c:	c1 6d c4 04          	shrl   $0x4,-0x3c(%rbp)
 290:	81 6d c4 e2 00 00 00 	subl   $0xe2,-0x3c(%rbp)
 297:	8b 45 c4             	mov    -0x3c(%rbp),%eax
 29a:	ba 59 17 b7 d1       	mov    $0xd1b71759,%edx
 29f:	f7 e2                	mul    %edx
 2a1:	89 d0                	mov    %edx,%eax
 2a3:	c1 e8 0d             	shr    $0xd,%eax
 2a6:	89 45 c4             	mov    %eax,-0x3c(%rbp)
 2a9:	83 7d c4 03          	cmpl   $0x3,-0x3c(%rbp)
 2ad:	74 08                	je     2b7 <keycomp+0x2b7>
 2af:	8b 45 c4             	mov    -0x3c(%rbp),%eax
 2b2:	e9 da 00 00 00       	jmpq   391 <keycomp+0x391>
 2b7:	48 8b 45 b8          	mov    -0x48(%rbp),%rax
 2bb:	48 8d 48 1c          	lea    0x1c(%rax),%rcx
 2bf:	8b 45 ec             	mov    -0x14(%rbp),%eax
 2c2:	ba 04 00 00 00       	mov    $0x4,%edx
 2c7:	48 89 ce             	mov    %rcx,%rsi
 2ca:	89 c7                	mov    %eax,%edi
 2cc:	e8 00 00 00 00       	callq  2d1 <keycomp+0x2d1>
 2d1:	89 45 c0             	mov    %eax,-0x40(%rbp)
 2d4:	48 8b 45 b8          	mov    -0x48(%rbp),%rax
 2d8:	48 83 c0 1c          	add    $0x1c,%rax
 2dc:	0f b6 00             	movzbl (%rax),%eax
 2df:	3c 64                	cmp    $0x64,%al
 2e1:	75 1d                	jne    300 <keycomp+0x300>
 2e3:	48 8b 45 b8          	mov    -0x48(%rbp),%rax
 2e7:	48 83 c0 1d          	add    $0x1d,%rax
 2eb:	0f b6 00             	movzbl (%rax),%eax
 2ee:	3c 64                	cmp    $0x64,%al
 2f0:	75 0e                	jne    300 <keycomp+0x300>
 2f2:	8b 45 ec             	mov    -0x14(%rbp),%eax
 2f5:	33 45 c0             	xor    -0x40(%rbp),%eax
 2f8:	89 45 ec             	mov    %eax,-0x14(%rbp)
 2fb:	e9 8e 00 00 00       	jmpq   38e <keycomp+0x38e>
 300:	48 8b 45 b8          	mov    -0x48(%rbp),%rax
 304:	48 83 c0 1c          	add    $0x1c,%rax
 308:	0f b6 10             	movzbl (%rax),%edx
 30b:	48 8b 45 b8          	mov    -0x48(%rbp),%rax
 30f:	48 83 c0 1d          	add    $0x1d,%rax
 313:	0f b6 00             	movzbl (%rax),%eax
 316:	38 c2                	cmp    %al,%dl
 318:	75 6e                	jne    388 <keycomp+0x388>
 31a:	48 8b 45 b8          	mov    -0x48(%rbp),%rax
 31e:	48 83 c0 1e          	add    $0x1e,%rax
 322:	0f b6 00             	movzbl (%rax),%eax
 325:	0f be d0             	movsbl %al,%edx
 328:	48 8b 45 b8          	mov    -0x48(%rbp),%rax
 32c:	48 83 c0 1f          	add    $0x1f,%rax
 330:	0f b6 00             	movzbl (%rax),%eax
 333:	0f be c0             	movsbl %al,%eax
 336:	29 c2                	sub    %eax,%edx
 338:	89 d0                	mov    %edx,%eax
 33a:	83 c0 0f             	add    $0xf,%eax
 33d:	01 45 ec             	add    %eax,-0x14(%rbp)
 340:	8b 5d ec             	mov    -0x14(%rbp),%ebx
 343:	48 8b 45 b8          	mov    -0x48(%rbp),%rax
 347:	48 83 c0 1c          	add    $0x1c,%rax
 34b:	0f b6 00             	movzbl (%rax),%eax
 34e:	0f b6 c0             	movzbl %al,%eax
 351:	89 c7                	mov    %eax,%edi
 353:	e8 00 00 00 00       	callq  358 <keycomp+0x358>
 358:	29 c3                	sub    %eax,%ebx
 35a:	89 d8                	mov    %ebx,%eax
 35c:	89 45 ec             	mov    %eax,-0x14(%rbp)
 35f:	83 7d ec 00          	cmpl   $0x0,-0x14(%rbp)
 363:	75 29                	jne    38e <keycomp+0x38e>
 365:	48 8b 45 b8          	mov    -0x48(%rbp),%rax
 369:	48 83 c0 1f          	add    $0x1f,%rax
 36d:	0f b6 00             	movzbl (%rax),%eax
 370:	0f b6 c0             	movzbl %al,%eax
 373:	89 c7                	mov    %eax,%edi
 375:	e8 00 00 00 00       	callq  37a <keycomp+0x37a>
 37a:	83 f8 04             	cmp    $0x4,%eax
 37d:	74 0f                	je     38e <keycomp+0x38e>
 37f:	c7 45 ec e0 ff ff ff 	movl   $0xffffffe0,-0x14(%rbp)
 386:	eb 06                	jmp    38e <keycomp+0x38e>
 388:	8b 45 c0             	mov    -0x40(%rbp),%eax
 38b:	89 45 ec             	mov    %eax,-0x14(%rbp)
 38e:	8b 45 ec             	mov    -0x14(%rbp),%eax
 391:	48 83 c4 48          	add    $0x48,%rsp
 395:	5b                   	pop    %rbx
 396:	5d                   	pop    %rbp
 397:	c3                   	retq   
