
test_1.o:     file format elf64-x86-64


Disassembly of section .text:

0000000000000000 <foo>:
   0:	55                   	push   %rbp
   1:	48 89 e5             	mov    %rsp,%rbp
   4:	48 83 ec 20          	sub    $0x20,%rsp
   8:	89 7d ec             	mov    %edi,-0x14(%rbp)
   b:	89 75 e8             	mov    %esi,-0x18(%rbp)
   e:	8b 45 e8             	mov    -0x18(%rbp),%eax
  11:	8b 55 ec             	mov    -0x14(%rbp),%edx
  14:	01 d0                	add    %edx,%eax
  16:	89 45 f8             	mov    %eax,-0x8(%rbp)
  19:	8b 45 f8             	mov    -0x8(%rbp),%eax
  1c:	89 c6                	mov    %eax,%esi
  1e:	bf 00 00 00 00       	mov    $0x0,%edi
  23:	b8 00 00 00 00       	mov    $0x0,%eax
  28:	e8 00 00 00 00       	callq  2d <foo+0x2d>
  2d:	83 7d ec 28          	cmpl   $0x28,-0x14(%rbp)
  31:	7e 0b                	jle    3e <foo+0x3e>
  33:	8b 45 f8             	mov    -0x8(%rbp),%eax
  36:	83 c0 0a             	add    $0xa,%eax
  39:	89 45 fc             	mov    %eax,-0x4(%rbp)
  3c:	eb 09                	jmp    47 <foo+0x47>
  3e:	8b 45 f8             	mov    -0x8(%rbp),%eax
  41:	83 e8 0a             	sub    $0xa,%eax
  44:	89 45 fc             	mov    %eax,-0x4(%rbp)
  47:	8b 45 fc             	mov    -0x4(%rbp),%eax
  4a:	c9                   	leaveq 
  4b:	c3                   	retq   

000000000000004c <main>:
  4c:	55                   	push   %rbp
  4d:	48 89 e5             	mov    %rsp,%rbp
  50:	48 83 ec 10          	sub    $0x10,%rsp
  54:	be 14 00 00 00       	mov    $0x14,%esi
  59:	bf 0a 00 00 00       	mov    $0xa,%edi
  5e:	e8 00 00 00 00       	callq  63 <main+0x17>
  63:	89 45 fc             	mov    %eax,-0x4(%rbp)
  66:	8b 45 fc             	mov    -0x4(%rbp),%eax
  69:	c9                   	leaveq 
  6a:	c3                   	retq   
