
Output/test_7.clang.o:     file format elf64-x86-64


Disassembly of section .text:

0000000000000000 <check>:
   0:	55                   	push   %rbp
   1:	48 89 e5             	mov    %rsp,%rbp
   4:	53                   	push   %rbx
   5:	48 8b 45 28          	mov    0x28(%rbp),%rax
   9:	4c 8b 55 20          	mov    0x20(%rbp),%r10
   d:	4c 8b 5d 18          	mov    0x18(%rbp),%r11
  11:	8b 5d 10             	mov    0x10(%rbp),%ebx
  14:	89 7d f4             	mov    %edi,-0xc(%rbp)
  17:	48 89 75 e8          	mov    %rsi,-0x18(%rbp)
  1b:	48 89 55 e0          	mov    %rdx,-0x20(%rbp)
  1f:	48 89 4d d8          	mov    %rcx,-0x28(%rbp)
  23:	44 89 45 d4          	mov    %r8d,-0x2c(%rbp)
  27:	44 89 4d d0          	mov    %r9d,-0x30(%rbp)
  2b:	89 5d cc             	mov    %ebx,-0x34(%rbp)
  2e:	4c 89 5d c0          	mov    %r11,-0x40(%rbp)
  32:	4c 89 55 b8          	mov    %r10,-0x48(%rbp)
  36:	48 89 45 b0          	mov    %rax,-0x50(%rbp)
  3a:	c7 45 ac 00 00 00 00 	movl   $0x0,-0x54(%rbp)
  41:	8b 7d f4             	mov    -0xc(%rbp),%edi
  44:	03 7d ac             	add    -0x54(%rbp),%edi
  47:	89 7d ac             	mov    %edi,-0x54(%rbp)
  4a:	c7 45 a8 00 00 00 00 	movl   $0x0,-0x58(%rbp)
  51:	8b 45 a8             	mov    -0x58(%rbp),%eax
  54:	3b 45 d4             	cmp    -0x2c(%rbp),%eax
  57:	0f 8d 1f 00 00 00    	jge    7c <check+0x7c>
  5d:	48 63 45 a8          	movslq -0x58(%rbp),%rax
  61:	48 8b 4d e8          	mov    -0x18(%rbp),%rcx
  65:	8b 14 81             	mov    (%rcx,%rax,4),%edx
  68:	03 55 ac             	add    -0x54(%rbp),%edx
  6b:	89 55 ac             	mov    %edx,-0x54(%rbp)
  6e:	8b 45 a8             	mov    -0x58(%rbp),%eax
  71:	83 c0 01             	add    $0x1,%eax
  74:	89 45 a8             	mov    %eax,-0x58(%rbp)
  77:	e9 d5 ff ff ff       	jmpq   51 <check+0x51>
  7c:	48 8b 45 e0          	mov    -0x20(%rbp),%rax
  80:	8b 08                	mov    (%rax),%ecx
  82:	03 4d ac             	add    -0x54(%rbp),%ecx
  85:	89 4d ac             	mov    %ecx,-0x54(%rbp)
  88:	c7 45 a4 00 00 00 00 	movl   $0x0,-0x5c(%rbp)
  8f:	8b 45 a4             	mov    -0x5c(%rbp),%eax
  92:	3b 45 d0             	cmp    -0x30(%rbp),%eax
  95:	0f 8d 1f 00 00 00    	jge    ba <check+0xba>
  9b:	48 63 45 a4          	movslq -0x5c(%rbp),%rax
  9f:	48 8b 4d d8          	mov    -0x28(%rbp),%rcx
  a3:	8b 14 81             	mov    (%rcx,%rax,4),%edx
  a6:	03 55 ac             	add    -0x54(%rbp),%edx
  a9:	89 55 ac             	mov    %edx,-0x54(%rbp)
  ac:	8b 45 a4             	mov    -0x5c(%rbp),%eax
  af:	83 c0 01             	add    $0x1,%eax
  b2:	89 45 a4             	mov    %eax,-0x5c(%rbp)
  b5:	e9 d5 ff ff ff       	jmpq   8f <check+0x8f>
  ba:	8b 45 cc             	mov    -0x34(%rbp),%eax
  bd:	03 45 ac             	add    -0x54(%rbp),%eax
  c0:	89 45 ac             	mov    %eax,-0x54(%rbp)
  c3:	c7 45 a0 00 00 00 00 	movl   $0x0,-0x60(%rbp)
  ca:	8b 45 a0             	mov    -0x60(%rbp),%eax
  cd:	3b 45 d4             	cmp    -0x2c(%rbp),%eax
  d0:	0f 8d 1f 00 00 00    	jge    f5 <check+0xf5>
  d6:	48 63 45 a0          	movslq -0x60(%rbp),%rax
  da:	48 8b 4d c0          	mov    -0x40(%rbp),%rcx
  de:	8b 14 81             	mov    (%rcx,%rax,4),%edx
  e1:	03 55 ac             	add    -0x54(%rbp),%edx
  e4:	89 55 ac             	mov    %edx,-0x54(%rbp)
  e7:	8b 45 a0             	mov    -0x60(%rbp),%eax
  ea:	83 c0 01             	add    $0x1,%eax
  ed:	89 45 a0             	mov    %eax,-0x60(%rbp)
  f0:	e9 d5 ff ff ff       	jmpq   ca <check+0xca>
  f5:	48 8b 45 b8          	mov    -0x48(%rbp),%rax
  f9:	8b 08                	mov    (%rax),%ecx
  fb:	03 4d ac             	add    -0x54(%rbp),%ecx
  fe:	89 4d ac             	mov    %ecx,-0x54(%rbp)
 101:	c7 45 9c 00 00 00 00 	movl   $0x0,-0x64(%rbp)
 108:	8b 45 9c             	mov    -0x64(%rbp),%eax
 10b:	3b 45 d0             	cmp    -0x30(%rbp),%eax
 10e:	0f 8d 1f 00 00 00    	jge    133 <check+0x133>
 114:	48 63 45 9c          	movslq -0x64(%rbp),%rax
 118:	48 8b 4d b0          	mov    -0x50(%rbp),%rcx
 11c:	8b 14 81             	mov    (%rcx,%rax,4),%edx
 11f:	03 55 ac             	add    -0x54(%rbp),%edx
 122:	89 55 ac             	mov    %edx,-0x54(%rbp)
 125:	8b 45 9c             	mov    -0x64(%rbp),%eax
 128:	83 c0 01             	add    $0x1,%eax
 12b:	89 45 9c             	mov    %eax,-0x64(%rbp)
 12e:	e9 d5 ff ff ff       	jmpq   108 <check+0x108>
 133:	8b 45 ac             	mov    -0x54(%rbp),%eax
 136:	5b                   	pop    %rbx
 137:	5d                   	pop    %rbp
 138:	c3                   	retq   
 139:	0f 1f 80 00 00 00 00 	nopl   0x0(%rax)

0000000000000140 <main>:
 140:	55                   	push   %rbp
 141:	48 89 e5             	mov    %rsp,%rbp
 144:	41 56                	push   %r14
 146:	53                   	push   %rbx
 147:	48 81 ec 90 00 00 00 	sub    $0x90,%rsp
 14e:	c7 45 ec 00 00 00 00 	movl   $0x0,-0x14(%rbp)
 155:	c7 45 e8 01 00 00 00 	movl   $0x1,-0x18(%rbp)
 15c:	c7 45 bc 00 00 00 00 	movl   $0x0,-0x44(%rbp)
 163:	83 7d bc 0a          	cmpl   $0xa,-0x44(%rbp)
 167:	0f 8d 1c 00 00 00    	jge    189 <main+0x49>
 16d:	8b 45 bc             	mov    -0x44(%rbp),%eax
 170:	83 c0 01             	add    $0x1,%eax
 173:	48 63 4d bc          	movslq -0x44(%rbp),%rcx
 177:	89 44 8d c0          	mov    %eax,-0x40(%rbp,%rcx,4)
 17b:	8b 45 bc             	mov    -0x44(%rbp),%eax
 17e:	83 c0 01             	add    $0x1,%eax
 181:	89 45 bc             	mov    %eax,-0x44(%rbp)
 184:	e9 da ff ff ff       	jmpq   163 <main+0x23>
 189:	b8 28 00 00 00       	mov    $0x28,%eax
 18e:	89 c7                	mov    %eax,%edi
 190:	48 8d 4d e8          	lea    -0x18(%rbp),%rcx
 194:	48 89 4d b0          	mov    %rcx,-0x50(%rbp)
 198:	e8 00 00 00 00       	callq  19d <main+0x5d>
 19d:	48 89 45 a8          	mov    %rax,-0x58(%rbp)
 1a1:	c7 45 a4 00 00 00 00 	movl   $0x0,-0x5c(%rbp)
 1a8:	83 7d a4 0a          	cmpl   $0xa,-0x5c(%rbp)
 1ac:	0f 8d 1f 00 00 00    	jge    1d1 <main+0x91>
 1b2:	8b 45 a4             	mov    -0x5c(%rbp),%eax
 1b5:	83 c0 01             	add    $0x1,%eax
 1b8:	48 63 4d a4          	movslq -0x5c(%rbp),%rcx
 1bc:	48 8b 55 a8          	mov    -0x58(%rbp),%rdx
 1c0:	89 04 8a             	mov    %eax,(%rdx,%rcx,4)
 1c3:	8b 45 a4             	mov    -0x5c(%rbp),%eax
 1c6:	83 c0 01             	add    $0x1,%eax
 1c9:	89 45 a4             	mov    %eax,-0x5c(%rbp)
 1cc:	e9 d7 ff ff ff       	jmpq   1a8 <main+0x68>
 1d1:	b8 0a 00 00 00       	mov    $0xa,%eax
 1d6:	48 8d 4d c0          	lea    -0x40(%rbp),%rcx
 1da:	8b 7d e8             	mov    -0x18(%rbp),%edi
 1dd:	48 8b 55 b0          	mov    -0x50(%rbp),%rdx
 1e1:	48 8b 75 a8          	mov    -0x58(%rbp),%rsi
 1e5:	44 8b 45 e8          	mov    -0x18(%rbp),%r8d
 1e9:	4c 8b 4d b0          	mov    -0x50(%rbp),%r9
 1ed:	4c 8b 55 a8          	mov    -0x58(%rbp),%r10
 1f1:	48 89 75 98          	mov    %rsi,-0x68(%rbp)
 1f5:	48 89 ce             	mov    %rcx,%rsi
 1f8:	4c 8b 5d 98          	mov    -0x68(%rbp),%r11
 1fc:	48 89 4d 90          	mov    %rcx,-0x70(%rbp)
 200:	4c 89 d9             	mov    %r11,%rcx
 203:	44 89 45 8c          	mov    %r8d,-0x74(%rbp)
 207:	41 89 c0             	mov    %eax,%r8d
 20a:	4c 89 4d 80          	mov    %r9,-0x80(%rbp)
 20e:	41 89 c1             	mov    %eax,%r9d
 211:	8b 45 8c             	mov    -0x74(%rbp),%eax
 214:	89 04 24             	mov    %eax,(%rsp)
 217:	48 8b 5d 90          	mov    -0x70(%rbp),%rbx
 21b:	48 89 5c 24 08       	mov    %rbx,0x8(%rsp)
 220:	4c 8b 75 80          	mov    -0x80(%rbp),%r14
 224:	4c 89 74 24 10       	mov    %r14,0x10(%rsp)
 229:	4c 89 54 24 18       	mov    %r10,0x18(%rsp)
 22e:	e8 cd fd ff ff       	callq  0 <check>
 233:	48 81 c4 90 00 00 00 	add    $0x90,%rsp
 23a:	5b                   	pop    %rbx
 23b:	41 5e                	pop    %r14
 23d:	5d                   	pop    %rbp
 23e:	c3                   	retq   
