
Output/test_20.clang.o:     file format elf64-x86-64


Disassembly of section .text:

0000000000000000 <switches>:
   0:	55                   	push   %rbp
   1:	48 89 e5             	mov    %rsp,%rbp
   4:	89 7d fc             	mov    %edi,-0x4(%rbp)
   7:	c7 45 f8 00 00 00 00 	movl   $0x0,-0x8(%rbp)
   e:	8b 7d fc             	mov    -0x4(%rbp),%edi
  11:	85 ff                	test   %edi,%edi
  13:	89 7d f4             	mov    %edi,-0xc(%rbp)
  16:	0f 84 83 01 00 00    	je     19f <switches+0x19f>
  1c:	e9 00 00 00 00       	jmpq   21 <switches+0x21>
  21:	8b 45 f4             	mov    -0xc(%rbp),%eax
  24:	83 e8 01             	sub    $0x1,%eax
  27:	89 45 f0             	mov    %eax,-0x10(%rbp)
  2a:	0f 84 7d 01 00 00    	je     1ad <switches+0x1ad>
  30:	e9 00 00 00 00       	jmpq   35 <switches+0x35>
  35:	8b 45 f4             	mov    -0xc(%rbp),%eax
  38:	83 e8 02             	sub    $0x2,%eax
  3b:	89 45 ec             	mov    %eax,-0x14(%rbp)
  3e:	0f 84 77 01 00 00    	je     1bb <switches+0x1bb>
  44:	e9 00 00 00 00       	jmpq   49 <switches+0x49>
  49:	8b 45 f4             	mov    -0xc(%rbp),%eax
  4c:	83 e8 04             	sub    $0x4,%eax
  4f:	89 45 e8             	mov    %eax,-0x18(%rbp)
  52:	0f 84 71 01 00 00    	je     1c9 <switches+0x1c9>
  58:	e9 00 00 00 00       	jmpq   5d <switches+0x5d>
  5d:	8b 45 f4             	mov    -0xc(%rbp),%eax
  60:	83 e8 06             	sub    $0x6,%eax
  63:	89 45 e4             	mov    %eax,-0x1c(%rbp)
  66:	0f 84 6b 01 00 00    	je     1d7 <switches+0x1d7>
  6c:	e9 00 00 00 00       	jmpq   71 <switches+0x71>
  71:	8b 45 f4             	mov    -0xc(%rbp),%eax
  74:	83 e8 0c             	sub    $0xc,%eax
  77:	89 45 e0             	mov    %eax,-0x20(%rbp)
  7a:	0f 84 65 01 00 00    	je     1e5 <switches+0x1e5>
  80:	e9 00 00 00 00       	jmpq   85 <switches+0x85>
  85:	8b 45 f4             	mov    -0xc(%rbp),%eax
  88:	83 e8 0d             	sub    $0xd,%eax
  8b:	89 45 dc             	mov    %eax,-0x24(%rbp)
  8e:	0f 84 5f 01 00 00    	je     1f3 <switches+0x1f3>
  94:	e9 00 00 00 00       	jmpq   99 <switches+0x99>
  99:	8b 45 f4             	mov    -0xc(%rbp),%eax
  9c:	83 e8 13             	sub    $0x13,%eax
  9f:	89 45 d8             	mov    %eax,-0x28(%rbp)
  a2:	0f 84 59 01 00 00    	je     201 <switches+0x201>
  a8:	e9 00 00 00 00       	jmpq   ad <switches+0xad>
  ad:	8b 45 f4             	mov    -0xc(%rbp),%eax
  b0:	2d ff 00 00 00       	sub    $0xff,%eax
  b5:	89 45 d4             	mov    %eax,-0x2c(%rbp)
  b8:	0f 84 51 01 00 00    	je     20f <switches+0x20f>
  be:	e9 00 00 00 00       	jmpq   c3 <switches+0xc3>
  c3:	8b 45 f4             	mov    -0xc(%rbp),%eax
  c6:	2d 89 23 01 00       	sub    $0x12389,%eax
  cb:	89 45 d0             	mov    %eax,-0x30(%rbp)
  ce:	0f 84 4b 01 00 00    	je     21f <switches+0x21f>
  d4:	e9 00 00 00 00       	jmpq   d9 <switches+0xd9>
  d9:	8b 45 f4             	mov    -0xc(%rbp),%eax
  dc:	2d 8a 23 01 00       	sub    $0x1238a,%eax
  e1:	89 45 cc             	mov    %eax,-0x34(%rbp)
  e4:	0f 84 45 01 00 00    	je     22f <switches+0x22f>
  ea:	e9 00 00 00 00       	jmpq   ef <switches+0xef>
  ef:	8b 45 f4             	mov    -0xc(%rbp),%eax
  f2:	2d 8b 23 01 00       	sub    $0x1238b,%eax
  f7:	89 45 c8             	mov    %eax,-0x38(%rbp)
  fa:	0f 84 3f 01 00 00    	je     23f <switches+0x23f>
 100:	e9 00 00 00 00       	jmpq   105 <switches+0x105>
 105:	8b 45 f4             	mov    -0xc(%rbp),%eax
 108:	2d 8c 23 01 00       	sub    $0x1238c,%eax
 10d:	89 45 c4             	mov    %eax,-0x3c(%rbp)
 110:	0f 84 39 01 00 00    	je     24f <switches+0x24f>
 116:	e9 00 00 00 00       	jmpq   11b <switches+0x11b>
 11b:	8b 45 f4             	mov    -0xc(%rbp),%eax
 11e:	2d 8d 23 01 00       	sub    $0x1238d,%eax
 123:	89 45 c0             	mov    %eax,-0x40(%rbp)
 126:	0f 84 33 01 00 00    	je     25f <switches+0x25f>
 12c:	e9 00 00 00 00       	jmpq   131 <switches+0x131>
 131:	8b 45 f4             	mov    -0xc(%rbp),%eax
 134:	2d 8f 23 01 00       	sub    $0x1238f,%eax
 139:	89 45 bc             	mov    %eax,-0x44(%rbp)
 13c:	0f 84 2d 01 00 00    	je     26f <switches+0x26f>
 142:	e9 00 00 00 00       	jmpq   147 <switches+0x147>
 147:	8b 45 f4             	mov    -0xc(%rbp),%eax
 14a:	2d 90 23 01 00       	sub    $0x12390,%eax
 14f:	89 45 b8             	mov    %eax,-0x48(%rbp)
 152:	0f 84 27 01 00 00    	je     27f <switches+0x27f>
 158:	e9 00 00 00 00       	jmpq   15d <switches+0x15d>
 15d:	8b 45 f4             	mov    -0xc(%rbp),%eax
 160:	2d 91 23 01 00       	sub    $0x12391,%eax
 165:	89 45 b4             	mov    %eax,-0x4c(%rbp)
 168:	0f 84 21 01 00 00    	je     28f <switches+0x28f>
 16e:	e9 00 00 00 00       	jmpq   173 <switches+0x173>
 173:	8b 45 f4             	mov    -0xc(%rbp),%eax
 176:	2d 92 23 01 00       	sub    $0x12392,%eax
 17b:	89 45 b0             	mov    %eax,-0x50(%rbp)
 17e:	0f 84 1b 01 00 00    	je     29f <switches+0x29f>
 184:	e9 00 00 00 00       	jmpq   189 <switches+0x189>
 189:	8b 45 f4             	mov    -0xc(%rbp),%eax
 18c:	2d 93 23 01 00       	sub    $0x12393,%eax
 191:	89 45 ac             	mov    %eax,-0x54(%rbp)
 194:	0f 84 15 01 00 00    	je     2af <switches+0x2af>
 19a:	e9 20 01 00 00       	jmpq   2bf <switches+0x2bf>
 19f:	8b 45 f8             	mov    -0x8(%rbp),%eax
 1a2:	83 c0 00             	add    $0x0,%eax
 1a5:	89 45 f8             	mov    %eax,-0x8(%rbp)
 1a8:	e9 1b 01 00 00       	jmpq   2c8 <switches+0x2c8>
 1ad:	8b 45 f8             	mov    -0x8(%rbp),%eax
 1b0:	83 c0 01             	add    $0x1,%eax
 1b3:	89 45 f8             	mov    %eax,-0x8(%rbp)
 1b6:	e9 0d 01 00 00       	jmpq   2c8 <switches+0x2c8>
 1bb:	8b 45 f8             	mov    -0x8(%rbp),%eax
 1be:	83 c0 02             	add    $0x2,%eax
 1c1:	89 45 f8             	mov    %eax,-0x8(%rbp)
 1c4:	e9 ff 00 00 00       	jmpq   2c8 <switches+0x2c8>
 1c9:	8b 45 f8             	mov    -0x8(%rbp),%eax
 1cc:	83 c0 04             	add    $0x4,%eax
 1cf:	89 45 f8             	mov    %eax,-0x8(%rbp)
 1d2:	e9 f1 00 00 00       	jmpq   2c8 <switches+0x2c8>
 1d7:	8b 45 f8             	mov    -0x8(%rbp),%eax
 1da:	83 c0 06             	add    $0x6,%eax
 1dd:	89 45 f8             	mov    %eax,-0x8(%rbp)
 1e0:	e9 e3 00 00 00       	jmpq   2c8 <switches+0x2c8>
 1e5:	8b 45 f8             	mov    -0x8(%rbp),%eax
 1e8:	83 c0 0c             	add    $0xc,%eax
 1eb:	89 45 f8             	mov    %eax,-0x8(%rbp)
 1ee:	e9 d5 00 00 00       	jmpq   2c8 <switches+0x2c8>
 1f3:	8b 45 f8             	mov    -0x8(%rbp),%eax
 1f6:	83 c0 0d             	add    $0xd,%eax
 1f9:	89 45 f8             	mov    %eax,-0x8(%rbp)
 1fc:	e9 c7 00 00 00       	jmpq   2c8 <switches+0x2c8>
 201:	8b 45 f8             	mov    -0x8(%rbp),%eax
 204:	83 c0 13             	add    $0x13,%eax
 207:	89 45 f8             	mov    %eax,-0x8(%rbp)
 20a:	e9 b9 00 00 00       	jmpq   2c8 <switches+0x2c8>
 20f:	8b 45 f8             	mov    -0x8(%rbp),%eax
 212:	05 ff 00 00 00       	add    $0xff,%eax
 217:	89 45 f8             	mov    %eax,-0x8(%rbp)
 21a:	e9 a9 00 00 00       	jmpq   2c8 <switches+0x2c8>
 21f:	8b 45 f8             	mov    -0x8(%rbp),%eax
 222:	05 89 23 01 00       	add    $0x12389,%eax
 227:	89 45 f8             	mov    %eax,-0x8(%rbp)
 22a:	e9 99 00 00 00       	jmpq   2c8 <switches+0x2c8>
 22f:	8b 45 f8             	mov    -0x8(%rbp),%eax
 232:	05 8a 23 01 00       	add    $0x1238a,%eax
 237:	89 45 f8             	mov    %eax,-0x8(%rbp)
 23a:	e9 89 00 00 00       	jmpq   2c8 <switches+0x2c8>
 23f:	8b 45 f8             	mov    -0x8(%rbp),%eax
 242:	05 8b 23 01 00       	add    $0x1238b,%eax
 247:	89 45 f8             	mov    %eax,-0x8(%rbp)
 24a:	e9 79 00 00 00       	jmpq   2c8 <switches+0x2c8>
 24f:	8b 45 f8             	mov    -0x8(%rbp),%eax
 252:	05 8c 23 01 00       	add    $0x1238c,%eax
 257:	89 45 f8             	mov    %eax,-0x8(%rbp)
 25a:	e9 69 00 00 00       	jmpq   2c8 <switches+0x2c8>
 25f:	8b 45 f8             	mov    -0x8(%rbp),%eax
 262:	05 8d 23 01 00       	add    $0x1238d,%eax
 267:	89 45 f8             	mov    %eax,-0x8(%rbp)
 26a:	e9 59 00 00 00       	jmpq   2c8 <switches+0x2c8>
 26f:	8b 45 f8             	mov    -0x8(%rbp),%eax
 272:	05 8f 23 01 00       	add    $0x1238f,%eax
 277:	89 45 f8             	mov    %eax,-0x8(%rbp)
 27a:	e9 49 00 00 00       	jmpq   2c8 <switches+0x2c8>
 27f:	8b 45 f8             	mov    -0x8(%rbp),%eax
 282:	05 90 23 01 00       	add    $0x12390,%eax
 287:	89 45 f8             	mov    %eax,-0x8(%rbp)
 28a:	e9 39 00 00 00       	jmpq   2c8 <switches+0x2c8>
 28f:	8b 45 f8             	mov    -0x8(%rbp),%eax
 292:	05 91 23 01 00       	add    $0x12391,%eax
 297:	89 45 f8             	mov    %eax,-0x8(%rbp)
 29a:	e9 29 00 00 00       	jmpq   2c8 <switches+0x2c8>
 29f:	8b 45 f8             	mov    -0x8(%rbp),%eax
 2a2:	05 92 23 01 00       	add    $0x12392,%eax
 2a7:	89 45 f8             	mov    %eax,-0x8(%rbp)
 2aa:	e9 19 00 00 00       	jmpq   2c8 <switches+0x2c8>
 2af:	8b 45 f8             	mov    -0x8(%rbp),%eax
 2b2:	05 93 23 01 00       	add    $0x12393,%eax
 2b7:	89 45 f8             	mov    %eax,-0x8(%rbp)
 2ba:	e9 09 00 00 00       	jmpq   2c8 <switches+0x2c8>
 2bf:	8b 45 f8             	mov    -0x8(%rbp),%eax
 2c2:	83 c0 00             	add    $0x0,%eax
 2c5:	89 45 f8             	mov    %eax,-0x8(%rbp)
 2c8:	8b 45 f8             	mov    -0x8(%rbp),%eax
 2cb:	5d                   	pop    %rbp
 2cc:	c3                   	retq   
