
test_13.o:     file format elf64-x86-64


Disassembly of section .text:

0000000000000000 <foo>:
   0:	55                   	push   %rbp
   1:	48 89 e5             	mov    %rsp,%rbp
   4:	90                   	nop
   5:	5d                   	pop    %rbp
   6:	c3                   	retq   

0000000000000007 <checkFn>:
   7:	55                   	push   %rbp
   8:	48 89 e5             	mov    %rsp,%rbp
   b:	48 83 ec 20          	sub    $0x20,%rsp
   f:	48 89 7d e8          	mov    %rdi,-0x18(%rbp)
  13:	c7 45 fc 01 00 00 00 	movl   $0x1,-0x4(%rbp)
  1a:	48 8b 45 e8          	mov    -0x18(%rbp),%rax
  1e:	48 89 c7             	mov    %rax,%rdi
  21:	e8 00 00 00 00       	callq  26 <checkFn+0x1f>
  26:	89 45 f8             	mov    %eax,-0x8(%rbp)
  29:	83 7d f8 01          	cmpl   $0x1,-0x8(%rbp)
  2d:	7e 30                	jle    5f <checkFn+0x58>
  2f:	48 8b 45 e8          	mov    -0x18(%rbp),%rax
  33:	0f b6 00             	movzbl (%rax),%eax
  36:	88 45 f7             	mov    %al,-0x9(%rbp)
  39:	8b 45 f8             	mov    -0x8(%rbp),%eax
  3c:	48 98                	cltq   
  3e:	48 8d 50 ff          	lea    -0x1(%rax),%rdx
  42:	48 8b 45 e8          	mov    -0x18(%rbp),%rax
  46:	48 01 d0             	add    %rdx,%rax
  49:	0f b6 00             	movzbl (%rax),%eax
  4c:	88 45 f6             	mov    %al,-0xa(%rbp)
  4f:	0f b6 45 f7          	movzbl -0x9(%rbp),%eax
  53:	3a 45 f6             	cmp    -0xa(%rbp),%al
  56:	75 07                	jne    5f <checkFn+0x58>
  58:	c7 45 fc 00 00 00 00 	movl   $0x0,-0x4(%rbp)
  5f:	8b 45 fc             	mov    -0x4(%rbp),%eax
  62:	c9                   	leaveq 
  63:	c3                   	retq   

0000000000000064 <doStuff>:
  64:	55                   	push   %rbp
  65:	48 89 e5             	mov    %rsp,%rbp
  68:	48 89 7d d8          	mov    %rdi,-0x28(%rbp)
  6c:	48 89 75 d0          	mov    %rsi,-0x30(%rbp)
  70:	48 8b 45 d8          	mov    -0x28(%rbp),%rax
  74:	48 89 45 f8          	mov    %rax,-0x8(%rbp)
  78:	48 8b 45 d0          	mov    -0x30(%rbp),%rax
  7c:	48 89 45 f0          	mov    %rax,-0x10(%rbp)
  80:	48 8b 45 f8          	mov    -0x8(%rbp),%rax
  84:	0f b6 00             	movzbl (%rax),%eax
  87:	88 45 ef             	mov    %al,-0x11(%rbp)
  8a:	eb 2d                	jmp    b9 <doStuff+0x55>
  8c:	80 7d ef 2f          	cmpb   $0x2f,-0x11(%rbp)
  90:	75 09                	jne    9b <doStuff+0x37>
  92:	48 8b 45 f0          	mov    -0x10(%rbp),%rax
  96:	c6 00 5c             	movb   $0x5c,(%rax)
  99:	eb 0a                	jmp    a5 <doStuff+0x41>
  9b:	48 8b 45 f0          	mov    -0x10(%rbp),%rax
  9f:	0f b6 55 ef          	movzbl -0x11(%rbp),%edx
  a3:	88 10                	mov    %dl,(%rax)
  a5:	48 83 45 f8 01       	addq   $0x1,-0x8(%rbp)
  aa:	48 83 45 f0 01       	addq   $0x1,-0x10(%rbp)
  af:	48 8b 45 f8          	mov    -0x8(%rbp),%rax
  b3:	0f b6 00             	movzbl (%rax),%eax
  b6:	88 45 ef             	mov    %al,-0x11(%rbp)
  b9:	80 7d ef 00          	cmpb   $0x0,-0x11(%rbp)
  bd:	75 cd                	jne    8c <doStuff+0x28>
  bf:	90                   	nop
  c0:	5d                   	pop    %rbp
  c1:	c3                   	retq   

00000000000000c2 <doWork>:
  c2:	55                   	push   %rbp
  c3:	48 89 e5             	mov    %rsp,%rbp
  c6:	48 83 ec 30          	sub    $0x30,%rsp
  ca:	48 89 7d d8          	mov    %rdi,-0x28(%rbp)
  ce:	89 75 d4             	mov    %esi,-0x2c(%rbp)
  d1:	c7 45 fc 00 00 00 00 	movl   $0x0,-0x4(%rbp)
  d8:	8b 45 d4             	mov    -0x2c(%rbp),%eax
  db:	48 98                	cltq   
  dd:	48 c1 e0 03          	shl    $0x3,%rax
  e1:	48 89 c7             	mov    %rax,%rdi
  e4:	e8 00 00 00 00       	callq  e9 <doWork+0x27>
  e9:	48 89 45 f0          	mov    %rax,-0x10(%rbp)
  ed:	eb 42                	jmp    131 <doWork+0x6f>
  ef:	8b 45 fc             	mov    -0x4(%rbp),%eax
  f2:	48 98                	cltq   
  f4:	48 8d 14 c5 00 00 00 	lea    0x0(,%rax,8),%rdx
  fb:	00 
  fc:	48 8b 45 d8          	mov    -0x28(%rbp),%rax
 100:	48 01 d0             	add    %rdx,%rax
 103:	48 8b 00             	mov    (%rax),%rax
 106:	48 89 45 e8          	mov    %rax,-0x18(%rbp)
 10a:	48 8b 45 e8          	mov    -0x18(%rbp),%rax
 10e:	48 89 c7             	mov    %rax,%rdi
 111:	e8 f1 fe ff ff       	callq  7 <checkFn>
 116:	85 c0                	test   %eax,%eax
 118:	75 13                	jne    12d <doWork+0x6b>
 11a:	48 8b 55 e8          	mov    -0x18(%rbp),%rdx
 11e:	48 8b 45 e8          	mov    -0x18(%rbp),%rax
 122:	48 89 d6             	mov    %rdx,%rsi
 125:	48 89 c7             	mov    %rax,%rdi
 128:	e8 37 ff ff ff       	callq  64 <doStuff>
 12d:	83 45 fc 01          	addl   $0x1,-0x4(%rbp)
 131:	8b 45 fc             	mov    -0x4(%rbp),%eax
 134:	3b 45 d4             	cmp    -0x2c(%rbp),%eax
 137:	7c b6                	jl     ef <doWork+0x2d>
 139:	48 8b 45 f0          	mov    -0x10(%rbp),%rax
 13d:	48 83 c0 01          	add    $0x1,%rax
 141:	c6 00 02             	movb   $0x2,(%rax)
 144:	90                   	nop
 145:	c9                   	leaveq 
 146:	c3                   	retq   
