
Output/test_23.clang.o:     file format elf64-x86-64


Disassembly of section .text:

0000000000000000 <draw>:
   0:	55                   	push   %rbp
   1:	48 89 e5             	mov    %rsp,%rbp
   4:	48 83 ec 20          	sub    $0x20,%rsp
   8:	c7 45 fc 00 00 00 00 	movl   $0x0,-0x4(%rbp)
   f:	81 7d fc 07 00 00 00 	cmpl   $0x7,-0x4(%rbp)
  16:	0f 8d 7c 00 00 00    	jge    98 <draw+0x98>
  1c:	c7 45 f8 00 00 00 00 	movl   $0x0,-0x8(%rbp)
  23:	81 7d f8 0b 00 00 00 	cmpl   $0xb,-0x8(%rbp)
  2a:	0f 8d 44 00 00 00    	jge    74 <draw+0x74>
  30:	48 bf 00 00 00 00 00 	movabs $0x0,%rdi
  37:	00 00 00 
  3a:	48 b8 00 00 00 00 00 	movabs $0x0,%rax
  41:	00 00 00 
  44:	48 63 4d f8          	movslq -0x8(%rbp),%rcx
  48:	48 63 55 fc          	movslq -0x4(%rbp),%rdx
  4c:	48 69 d2 0b 00 00 00 	imul   $0xb,%rdx,%rdx
  53:	48 01 d0             	add    %rdx,%rax
  56:	0f be 34 08          	movsbl (%rax,%rcx,1),%esi
  5a:	b0 00                	mov    $0x0,%al
  5c:	e8 00 00 00 00       	callq  61 <draw+0x61>
  61:	89 45 f4             	mov    %eax,-0xc(%rbp)
  64:	8b 45 f8             	mov    -0x8(%rbp),%eax
  67:	05 01 00 00 00       	add    $0x1,%eax
  6c:	89 45 f8             	mov    %eax,-0x8(%rbp)
  6f:	e9 af ff ff ff       	jmpq   23 <draw+0x23>
  74:	48 bf 00 00 00 00 00 	movabs $0x0,%rdi
  7b:	00 00 00 
  7e:	b0 00                	mov    $0x0,%al
  80:	e8 00 00 00 00       	callq  85 <draw+0x85>
  85:	89 45 f0             	mov    %eax,-0x10(%rbp)
  88:	8b 45 fc             	mov    -0x4(%rbp),%eax
  8b:	05 01 00 00 00       	add    $0x1,%eax
  90:	89 45 fc             	mov    %eax,-0x4(%rbp)
  93:	e9 77 ff ff ff       	jmpq   f <draw+0xf>
  98:	48 bf 00 00 00 00 00 	movabs $0x0,%rdi
  9f:	00 00 00 
  a2:	b0 00                	mov    $0x0,%al
  a4:	e8 00 00 00 00       	callq  a9 <draw+0xa9>
  a9:	89 45 ec             	mov    %eax,-0x14(%rbp)
  ac:	48 83 c4 20          	add    $0x20,%rsp
  b0:	5d                   	pop    %rbp
  b1:	c3                   	retq   
  b2:	66 66 66 66 66 2e 0f 	data32 data32 data32 data32 nopw %cs:0x0(%rax,%rax,1)
  b9:	1f 84 00 00 00 00 00 

00000000000000c0 <main>:
  c0:	55                   	push   %rbp
  c1:	48 89 e5             	mov    %rsp,%rbp
  c4:	48 81 ec 80 00 00 00 	sub    $0x80,%rsp
  cb:	b8 00 00 00 00       	mov    $0x0,%eax
  d0:	48 ba 1c 00 00 00 00 	movabs $0x1c,%rdx
  d7:	00 00 00 
  da:	48 8d 4d c0          	lea    -0x40(%rbp),%rcx
  de:	49 b8 00 00 00 00 00 	movabs $0x0,%r8
  e5:	00 00 00 
  e8:	c7 45 fc 00 00 00 00 	movl   $0x0,-0x4(%rbp)
  ef:	89 7d f8             	mov    %edi,-0x8(%rbp)
  f2:	48 89 75 f0          	mov    %rsi,-0x10(%rbp)
  f6:	c7 45 dc 00 00 00 00 	movl   $0x0,-0x24(%rbp)
  fd:	c7 45 ec 01 00 00 00 	movl   $0x1,-0x14(%rbp)
 104:	c7 45 e8 01 00 00 00 	movl   $0x1,-0x18(%rbp)
 10b:	48 63 75 ec          	movslq -0x14(%rbp),%rsi
 10f:	4c 63 4d e8          	movslq -0x18(%rbp),%r9
 113:	4d 69 c9 0b 00 00 00 	imul   $0xb,%r9,%r9
 11a:	4d 01 c8             	add    %r9,%r8
 11d:	41 c6 04 30 58       	movb   $0x58,(%r8,%rsi,1)
 122:	89 c7                	mov    %eax,%edi
 124:	48 89 ce             	mov    %rcx,%rsi
 127:	e8 00 00 00 00       	callq  12c <main+0x6c>
 12c:	48 89 45 b8          	mov    %rax,-0x48(%rbp)
 130:	81 7d dc 1c 00 00 00 	cmpl   $0x1c,-0x24(%rbp)
 137:	0f 8d 53 02 00 00    	jge    390 <main+0x2d0>
 13d:	8b 45 ec             	mov    -0x14(%rbp),%eax
 140:	89 45 e4             	mov    %eax,-0x1c(%rbp)
 143:	8b 45 e8             	mov    -0x18(%rbp),%eax
 146:	89 45 e0             	mov    %eax,-0x20(%rbp)
 149:	48 63 4d dc          	movslq -0x24(%rbp),%rcx
 14d:	0f be 44 0d c0       	movsbl -0x40(%rbp,%rcx,1),%eax
 152:	89 c2                	mov    %eax,%edx
 154:	83 ea 72             	sub    $0x72,%edx
 157:	89 45 b4             	mov    %eax,-0x4c(%rbp)
 15a:	89 55 b0             	mov    %edx,-0x50(%rbp)
 15d:	0f 8f 2d 00 00 00    	jg     190 <main+0xd0>
 163:	e9 00 00 00 00       	jmpq   168 <main+0xa8>
 168:	8b 45 b4             	mov    -0x4c(%rbp),%eax
 16b:	83 e8 61             	sub    $0x61,%eax
 16e:	89 45 ac             	mov    %eax,-0x54(%rbp)
 171:	0f 84 61 00 00 00    	je     1d8 <main+0x118>
 177:	e9 00 00 00 00       	jmpq   17c <main+0xbc>
 17c:	8b 45 b4             	mov    -0x4c(%rbp),%eax
 17f:	83 e8 64             	sub    $0x64,%eax
 182:	89 45 a8             	mov    %eax,-0x58(%rbp)
 185:	0f 84 5d 00 00 00    	je     1e8 <main+0x128>
 18b:	e9 68 00 00 00       	jmpq   1f8 <main+0x138>
 190:	8b 45 b4             	mov    -0x4c(%rbp),%eax
 193:	83 e8 73             	sub    $0x73,%eax
 196:	89 45 a4             	mov    %eax,-0x5c(%rbp)
 199:	0f 84 29 00 00 00    	je     1c8 <main+0x108>
 19f:	e9 00 00 00 00       	jmpq   1a4 <main+0xe4>
 1a4:	8b 45 b4             	mov    -0x4c(%rbp),%eax
 1a7:	83 e8 77             	sub    $0x77,%eax
 1aa:	89 45 a0             	mov    %eax,-0x60(%rbp)
 1ad:	0f 85 45 00 00 00    	jne    1f8 <main+0x138>
 1b3:	e9 00 00 00 00       	jmpq   1b8 <main+0xf8>
 1b8:	8b 45 e8             	mov    -0x18(%rbp),%eax
 1bb:	05 ff ff ff ff       	add    $0xffffffff,%eax
 1c0:	89 45 e8             	mov    %eax,-0x18(%rbp)
 1c3:	e9 62 00 00 00       	jmpq   22a <main+0x16a>
 1c8:	8b 45 e8             	mov    -0x18(%rbp),%eax
 1cb:	05 01 00 00 00       	add    $0x1,%eax
 1d0:	89 45 e8             	mov    %eax,-0x18(%rbp)
 1d3:	e9 52 00 00 00       	jmpq   22a <main+0x16a>
 1d8:	8b 45 ec             	mov    -0x14(%rbp),%eax
 1db:	05 ff ff ff ff       	add    $0xffffffff,%eax
 1e0:	89 45 ec             	mov    %eax,-0x14(%rbp)
 1e3:	e9 42 00 00 00       	jmpq   22a <main+0x16a>
 1e8:	8b 45 ec             	mov    -0x14(%rbp),%eax
 1eb:	05 01 00 00 00       	add    $0x1,%eax
 1f0:	89 45 ec             	mov    %eax,-0x14(%rbp)
 1f3:	e9 32 00 00 00       	jmpq   22a <main+0x16a>
 1f8:	48 bf 00 00 00 00 00 	movabs $0x0,%rdi
 1ff:	00 00 00 
 202:	b0 00                	mov    $0x0,%al
 204:	e8 00 00 00 00       	callq  209 <main+0x149>
 209:	48 bf 00 00 00 00 00 	movabs $0x0,%rdi
 210:	00 00 00 
 213:	89 45 9c             	mov    %eax,-0x64(%rbp)
 216:	b0 00                	mov    $0x0,%al
 218:	e8 00 00 00 00       	callq  21d <main+0x15d>
 21d:	bf ff ff ff ff       	mov    $0xffffffff,%edi
 222:	89 45 98             	mov    %eax,-0x68(%rbp)
 225:	e8 00 00 00 00       	callq  22a <main+0x16a>
 22a:	48 b8 00 00 00 00 00 	movabs $0x0,%rax
 231:	00 00 00 
 234:	48 63 4d ec          	movslq -0x14(%rbp),%rcx
 238:	48 63 55 e8          	movslq -0x18(%rbp),%rdx
 23c:	48 69 d2 0b 00 00 00 	imul   $0xb,%rdx,%rdx
 243:	48 01 d0             	add    %rdx,%rax
 246:	0f be 34 08          	movsbl (%rax,%rcx,1),%esi
 24a:	81 fe 23 00 00 00    	cmp    $0x23,%esi
 250:	0f 85 36 00 00 00    	jne    28c <main+0x1cc>
 256:	48 bf 00 00 00 00 00 	movabs $0x0,%rdi
 25d:	00 00 00 
 260:	b0 00                	mov    $0x0,%al
 262:	e8 00 00 00 00       	callq  267 <main+0x1a7>
 267:	48 bf 00 00 00 00 00 	movabs $0x0,%rdi
 26e:	00 00 00 
 271:	48 8d 75 c0          	lea    -0x40(%rbp),%rsi
 275:	89 45 94             	mov    %eax,-0x6c(%rbp)
 278:	b0 00                	mov    $0x0,%al
 27a:	e8 00 00 00 00       	callq  27f <main+0x1bf>
 27f:	bf 00 00 00 00       	mov    $0x0,%edi
 284:	89 45 90             	mov    %eax,-0x70(%rbp)
 287:	e8 00 00 00 00       	callq  28c <main+0x1cc>
 28c:	48 b8 00 00 00 00 00 	movabs $0x0,%rax
 293:	00 00 00 
 296:	48 63 4d ec          	movslq -0x14(%rbp),%rcx
 29a:	48 63 55 e8          	movslq -0x18(%rbp),%rdx
 29e:	48 69 d2 0b 00 00 00 	imul   $0xb,%rdx,%rdx
 2a5:	48 01 d0             	add    %rdx,%rax
 2a8:	0f be 34 08          	movsbl (%rax,%rcx,1),%esi
 2ac:	81 fe 20 00 00 00    	cmp    $0x20,%esi
 2b2:	0f 84 5f 00 00 00    	je     317 <main+0x257>
 2b8:	81 7d e8 02 00 00 00 	cmpl   $0x2,-0x18(%rbp)
 2bf:	0f 85 46 00 00 00    	jne    30b <main+0x24b>
 2c5:	48 b8 00 00 00 00 00 	movabs $0x0,%rax
 2cc:	00 00 00 
 2cf:	48 63 4d ec          	movslq -0x14(%rbp),%rcx
 2d3:	48 63 55 e8          	movslq -0x18(%rbp),%rdx
 2d7:	48 69 d2 0b 00 00 00 	imul   $0xb,%rdx,%rdx
 2de:	48 01 d0             	add    %rdx,%rax
 2e1:	0f be 34 08          	movsbl (%rax,%rcx,1),%esi
 2e5:	81 fe 7c 00 00 00    	cmp    $0x7c,%esi
 2eb:	0f 85 1a 00 00 00    	jne    30b <main+0x24b>
 2f1:	81 7d ec 00 00 00 00 	cmpl   $0x0,-0x14(%rbp)
 2f8:	0f 8e 0d 00 00 00    	jle    30b <main+0x24b>
 2fe:	81 7d ec 0b 00 00 00 	cmpl   $0xb,-0x14(%rbp)
 305:	0f 8c 0c 00 00 00    	jl     317 <main+0x257>
 30b:	8b 45 e4             	mov    -0x1c(%rbp),%eax
 30e:	89 45 ec             	mov    %eax,-0x14(%rbp)
 311:	8b 45 e0             	mov    -0x20(%rbp),%eax
 314:	89 45 e8             	mov    %eax,-0x18(%rbp)
 317:	8b 45 e4             	mov    -0x1c(%rbp),%eax
 31a:	3b 45 ec             	cmp    -0x14(%rbp),%eax
 31d:	0f 85 2a 00 00 00    	jne    34d <main+0x28d>
 323:	8b 45 e0             	mov    -0x20(%rbp),%eax
 326:	3b 45 e8             	cmp    -0x18(%rbp),%eax
 329:	0f 85 1e 00 00 00    	jne    34d <main+0x28d>
 32f:	48 bf 00 00 00 00 00 	movabs $0x0,%rdi
 336:	00 00 00 
 339:	b0 00                	mov    $0x0,%al
 33b:	e8 00 00 00 00       	callq  340 <main+0x280>
 340:	bf fe ff ff ff       	mov    $0xfffffffe,%edi
 345:	89 45 8c             	mov    %eax,-0x74(%rbp)
 348:	e8 00 00 00 00       	callq  34d <main+0x28d>
 34d:	48 b8 00 00 00 00 00 	movabs $0x0,%rax
 354:	00 00 00 
 357:	48 63 4d ec          	movslq -0x14(%rbp),%rcx
 35b:	48 63 55 e8          	movslq -0x18(%rbp),%rdx
 35f:	48 69 d2 0b 00 00 00 	imul   $0xb,%rdx,%rdx
 366:	48 01 d0             	add    %rdx,%rax
 369:	c6 04 08 58          	movb   $0x58,(%rax,%rcx,1)
 36d:	e8 8e fc ff ff       	callq  0 <draw>
 372:	bf 01 00 00 00       	mov    $0x1,%edi
 377:	8b 75 dc             	mov    -0x24(%rbp),%esi
 37a:	81 c6 01 00 00 00    	add    $0x1,%esi
 380:	89 75 dc             	mov    %esi,-0x24(%rbp)
 383:	e8 00 00 00 00       	callq  388 <main+0x2c8>
 388:	89 45 88             	mov    %eax,-0x78(%rbp)
 38b:	e9 a0 fd ff ff       	jmpq   130 <main+0x70>
 390:	48 bf 00 00 00 00 00 	movabs $0x0,%rdi
 397:	00 00 00 
 39a:	b0 00                	mov    $0x0,%al
 39c:	e8 00 00 00 00       	callq  3a1 <main+0x2e1>
 3a1:	8b 4d fc             	mov    -0x4(%rbp),%ecx
 3a4:	89 45 84             	mov    %eax,-0x7c(%rbp)
 3a7:	89 c8                	mov    %ecx,%eax
 3a9:	48 81 c4 80 00 00 00 	add    $0x80,%rsp
 3b0:	5d                   	pop    %rbp
 3b1:	c3                   	retq   
