
Output/test_4.clang.o:     file format elf64-x86-64


Disassembly of section .text:

0000000000000000 <foo>:
   0:	55                   	push   %rbp
   1:	48 89 e5             	mov    %rsp,%rbp
   4:	53                   	push   %rbx
   5:	48 8b 45 28          	mov    0x28(%rbp),%rax
   9:	44 8b 55 20          	mov    0x20(%rbp),%r10d
   d:	4c 8b 5d 18          	mov    0x18(%rbp),%r11
  11:	8b 5d 10             	mov    0x10(%rbp),%ebx
  14:	89 7d f4             	mov    %edi,-0xc(%rbp)
  17:	89 75 f0             	mov    %esi,-0x10(%rbp)
  1a:	89 55 ec             	mov    %edx,-0x14(%rbp)
  1d:	89 4d e8             	mov    %ecx,-0x18(%rbp)
  20:	44 89 45 e4          	mov    %r8d,-0x1c(%rbp)
  24:	44 89 4d e0          	mov    %r9d,-0x20(%rbp)
  28:	89 5d dc             	mov    %ebx,-0x24(%rbp)
  2b:	4c 89 5d d0          	mov    %r11,-0x30(%rbp)
  2f:	44 89 55 cc          	mov    %r10d,-0x34(%rbp)
  33:	48 89 45 c0          	mov    %rax,-0x40(%rbp)
  37:	c7 45 bc 00 00 00 00 	movl   $0x0,-0x44(%rbp)
  3e:	c7 45 b8 00 00 00 00 	movl   $0x0,-0x48(%rbp)
  45:	8b 45 b8             	mov    -0x48(%rbp),%eax
  48:	3b 45 dc             	cmp    -0x24(%rbp),%eax
  4b:	0f 8d 2e 00 00 00    	jge    7f <foo+0x7f>
  51:	48 63 45 b8          	movslq -0x48(%rbp),%rax
  55:	48 8b 4d d0          	mov    -0x30(%rbp),%rcx
  59:	8b 14 81             	mov    (%rcx,%rax,4),%edx
  5c:	48 63 45 b8          	movslq -0x48(%rbp),%rax
  60:	48 8b 4d c0          	mov    -0x40(%rbp),%rcx
  64:	2b 14 81             	sub    (%rcx,%rax,4),%edx
  67:	8b 75 bc             	mov    -0x44(%rbp),%esi
  6a:	01 d6                	add    %edx,%esi
  6c:	89 75 bc             	mov    %esi,-0x44(%rbp)
  6f:	8b 45 b8             	mov    -0x48(%rbp),%eax
  72:	05 01 00 00 00       	add    $0x1,%eax
  77:	89 45 b8             	mov    %eax,-0x48(%rbp)
  7a:	e9 c6 ff ff ff       	jmpq   45 <foo+0x45>
  7f:	8b 45 bc             	mov    -0x44(%rbp),%eax
  82:	8b 4d f4             	mov    -0xc(%rbp),%ecx
  85:	03 4d f0             	add    -0x10(%rbp),%ecx
  88:	03 4d ec             	add    -0x14(%rbp),%ecx
  8b:	03 4d e8             	add    -0x18(%rbp),%ecx
  8e:	03 4d e4             	add    -0x1c(%rbp),%ecx
  91:	03 4d e0             	add    -0x20(%rbp),%ecx
  94:	0f af c1             	imul   %ecx,%eax
  97:	5b                   	pop    %rbx
  98:	5d                   	pop    %rbp
  99:	c3                   	retq   
  9a:	66 0f 1f 44 00 00    	nopw   0x0(%rax,%rax,1)

00000000000000a0 <main>:
  a0:	55                   	push   %rbp
  a1:	48 89 e5             	mov    %rsp,%rbp
  a4:	41 57                	push   %r15
  a6:	41 56                	push   %r14
  a8:	41 55                	push   %r13
  aa:	41 54                	push   %r12
  ac:	53                   	push   %rbx
  ad:	48 81 ec c8 00 00 00 	sub    $0xc8,%rsp
  b4:	b8 64 00 00 00       	mov    $0x64,%eax
  b9:	b9 c8 00 00 00       	mov    $0xc8,%ecx
  be:	ba 2c 01 00 00       	mov    $0x12c,%edx
  c3:	41 b8 90 01 00 00    	mov    $0x190,%r8d
  c9:	41 b9 f4 01 00 00    	mov    $0x1f4,%r9d
  cf:	41 ba 58 02 00 00    	mov    $0x258,%r10d
  d5:	41 bb 0a 00 00 00    	mov    $0xa,%r11d
  db:	48 8d 9d 70 ff ff ff 	lea    -0x90(%rbp),%rbx
  e2:	4c 8d 75 a0          	lea    -0x60(%rbp),%r14
  e6:	49 bf 00 00 00 00 00 	mov    $0x0,%r15
  ed:	00 00 00 
  f0:	49 bc 28 00 00 00 00 	mov    $0x28,%r12
  f7:	00 00 00 
  fa:	49 bd 00 00 00 00 00 	mov    $0x0,%r13
 101:	00 00 00 
 104:	c7 45 d4 00 00 00 00 	movl   $0x0,-0x2c(%rbp)
 10b:	89 7d d0             	mov    %edi,-0x30(%rbp)
 10e:	48 89 75 c8          	mov    %rsi,-0x38(%rbp)
 112:	4c 89 f6             	mov    %r14,%rsi
 115:	48 89 f7             	mov    %rsi,%rdi
 118:	4c 89 ee             	mov    %r13,%rsi
 11b:	89 95 6c ff ff ff    	mov    %edx,-0x94(%rbp)
 121:	4c 89 e2             	mov    %r12,%rdx
 124:	4c 89 bd 60 ff ff ff 	mov    %r15,-0xa0(%rbp)
 12b:	4c 89 a5 58 ff ff ff 	mov    %r12,-0xa8(%rbp)
 132:	89 85 54 ff ff ff    	mov    %eax,-0xac(%rbp)
 138:	89 8d 50 ff ff ff    	mov    %ecx,-0xb0(%rbp)
 13e:	4c 89 b5 48 ff ff ff 	mov    %r14,-0xb8(%rbp)
 145:	44 89 85 44 ff ff ff 	mov    %r8d,-0xbc(%rbp)
 14c:	44 89 8d 40 ff ff ff 	mov    %r9d,-0xc0(%rbp)
 153:	44 89 95 3c ff ff ff 	mov    %r10d,-0xc4(%rbp)
 15a:	44 89 9d 38 ff ff ff 	mov    %r11d,-0xc8(%rbp)
 161:	48 89 9d 30 ff ff ff 	mov    %rbx,-0xd0(%rbp)
 168:	e8 00 00 00 00       	callq  16d <main+0xcd>
 16d:	48 8b 95 30 ff ff ff 	mov    -0xd0(%rbp),%rdx
 174:	48 89 d7             	mov    %rdx,%rdi
 177:	48 8b b5 60 ff ff ff 	mov    -0xa0(%rbp),%rsi
 17e:	48 8b 95 58 ff ff ff 	mov    -0xa8(%rbp),%rdx
 185:	e8 00 00 00 00       	callq  18a <main+0xea>
 18a:	8b bd 54 ff ff ff    	mov    -0xac(%rbp),%edi
 190:	8b b5 50 ff ff ff    	mov    -0xb0(%rbp),%esi
 196:	8b 95 6c ff ff ff    	mov    -0x94(%rbp),%edx
 19c:	8b 8d 44 ff ff ff    	mov    -0xbc(%rbp),%ecx
 1a2:	44 8b 85 40 ff ff ff 	mov    -0xc0(%rbp),%r8d
 1a9:	44 8b 8d 3c ff ff ff 	mov    -0xc4(%rbp),%r9d
 1b0:	c7 04 24 0a 00 00 00 	movl   $0xa,(%rsp)
 1b7:	48 8b 9d 48 ff ff ff 	mov    -0xb8(%rbp),%rbx
 1be:	48 89 5c 24 08       	mov    %rbx,0x8(%rsp)
 1c3:	c7 44 24 10 0a 00 00 	movl   $0xa,0x10(%rsp)
 1ca:	00 
 1cb:	4c 8b b5 30 ff ff ff 	mov    -0xd0(%rbp),%r14
 1d2:	4c 89 74 24 18       	mov    %r14,0x18(%rsp)
 1d7:	e8 24 fe ff ff       	callq  0 <foo>
 1dc:	48 81 c4 c8 00 00 00 	add    $0xc8,%rsp
 1e3:	5b                   	pop    %rbx
 1e4:	41 5c                	pop    %r12
 1e6:	41 5d                	pop    %r13
 1e8:	41 5e                	pop    %r14
 1ea:	41 5f                	pop    %r15
 1ec:	5d                   	pop    %rbp
 1ed:	c3                   	retq   
