
Output/test_3.clang.o:     file format elf64-x86-64


Disassembly of section .text:

0000000000000000 <printS1>:
   0:	55                   	push   %rbp
   1:	48 89 e5             	mov    %rsp,%rbp
   4:	48 83 ec 10          	sub    $0x10,%rsp
   8:	48 b8 00 00 00 00 00 	movabs $0x0,%rax
   f:	00 00 00 
  12:	48 89 7d f8          	mov    %rdi,-0x8(%rbp)
  16:	48 8b 7d f8          	mov    -0x8(%rbp),%rdi
  1a:	8b 37                	mov    (%rdi),%esi
  1c:	48 8b 7d f8          	mov    -0x8(%rbp),%rdi
  20:	f3 0f 5a 47 04       	cvtss2sd 0x4(%rdi),%xmm0
  25:	48 8b 7d f8          	mov    -0x8(%rbp),%rdi
  29:	f2 0f 10 4f 08       	movsd  0x8(%rdi),%xmm1
  2e:	48 8b 7d f8          	mov    -0x8(%rbp),%rdi
  32:	48 8b 57 10          	mov    0x10(%rdi),%rdx
  36:	48 89 c7             	mov    %rax,%rdi
  39:	b0 02                	mov    $0x2,%al
  3b:	e8 00 00 00 00       	callq  40 <printS1+0x40>
  40:	89 45 f4             	mov    %eax,-0xc(%rbp)
  43:	48 83 c4 10          	add    $0x10,%rsp
  47:	5d                   	pop    %rbp
  48:	c3                   	retq   
  49:	0f 1f 80 00 00 00 00 	nopl   0x0(%rax)

0000000000000050 <main>:
  50:	55                   	push   %rbp
  51:	48 89 e5             	mov    %rsp,%rbp
  54:	48 83 ec 40          	sub    $0x40,%rsp
  58:	48 8d 7d c8          	lea    -0x38(%rbp),%rdi
  5c:	48 b8 b6 41 11 76 05 	movabs $0x5761141b6,%rax
  63:	00 00 00 
  66:	f2 0f 10 04 25 00 00 	movsd  0x0,%xmm0
  6d:	00 00 
  6f:	f3 0f 10 0c 25 00 00 	movss  0x0,%xmm1
  76:	00 00 
  78:	48 b9 b6 29 88 be 1c 	movabs $0x1cbe8829b6,%rcx
  7f:	00 00 00 
  82:	f2 0f 10 14 25 00 00 	movsd  0x0,%xmm2
  89:	00 00 
  8b:	f3 0f 10 1c 25 00 00 	movss  0x0,%xmm3
  92:	00 00 
  94:	c7 45 fc 00 00 00 00 	movl   $0x0,-0x4(%rbp)
  9b:	c7 45 c8 01 00 00 00 	movl   $0x1,-0x38(%rbp)
  a2:	f3 0f 11 5d cc       	movss  %xmm3,-0x34(%rbp)
  a7:	f2 0f 11 55 d0       	movsd  %xmm2,-0x30(%rbp)
  ac:	48 89 4d d8          	mov    %rcx,-0x28(%rbp)
  b0:	c7 45 e0 02 00 00 00 	movl   $0x2,-0x20(%rbp)
  b7:	f3 0f 11 4d e4       	movss  %xmm1,-0x1c(%rbp)
  bc:	f2 0f 11 45 e8       	movsd  %xmm0,-0x18(%rbp)
  c1:	48 89 45 f0          	mov    %rax,-0x10(%rbp)
  c5:	e8 36 ff ff ff       	callq  0 <printS1>
  ca:	48 8d 45 c8          	lea    -0x38(%rbp),%rax
  ce:	48 83 c0 18          	add    $0x18,%rax
  d2:	48 89 c7             	mov    %rax,%rdi
  d5:	e8 26 ff ff ff       	callq  0 <printS1>
  da:	31 c0                	xor    %eax,%eax
  dc:	48 83 c4 40          	add    $0x40,%rsp
  e0:	5d                   	pop    %rbp
  e1:	c3                   	retq   
