
test_16.o:     file format elf64-x86-64


Disassembly of section .text:

0000000000000000 <foo>:
   0:	55                   	push   %rbp
   1:	48 89 e5             	mov    %rsp,%rbp
   4:	90                   	nop
   5:	5d                   	pop    %rbp
   6:	c3                   	retq   

0000000000000007 <printit>:
   7:	55                   	push   %rbp
   8:	48 89 e5             	mov    %rsp,%rbp
   b:	48 83 ec 20          	sub    $0x20,%rsp
   f:	48 89 7d e8          	mov    %rdi,-0x18(%rbp)
  13:	48 8b 45 e8          	mov    -0x18(%rbp),%rax
  17:	48 89 c6             	mov    %rax,%rsi
  1a:	bf 00 00 00 00       	mov    $0x0,%edi
  1f:	b8 00 00 00 00       	mov    $0x0,%eax
  24:	e8 00 00 00 00       	callq  29 <printit+0x22>
  29:	89 45 fc             	mov    %eax,-0x4(%rbp)
  2c:	48 8b 55 e8          	mov    -0x18(%rbp),%rdx
  30:	48 8b 45 e8          	mov    -0x18(%rbp),%rax
  34:	48 89 c6             	mov    %rax,%rsi
  37:	bf 00 00 00 00       	mov    $0x0,%edi
  3c:	b8 00 00 00 00       	mov    $0x0,%eax
  41:	e8 00 00 00 00       	callq  46 <printit+0x3f>
  46:	89 45 fc             	mov    %eax,-0x4(%rbp)
  49:	48 8b 4d e8          	mov    -0x18(%rbp),%rcx
  4d:	48 8b 55 e8          	mov    -0x18(%rbp),%rdx
  51:	48 8b 45 e8          	mov    -0x18(%rbp),%rax
  55:	48 89 c6             	mov    %rax,%rsi
  58:	bf 00 00 00 00       	mov    $0x0,%edi
  5d:	b8 00 00 00 00       	mov    $0x0,%eax
  62:	e8 00 00 00 00       	callq  67 <printit+0x60>
  67:	89 45 fc             	mov    %eax,-0x4(%rbp)
  6a:	8b 45 fc             	mov    -0x4(%rbp),%eax
  6d:	c9                   	leaveq 
  6e:	c3                   	retq   
