
Output/test_13.clang.o:     file format elf64-x86-64


Disassembly of section .text:

0000000000000000 <doWork>:
   0:	55                   	push   %rbp
   1:	48 89 e5             	mov    %rsp,%rbp
   4:	48 83 ec 20          	sub    $0x20,%rsp
   8:	48 89 7d f8          	mov    %rdi,-0x8(%rbp)
   c:	89 75 f4             	mov    %esi,-0xc(%rbp)
   f:	c7 45 f0 00 00 00 00 	movl   $0x0,-0x10(%rbp)
  16:	48 63 7d f4          	movslq -0xc(%rbp),%rdi
  1a:	48 c1 e7 03          	shl    $0x3,%rdi
  1e:	e8 00 00 00 00       	callq  23 <doWork+0x23>
  23:	48 89 45 e8          	mov    %rax,-0x18(%rbp)
  27:	8b 45 f0             	mov    -0x10(%rbp),%eax
  2a:	3b 45 f4             	cmp    -0xc(%rbp),%eax
  2d:	0f 8d 42 00 00 00    	jge    75 <doWork+0x75>
  33:	48 63 45 f0          	movslq -0x10(%rbp),%rax
  37:	48 8b 4d f8          	mov    -0x8(%rbp),%rcx
  3b:	48 8b 04 c1          	mov    (%rcx,%rax,8),%rax
  3f:	48 89 45 e0          	mov    %rax,-0x20(%rbp)
  43:	48 8b 7d e0          	mov    -0x20(%rbp),%rdi
  47:	e8 44 00 00 00       	callq  90 <checkFn>
  4c:	83 f8 00             	cmp    $0x0,%eax
  4f:	0f 85 0d 00 00 00    	jne    62 <doWork+0x62>
  55:	48 8b 7d e0          	mov    -0x20(%rbp),%rdi
  59:	48 8b 75 e0          	mov    -0x20(%rbp),%rsi
  5d:	e8 9e 00 00 00       	callq  100 <doStuff>
  62:	e9 00 00 00 00       	jmpq   67 <doWork+0x67>
  67:	8b 45 f0             	mov    -0x10(%rbp),%eax
  6a:	83 c0 01             	add    $0x1,%eax
  6d:	89 45 f0             	mov    %eax,-0x10(%rbp)
  70:	e9 b2 ff ff ff       	jmpq   27 <doWork+0x27>
  75:	48 8b 45 e8          	mov    -0x18(%rbp),%rax
  79:	c6 40 01 02          	movb   $0x2,0x1(%rax)
  7d:	48 83 c4 20          	add    $0x20,%rsp
  81:	5d                   	pop    %rbp
  82:	c3                   	retq   
  83:	66 66 66 66 2e 0f 1f 	data32 data32 data32 nopw %cs:0x0(%rax,%rax,1)
  8a:	84 00 00 00 00 00 

0000000000000090 <checkFn>:
  90:	55                   	push   %rbp
  91:	48 89 e5             	mov    %rsp,%rbp
  94:	48 83 ec 20          	sub    $0x20,%rsp
  98:	48 89 7d f8          	mov    %rdi,-0x8(%rbp)
  9c:	c7 45 f4 01 00 00 00 	movl   $0x1,-0xc(%rbp)
  a3:	48 8b 7d f8          	mov    -0x8(%rbp),%rdi
  a7:	e8 00 00 00 00       	callq  ac <checkFn+0x1c>
  ac:	89 c1                	mov    %eax,%ecx
  ae:	89 4d f0             	mov    %ecx,-0x10(%rbp)
  b1:	83 7d f0 01          	cmpl   $0x1,-0x10(%rbp)
  b5:	0f 8e 38 00 00 00    	jle    f3 <checkFn+0x63>
  bb:	48 8b 45 f8          	mov    -0x8(%rbp),%rax
  bf:	8a 08                	mov    (%rax),%cl
  c1:	88 4d ef             	mov    %cl,-0x11(%rbp)
  c4:	8b 55 f0             	mov    -0x10(%rbp),%edx
  c7:	83 ea 01             	sub    $0x1,%edx
  ca:	48 63 c2             	movslq %edx,%rax
  cd:	48 8b 75 f8          	mov    -0x8(%rbp),%rsi
  d1:	8a 0c 06             	mov    (%rsi,%rax,1),%cl
  d4:	88 4d ee             	mov    %cl,-0x12(%rbp)
  d7:	0f be 55 ef          	movsbl -0x11(%rbp),%edx
  db:	0f be 7d ee          	movsbl -0x12(%rbp),%edi
  df:	39 fa                	cmp    %edi,%edx
  e1:	0f 85 07 00 00 00    	jne    ee <checkFn+0x5e>
  e7:	c7 45 f4 00 00 00 00 	movl   $0x0,-0xc(%rbp)
  ee:	e9 00 00 00 00       	jmpq   f3 <checkFn+0x63>
  f3:	8b 45 f4             	mov    -0xc(%rbp),%eax
  f6:	48 83 c4 20          	add    $0x20,%rsp
  fa:	5d                   	pop    %rbp
  fb:	c3                   	retq   
  fc:	0f 1f 40 00          	nopl   0x0(%rax)

0000000000000100 <doStuff>:
 100:	55                   	push   %rbp
 101:	48 89 e5             	mov    %rsp,%rbp
 104:	48 89 7d f8          	mov    %rdi,-0x8(%rbp)
 108:	48 89 75 f0          	mov    %rsi,-0x10(%rbp)
 10c:	48 8b 75 f8          	mov    -0x8(%rbp),%rsi
 110:	48 89 75 e8          	mov    %rsi,-0x18(%rbp)
 114:	48 8b 75 f0          	mov    -0x10(%rbp),%rsi
 118:	48 89 75 e0          	mov    %rsi,-0x20(%rbp)
 11c:	48 8b 75 e8          	mov    -0x18(%rbp),%rsi
 120:	8a 06                	mov    (%rsi),%al
 122:	88 45 df             	mov    %al,-0x21(%rbp)
 125:	0f be 45 df          	movsbl -0x21(%rbp),%eax
 129:	83 f8 00             	cmp    $0x0,%eax
 12c:	0f 84 48 00 00 00    	je     17a <doStuff+0x7a>
 132:	0f be 45 df          	movsbl -0x21(%rbp),%eax
 136:	83 f8 2f             	cmp    $0x2f,%eax
 139:	0f 85 0c 00 00 00    	jne    14b <doStuff+0x4b>
 13f:	48 8b 45 e0          	mov    -0x20(%rbp),%rax
 143:	c6 00 5c             	movb   $0x5c,(%rax)
 146:	e9 09 00 00 00       	jmpq   154 <doStuff+0x54>
 14b:	8a 45 df             	mov    -0x21(%rbp),%al
 14e:	48 8b 4d e0          	mov    -0x20(%rbp),%rcx
 152:	88 01                	mov    %al,(%rcx)
 154:	48 8b 45 e8          	mov    -0x18(%rbp),%rax
 158:	48 83 c0 01          	add    $0x1,%rax
 15c:	48 89 45 e8          	mov    %rax,-0x18(%rbp)
 160:	48 8b 45 e0          	mov    -0x20(%rbp),%rax
 164:	48 83 c0 01          	add    $0x1,%rax
 168:	48 89 45 e0          	mov    %rax,-0x20(%rbp)
 16c:	48 8b 45 e8          	mov    -0x18(%rbp),%rax
 170:	8a 08                	mov    (%rax),%cl
 172:	88 4d df             	mov    %cl,-0x21(%rbp)
 175:	e9 ab ff ff ff       	jmpq   125 <doStuff+0x25>
 17a:	5d                   	pop    %rbp
 17b:	c3                   	retq   
