
Output/test_23_1.clang.o:     file format elf64-x86-64


Disassembly of section .text:

0000000000000000 <main>:
   0:	55                   	push   %rbp
   1:	48 89 e5             	mov    %rsp,%rbp
   4:	48 83 ec 20          	sub    $0x20,%rsp
   8:	c7 45 fc 00 00 00 00 	movl   $0x0,-0x4(%rbp)
   f:	c7 45 f8 00 00 00 00 	movl   $0x0,-0x8(%rbp)
  16:	8a 04 25 00 00 00 00 	mov    0x0,%al
  1d:	88 45 f7             	mov    %al,-0x9(%rbp)
  20:	83 7d f8 01          	cmpl   $0x1,-0x8(%rbp)
  24:	0f 8d 5a 00 00 00    	jge    84 <main+0x84>
  2a:	48 63 45 f8          	movslq -0x8(%rbp),%rax
  2e:	0f be 4c 05 f7       	movsbl -0x9(%rbp,%rax,1),%ecx
  33:	83 c1 9f             	add    $0xffffff9f,%ecx
  36:	89 c8                	mov    %ecx,%eax
  38:	83 e9 16             	sub    $0x16,%ecx
  3b:	48 89 45 e8          	mov    %rax,-0x18(%rbp)
  3f:	89 4d e4             	mov    %ecx,-0x1c(%rbp)
  42:	0f 87 22 00 00 00    	ja     6a <main+0x6a>
  48:	48 8b 45 e8          	mov    -0x18(%rbp),%rax
  4c:	48 8b 0c c5 00 00 00 	mov    0x0(,%rax,8),%rcx
  53:	00 
  54:	ff e1                	jmpq   *%rcx
  56:	e9 1b 00 00 00       	jmpq   76 <main+0x76>
  5b:	e9 16 00 00 00       	jmpq   76 <main+0x76>
  60:	e9 11 00 00 00       	jmpq   76 <main+0x76>
  65:	e9 0c 00 00 00       	jmpq   76 <main+0x76>
  6a:	c7 45 fc 01 00 00 00 	movl   $0x1,-0x4(%rbp)
  71:	e9 2e 00 00 00       	jmpq   a4 <main+0xa4>
  76:	8b 45 f8             	mov    -0x8(%rbp),%eax
  79:	83 c0 01             	add    $0x1,%eax
  7c:	89 45 f8             	mov    %eax,-0x8(%rbp)
  7f:	e9 9c ff ff ff       	jmpq   20 <main+0x20>
  84:	48 bf 00 00 00 00 00 	movabs $0x0,%rdi
  8b:	00 00 00 
  8e:	be 01 00 00 00       	mov    $0x1,%esi
  93:	b0 00                	mov    $0x0,%al
  95:	e8 00 00 00 00       	callq  9a <main+0x9a>
  9a:	c7 45 fc 01 00 00 00 	movl   $0x1,-0x4(%rbp)
  a1:	89 45 e0             	mov    %eax,-0x20(%rbp)
  a4:	8b 45 fc             	mov    -0x4(%rbp),%eax
  a7:	48 83 c4 20          	add    $0x20,%rsp
  ab:	5d                   	pop    %rbp
  ac:	c3                   	retq   
