
Output/test_1.clang.o:     file format elf64-x86-64


Disassembly of section .text:

0000000000000000 <foo>:
   0:	55                   	push   %rbp
   1:	48 89 e5             	mov    %rsp,%rbp
   4:	89 7d fc             	mov    %edi,-0x4(%rbp)
   7:	89 75 f8             	mov    %esi,-0x8(%rbp)
   a:	8b 75 fc             	mov    -0x4(%rbp),%esi
   d:	03 75 f8             	add    -0x8(%rbp),%esi
  10:	89 75 f4             	mov    %esi,-0xc(%rbp)
  13:	83 7d fc 00          	cmpl   $0x0,-0x4(%rbp)
  17:	0f 8c 41 00 00 00    	jl     5e <foo+0x5e>
  1d:	b8 02 00 00 00       	mov    $0x2,%eax
  22:	8b 4d fc             	mov    -0x4(%rbp),%ecx
  25:	89 45 ec             	mov    %eax,-0x14(%rbp)
  28:	89 c8                	mov    %ecx,%eax
  2a:	99                   	cltd   
  2b:	8b 4d ec             	mov    -0x14(%rbp),%ecx
  2e:	f7 f9                	idiv   %ecx
  30:	83 fa 00             	cmp    $0x0,%edx
  33:	0f 85 0e 00 00 00    	jne    47 <foo+0x47>
  39:	8b 45 f4             	mov    -0xc(%rbp),%eax
  3c:	83 c0 0a             	add    $0xa,%eax
  3f:	89 45 f0             	mov    %eax,-0x10(%rbp)
  42:	e9 09 00 00 00       	jmpq   50 <foo+0x50>
  47:	8b 45 f4             	mov    -0xc(%rbp),%eax
  4a:	83 e8 0a             	sub    $0xa,%eax
  4d:	89 45 f4             	mov    %eax,-0xc(%rbp)
  50:	8b 45 fc             	mov    -0x4(%rbp),%eax
  53:	83 c0 ff             	add    $0xffffffff,%eax
  56:	89 45 fc             	mov    %eax,-0x4(%rbp)
  59:	e9 b5 ff ff ff       	jmpq   13 <foo+0x13>
  5e:	8b 45 f0             	mov    -0x10(%rbp),%eax
  61:	5d                   	pop    %rbp
  62:	c3                   	retq   
  63:	66 66 66 66 2e 0f 1f 	data16 data16 data16 nopw %cs:0x0(%rax,%rax,1)
  6a:	84 00 00 00 00 00 

0000000000000070 <main>:
  70:	55                   	push   %rbp
  71:	48 89 e5             	mov    %rsp,%rbp
  74:	48 83 ec 10          	sub    $0x10,%rsp
  78:	bf 0a 00 00 00       	mov    $0xa,%edi
  7d:	be 14 00 00 00       	mov    $0x14,%esi
  82:	c7 45 fc 00 00 00 00 	movl   $0x0,-0x4(%rbp)
  89:	e8 72 ff ff ff       	callq  0 <foo>
  8e:	48 bf 00 00 00 00 00 	movabs $0x0,%rdi
  95:	00 00 00 
  98:	89 45 f8             	mov    %eax,-0x8(%rbp)
  9b:	8b 75 f8             	mov    -0x8(%rbp),%esi
  9e:	b0 00                	mov    $0x0,%al
  a0:	e8 00 00 00 00       	callq  a5 <main+0x35>
  a5:	8b 75 f8             	mov    -0x8(%rbp),%esi
  a8:	89 45 f4             	mov    %eax,-0xc(%rbp)
  ab:	89 f0                	mov    %esi,%eax
  ad:	48 83 c4 10          	add    $0x10,%rsp
  b1:	5d                   	pop    %rbp
  b2:	c3                   	retq   
