
Output/test_6.clang.o:     file format elf64-x86-64


Disassembly of section .text:

0000000000000000 <foo>:
   0:	55                   	push   %rbp
   1:	48 89 e5             	mov    %rsp,%rbp
   4:	53                   	push   %rbx
   5:	48 8b 45 28          	mov    0x28(%rbp),%rax
   9:	44 8b 55 20          	mov    0x20(%rbp),%r10d
   d:	4c 8b 5d 18          	mov    0x18(%rbp),%r11
  11:	8b 5d 10             	mov    0x10(%rbp),%ebx
  14:	89 7d f4             	mov    %edi,-0xc(%rbp)
  17:	89 75 f0             	mov    %esi,-0x10(%rbp)
  1a:	89 55 ec             	mov    %edx,-0x14(%rbp)
  1d:	89 4d e8             	mov    %ecx,-0x18(%rbp)
  20:	44 89 45 e4          	mov    %r8d,-0x1c(%rbp)
  24:	44 89 4d e0          	mov    %r9d,-0x20(%rbp)
  28:	89 5d dc             	mov    %ebx,-0x24(%rbp)
  2b:	4c 89 5d d0          	mov    %r11,-0x30(%rbp)
  2f:	44 89 55 cc          	mov    %r10d,-0x34(%rbp)
  33:	48 89 45 c0          	mov    %rax,-0x40(%rbp)
  37:	c7 45 bc 00 00 00 00 	movl   $0x0,-0x44(%rbp)
  3e:	c7 45 b8 00 00 00 00 	movl   $0x0,-0x48(%rbp)
  45:	8b 45 b8             	mov    -0x48(%rbp),%eax
  48:	3b 45 dc             	cmp    -0x24(%rbp),%eax
  4b:	0f 8d 2a 00 00 00    	jge    7b <foo+0x7b>
  51:	48 8b 45 d0          	mov    -0x30(%rbp),%rax
  55:	48 63 4d b8          	movslq -0x48(%rbp),%rcx
  59:	8b 14 88             	mov    (%rax,%rcx,4),%edx
  5c:	48 8b 45 c0          	mov    -0x40(%rbp),%rax
  60:	48 63 4d b8          	movslq -0x48(%rbp),%rcx
  64:	2b 14 88             	sub    (%rax,%rcx,4),%edx
  67:	03 55 bc             	add    -0x44(%rbp),%edx
  6a:	89 55 bc             	mov    %edx,-0x44(%rbp)
  6d:	8b 45 b8             	mov    -0x48(%rbp),%eax
  70:	83 c0 01             	add    $0x1,%eax
  73:	89 45 b8             	mov    %eax,-0x48(%rbp)
  76:	e9 ca ff ff ff       	jmpq   45 <foo+0x45>
  7b:	8b 45 bc             	mov    -0x44(%rbp),%eax
  7e:	8b 4d f4             	mov    -0xc(%rbp),%ecx
  81:	03 4d f0             	add    -0x10(%rbp),%ecx
  84:	03 4d ec             	add    -0x14(%rbp),%ecx
  87:	03 4d e8             	add    -0x18(%rbp),%ecx
  8a:	03 4d e4             	add    -0x1c(%rbp),%ecx
  8d:	03 4d e0             	add    -0x20(%rbp),%ecx
  90:	0f af c1             	imul   %ecx,%eax
  93:	5b                   	pop    %rbx
  94:	5d                   	pop    %rbp
  95:	c3                   	retq   
  96:	66 2e 0f 1f 84 00 00 	nopw   %cs:0x0(%rax,%rax,1)
  9d:	00 00 00 

00000000000000a0 <main>:
  a0:	55                   	push   %rbp
  a1:	48 89 e5             	mov    %rsp,%rbp
  a4:	48 83 ec 50          	sub    $0x50,%rsp
  a8:	b8 28 00 00 00       	mov    $0x28,%eax
  ad:	89 c1                	mov    %eax,%ecx
  af:	c7 45 fc 00 00 00 00 	movl   $0x0,-0x4(%rbp)
  b6:	89 7d f8             	mov    %edi,-0x8(%rbp)
  b9:	48 89 75 f0          	mov    %rsi,-0x10(%rbp)
  bd:	48 89 cf             	mov    %rcx,%rdi
  c0:	e8 00 00 00 00       	callq  c5 <main+0x25>
  c5:	ba 28 00 00 00       	mov    $0x28,%edx
  ca:	89 d7                	mov    %edx,%edi
  cc:	48 89 45 e8          	mov    %rax,-0x18(%rbp)
  d0:	e8 00 00 00 00       	callq  d5 <main+0x35>
  d5:	48 89 45 e0          	mov    %rax,-0x20(%rbp)
  d9:	c7 45 dc 00 00 00 00 	movl   $0x0,-0x24(%rbp)
  e0:	83 7d dc 0a          	cmpl   $0xa,-0x24(%rbp)
  e4:	0f 8d 22 00 00 00    	jge    10c <main+0x6c>
  ea:	8b 45 dc             	mov    -0x24(%rbp),%eax
  ed:	83 c0 0a             	add    $0xa,%eax
  f0:	83 c0 01             	add    $0x1,%eax
  f3:	48 8b 4d e8          	mov    -0x18(%rbp),%rcx
  f7:	48 63 55 dc          	movslq -0x24(%rbp),%rdx
  fb:	89 04 91             	mov    %eax,(%rcx,%rdx,4)
  fe:	8b 45 dc             	mov    -0x24(%rbp),%eax
 101:	83 c0 01             	add    $0x1,%eax
 104:	89 45 dc             	mov    %eax,-0x24(%rbp)
 107:	e9 d4 ff ff ff       	jmpq   e0 <main+0x40>
 10c:	c7 45 d8 00 00 00 00 	movl   $0x0,-0x28(%rbp)
 113:	83 7d d8 0a          	cmpl   $0xa,-0x28(%rbp)
 117:	0f 8d 1f 00 00 00    	jge    13c <main+0x9c>
 11d:	8b 45 d8             	mov    -0x28(%rbp),%eax
 120:	83 c0 01             	add    $0x1,%eax
 123:	48 8b 4d e0          	mov    -0x20(%rbp),%rcx
 127:	48 63 55 d8          	movslq -0x28(%rbp),%rdx
 12b:	89 04 91             	mov    %eax,(%rcx,%rdx,4)
 12e:	8b 45 d8             	mov    -0x28(%rbp),%eax
 131:	83 c0 01             	add    $0x1,%eax
 134:	89 45 d8             	mov    %eax,-0x28(%rbp)
 137:	e9 d7 ff ff ff       	jmpq   113 <main+0x73>
 13c:	bf 64 00 00 00       	mov    $0x64,%edi
 141:	be c8 00 00 00       	mov    $0xc8,%esi
 146:	ba 2c 01 00 00       	mov    $0x12c,%edx
 14b:	b9 90 01 00 00       	mov    $0x190,%ecx
 150:	41 b8 f4 01 00 00    	mov    $0x1f4,%r8d
 156:	41 b9 58 02 00 00    	mov    $0x258,%r9d
 15c:	b8 0a 00 00 00       	mov    $0xa,%eax
 161:	4c 8b 55 e8          	mov    -0x18(%rbp),%r10
 165:	4c 8b 5d e0          	mov    -0x20(%rbp),%r11
 169:	c7 04 24 0a 00 00 00 	movl   $0xa,(%rsp)
 170:	4c 89 54 24 08       	mov    %r10,0x8(%rsp)
 175:	c7 44 24 10 0a 00 00 	movl   $0xa,0x10(%rsp)
 17c:	00 
 17d:	4c 89 5c 24 18       	mov    %r11,0x18(%rsp)
 182:	89 45 d4             	mov    %eax,-0x2c(%rbp)
 185:	e8 76 fe ff ff       	callq  0 <foo>
 18a:	48 83 c4 50          	add    $0x50,%rsp
 18e:	5d                   	pop    %rbp
 18f:	c3                   	retq   
