
test_11.o:     file format elf64-x86-64


Disassembly of section .text:

0000000000000000 <foo>:
   0:	55                   	push   %rbp
   1:	48 89 e5             	mov    %rsp,%rbp
   4:	89 7d fc             	mov    %edi,-0x4(%rbp)
   7:	8b 45 fc             	mov    -0x4(%rbp),%eax
   a:	83 c0 01             	add    $0x1,%eax
   d:	5d                   	pop    %rbp
   e:	c3                   	retq   

000000000000000f <doTrans>:
   f:	55                   	push   %rbp
  10:	48 89 e5             	mov    %rsp,%rbp
  13:	48 83 ec 30          	sub    $0x30,%rsp
  17:	48 89 7d d8          	mov    %rdi,-0x28(%rbp)
  1b:	48 8b 45 d8          	mov    -0x28(%rbp),%rax
  1f:	48 89 c7             	mov    %rax,%rdi
  22:	e8 00 00 00 00       	callq  27 <doTrans+0x18>
  27:	48 83 c0 01          	add    $0x1,%rax
  2b:	48 89 45 e8          	mov    %rax,-0x18(%rbp)
  2f:	48 8b 45 e8          	mov    -0x18(%rbp),%rax
  33:	48 89 c7             	mov    %rax,%rdi
  36:	e8 00 00 00 00       	callq  3b <doTrans+0x2c>
  3b:	48 89 45 e0          	mov    %rax,-0x20(%rbp)
  3f:	48 83 7d e0 00       	cmpq   $0x0,-0x20(%rbp)
  44:	74 63                	je     a9 <doTrans+0x9a>
  46:	48 8b 45 d8          	mov    -0x28(%rbp),%rax
  4a:	48 89 45 f8          	mov    %rax,-0x8(%rbp)
  4e:	48 8b 45 e0          	mov    -0x20(%rbp),%rax
  52:	48 89 45 f0          	mov    %rax,-0x10(%rbp)
  56:	48 8b 55 e8          	mov    -0x18(%rbp),%rdx
  5a:	48 8b 45 e0          	mov    -0x20(%rbp),%rax
  5e:	be 00 00 00 00       	mov    $0x0,%esi
  63:	48 89 c7             	mov    %rax,%rdi
  66:	e8 00 00 00 00       	callq  6b <doTrans+0x5c>
  6b:	eb 2b                	jmp    98 <doTrans+0x89>
  6d:	48 8b 45 f8          	mov    -0x8(%rbp),%rax
  71:	0f b6 00             	movzbl (%rax),%eax
  74:	3c 2f                	cmp    $0x2f,%al
  76:	75 09                	jne    81 <doTrans+0x72>
  78:	48 8b 45 f0          	mov    -0x10(%rbp),%rax
  7c:	c6 00 5c             	movb   $0x5c,(%rax)
  7f:	eb 0d                	jmp    8e <doTrans+0x7f>
  81:	48 8b 45 f8          	mov    -0x8(%rbp),%rax
  85:	0f b6 10             	movzbl (%rax),%edx
  88:	48 8b 45 f0          	mov    -0x10(%rbp),%rax
  8c:	88 10                	mov    %dl,(%rax)
  8e:	48 83 45 f8 01       	addq   $0x1,-0x8(%rbp)
  93:	48 83 45 f0 01       	addq   $0x1,-0x10(%rbp)
  98:	48 8b 45 f8          	mov    -0x8(%rbp),%rax
  9c:	0f b6 00             	movzbl (%rax),%eax
  9f:	84 c0                	test   %al,%al
  a1:	75 ca                	jne    6d <doTrans+0x5e>
  a3:	48 8b 45 e0          	mov    -0x20(%rbp),%rax
  a7:	eb 05                	jmp    ae <doTrans+0x9f>
  a9:	b8 00 00 00 00       	mov    $0x0,%eax
  ae:	c9                   	leaveq 
  af:	c3                   	retq   
