
test_2.o:     file format elf64-x86-64


Disassembly of section .text:

0000000000000000 <foo>:
   0:	55                   	push   %rbp
   1:	48 89 e5             	mov    %rsp,%rbp
   4:	89 7d ec             	mov    %edi,-0x14(%rbp)
   7:	89 75 e8             	mov    %esi,-0x18(%rbp)
   a:	89 55 e4             	mov    %edx,-0x1c(%rbp)
   d:	89 4d e0             	mov    %ecx,-0x20(%rbp)
  10:	44 89 45 dc          	mov    %r8d,-0x24(%rbp)
  14:	44 89 4d d8          	mov    %r9d,-0x28(%rbp)
  18:	8b 45 e8             	mov    -0x18(%rbp),%eax
  1b:	8b 55 ec             	mov    -0x14(%rbp),%edx
  1e:	01 c2                	add    %eax,%edx
  20:	8b 45 e4             	mov    -0x1c(%rbp),%eax
  23:	01 c2                	add    %eax,%edx
  25:	8b 45 e0             	mov    -0x20(%rbp),%eax
  28:	01 c2                	add    %eax,%edx
  2a:	8b 45 dc             	mov    -0x24(%rbp),%eax
  2d:	01 c2                	add    %eax,%edx
  2f:	8b 45 d8             	mov    -0x28(%rbp),%eax
  32:	01 c2                	add    %eax,%edx
  34:	8b 45 10             	mov    0x10(%rbp),%eax
  37:	01 d0                	add    %edx,%eax
  39:	89 45 f8             	mov    %eax,-0x8(%rbp)
  3c:	83 7d f8 28          	cmpl   $0x28,-0x8(%rbp)
  40:	7e 0d                	jle    4f <foo+0x4f>
  42:	8b 45 18             	mov    0x18(%rbp),%eax
  45:	8b 55 f8             	mov    -0x8(%rbp),%edx
  48:	01 d0                	add    %edx,%eax
  4a:	89 45 fc             	mov    %eax,-0x4(%rbp)
  4d:	eb 0d                	jmp    5c <foo+0x5c>
  4f:	8b 45 18             	mov    0x18(%rbp),%eax
  52:	8b 55 f8             	mov    -0x8(%rbp),%edx
  55:	29 c2                	sub    %eax,%edx
  57:	89 d0                	mov    %edx,%eax
  59:	89 45 fc             	mov    %eax,-0x4(%rbp)
  5c:	8b 45 fc             	mov    -0x4(%rbp),%eax
  5f:	5d                   	pop    %rbp
  60:	c3                   	retq   

0000000000000061 <main>:
  61:	55                   	push   %rbp
  62:	48 89 e5             	mov    %rsp,%rbp
  65:	48 83 ec 20          	sub    $0x20,%rsp
  69:	c7 44 24 08 50 00 00 	movl   $0x50,0x8(%rsp)
  70:	00 
  71:	c7 04 24 46 00 00 00 	movl   $0x46,(%rsp)
  78:	41 b9 3c 00 00 00    	mov    $0x3c,%r9d
  7e:	41 b8 32 00 00 00    	mov    $0x32,%r8d
  84:	b9 28 00 00 00       	mov    $0x28,%ecx
  89:	ba 1e 00 00 00       	mov    $0x1e,%edx
  8e:	be 14 00 00 00       	mov    $0x14,%esi
  93:	bf 0a 00 00 00       	mov    $0xa,%edi
  98:	e8 00 00 00 00       	callq  9d <main+0x3c>
  9d:	89 45 fc             	mov    %eax,-0x4(%rbp)
  a0:	8b 45 fc             	mov    -0x4(%rbp),%eax
  a3:	c9                   	leaveq 
  a4:	c3                   	retq   
