
test_10.o:     file format elf64-x86-64


Disassembly of section .text:

0000000000000000 <demo3>:
   0:	55                   	push   %rbp
   1:	48 89 e5             	mov    %rsp,%rbp
   4:	48 89 7d f8          	mov    %rdi,-0x8(%rbp)
   8:	48 89 75 f0          	mov    %rsi,-0x10(%rbp)
   c:	48 8b 75 f8          	mov    -0x8(%rbp),%rsi
  10:	48 89 75 e8          	mov    %rsi,-0x18(%rbp)
  14:	48 8b 75 f0          	mov    -0x10(%rbp),%rsi
  18:	48 89 75 e0          	mov    %rsi,-0x20(%rbp)
  1c:	48 8b 75 e8          	mov    -0x18(%rbp),%rsi
  20:	8a 06                	mov    (%rsi),%al
  22:	88 45 df             	mov    %al,-0x21(%rbp)
  25:	0f be 45 df          	movsbl -0x21(%rbp),%eax
  29:	3d 00 00 00 00       	cmp    $0x0,%eax
  2e:	0f 84 4e 00 00 00    	je     82 <demo3+0x82>
  34:	0f be 45 df          	movsbl -0x21(%rbp),%eax
  38:	3d 2f 00 00 00       	cmp    $0x2f,%eax
  3d:	0f 85 0c 00 00 00    	jne    4f <demo3+0x4f>
  43:	48 8b 45 e0          	mov    -0x20(%rbp),%rax
  47:	c6 00 5c             	movb   $0x5c,(%rax)
  4a:	e9 09 00 00 00       	jmpq   58 <demo3+0x58>
  4f:	8a 45 df             	mov    -0x21(%rbp),%al
  52:	48 8b 4d e0          	mov    -0x20(%rbp),%rcx
  56:	88 01                	mov    %al,(%rcx)
  58:	48 8b 45 e8          	mov    -0x18(%rbp),%rax
  5c:	48 05 01 00 00 00    	add    $0x1,%rax
  62:	48 89 45 e8          	mov    %rax,-0x18(%rbp)
  66:	48 8b 45 e0          	mov    -0x20(%rbp),%rax
  6a:	48 05 01 00 00 00    	add    $0x1,%rax
  70:	48 89 45 e0          	mov    %rax,-0x20(%rbp)
  74:	48 8b 45 e8          	mov    -0x18(%rbp),%rax
  78:	8a 08                	mov    (%rax),%cl
  7a:	88 4d df             	mov    %cl,-0x21(%rbp)
  7d:	e9 a3 ff ff ff       	jmpq   25 <demo3+0x25>
  82:	5d                   	pop    %rbp
  83:	c3                   	retq   
