
test_18.o:     file format elf64-x86-64


Disassembly of section .text:

0000000000000000 <printdata>:
   0:	55                   	push   %rbp
   1:	48 89 e5             	mov    %rsp,%rbp
   4:	48 83 ec 10          	sub    $0x10,%rsp
   8:	c7 45 fc 00 00 00 00 	movl   $0x0,-0x4(%rbp)
   f:	48 63 45 fc          	movslq -0x4(%rbp),%rax
  13:	48 3d c1 88 13 00    	cmp    $0x1388c1,%rax
  19:	0f 83 5c 00 00 00    	jae    7b <printdata+0x7b>
  1f:	48 63 45 fc          	movslq -0x4(%rbp),%rax
  23:	48 81 3c c5 00 00 00 	cmpq   $0x0,0x0(,%rax,8)
  2a:	00 00 00 00 00 
  2f:	0f 84 31 00 00 00    	je     66 <printdata+0x66>
  35:	48 bf 00 00 00 00 00 	mov    $0x0,%rdi
  3c:	00 00 00 
  3f:	8b 75 fc             	mov    -0x4(%rbp),%esi
  42:	48 63 45 fc          	movslq -0x4(%rbp),%rax
  46:	48 8b 14 c5 00 00 00 	mov    0x0(,%rax,8),%rdx
  4d:	00 
  4e:	48 63 45 fc          	movslq -0x4(%rbp),%rax
  52:	48 8b 04 c5 00 00 00 	mov    0x0(,%rax,8),%rax
  59:	00 
  5a:	8b 08                	mov    (%rax),%ecx
  5c:	b0 00                	mov    $0x0,%al
  5e:	e8 00 00 00 00       	callq  63 <printdata+0x63>
  63:	89 45 f8             	mov    %eax,-0x8(%rbp)
  66:	e9 00 00 00 00       	jmpq   6b <printdata+0x6b>
  6b:	8b 45 fc             	mov    -0x4(%rbp),%eax
  6e:	05 01 00 00 00       	add    $0x1,%eax
  73:	89 45 fc             	mov    %eax,-0x4(%rbp)
  76:	e9 94 ff ff ff       	jmpq   f <printdata+0xf>
  7b:	b8 00 00 00 00       	mov    $0x0,%eax
  80:	48 83 c4 10          	add    $0x10,%rsp
  84:	5d                   	pop    %rbp
  85:	c3                   	retq   
