    .text
    .globl	strchr
strchr:
LFB0:
    .cfi_startproc
    pushq	%rbp
    .cfi_def_cfa_offset 16
    .cfi_offset 6, -16
    movq	%rsp, %rbp
    .cfi_def_cfa_register 6
    movq	%rdi, -8(%rbp)
    movl	%esi, -12(%rbp)
    nop
    movq	-8(%rbp), %rax
    movzbl	(%rax), %eax
    movl	-12(%rbp), %edx
    cmpb	%dl, %al
    je	L6
    movq	-8(%rbp), %rax
    leaq	1(%rax), %rdx
    movq	%rdx, -8(%rbp)
    movzbl	(%rax), %eax
    testb	%al, %al
    jne	L3
    movl	$0, %eax
    jmp	L1
L3:
    movq	-8(%rbp), %rax
    jmp	L1
L6:
L1:
    popq	%rbp
    .cfi_def_cfa 7, 8
    ret
    .cfi_endproc
LFE0:
    .globl	strlen
strlen:
LFB1:
    .cfi_startproc
    pushq	%rbp
    .cfi_def_cfa_offset 16
    .cfi_offset 6, -16
    movq	%rsp, %rbp
    .cfi_def_cfa_register 6
    movq	%rdi, -24(%rbp)
    movq	$0, -8(%rbp)
    jmp	L8
L9:
    addq	$1, -8(%rbp)
L8:
    movq	-24(%rbp), %rdx
    movq	-8(%rbp), %rax
    addq	%rdx, %rax
    movzbl	(%rax), %eax
    testb	%al, %al
    jne	L9
    movq	-8(%rbp), %rax
    popq	%rbp
    .cfi_def_cfa 7, 8
    ret
    .cfi_endproc
LFE1:
    .globl	strcpy
strcpy:
LFB2:
    .cfi_startproc
    pushq	%rbp
    .cfi_def_cfa_offset 16
    .cfi_offset 6, -16
    movq	%rsp, %rbp
    .cfi_def_cfa_register 6
    movq	%rdi, -24(%rbp)
    movq	%rsi, -32(%rbp)
    movq	-24(%rbp), %rax
    movq	%rax, -8(%rbp)
    nop
L12:
    movq	-24(%rbp), %rax
    leaq	1(%rax), %rdx
    movq	%rdx, -24(%rbp)
    movq	-32(%rbp), %rdx
    leaq	1(%rdx), %rcx
    movq	%rcx, -32(%rbp)
    movzbl	(%rdx), %edx
    movb	%dl, (%rax)
    movzbl	(%rax), %eax
    testb	%al, %al
    jne	L12
    movq	-8(%rbp), %rax
    popq	%rbp
    .cfi_def_cfa 7, 8
    ret
    .cfi_endproc
LFE2:
    .globl	strcmp
strcmp:
LFB3:
    .cfi_startproc
    pushq	%rbp
    .cfi_def_cfa_offset 16
    .cfi_offset 6, -16
    movq	%rsp, %rbp
    .cfi_def_cfa_register 6
    movq	%rdi, -8(%rbp)
    movq	%rsi, -16(%rbp)
    jmp	L15
L17:
    addq	$1, -8(%rbp)
    addq	$1, -16(%rbp)
L15:
    movq	-8(%rbp), %rax
    movzbl	(%rax), %eax
    testb	%al, %al
    je	L16
    movq	-8(%rbp), %rax
    movzbl	(%rax), %edx
    movq	-16(%rbp), %rax
    movzbl	(%rax), %eax
    cmpb	%al, %dl
    je	L17
L16:
    movq	-8(%rbp), %rax
    movzbl	(%rax), %eax
    movzbl	%al, %edx
    movq	-16(%rbp), %rax
    movzbl	(%rax), %eax
    movzbl	%al, %eax
    subl	%eax, %edx
    movl	%edx, %eax
    popq	%rbp
    .cfi_def_cfa 7, 8
    ret
    .cfi_endproc
LFE3:
    .globl	memcmp
memcmp:
LFB4:
    .cfi_startproc
    pushq	%rbp
    .cfi_def_cfa_offset 16
    .cfi_offset 6, -16
    movq	%rsp, %rbp
    .cfi_def_cfa_register 6
    movq	%rdi, -24(%rbp)
    movq	%rsi, -32(%rbp)
    movq	%rdx, -40(%rbp)
    movq	-24(%rbp), %rax
    movq	%rax, -16(%rbp)
    movq	-32(%rbp), %rax
    movq	%rax, -8(%rbp)
    jmp	L20
L23:
    movq	-16(%rbp), %rax
    movzbl	(%rax), %edx
    movq	-8(%rbp), %rax
    movzbl	(%rax), %eax
    cmpb	%al, %dl
    je	L21
    movq	-16(%rbp), %rax
    movzbl	(%rax), %eax
    movzbl	%al, %edx
    movq	-8(%rbp), %rax
    movzbl	(%rax), %eax
    movzbl	%al, %eax
    subl	%eax, %edx
    movl	%edx, %eax
    jmp	L22
L21:
    addq	$1, -16(%rbp)
    addq	$1, -8(%rbp)
L20:
    movq	-40(%rbp), %rax
    leaq	-1(%rax), %rdx
    movq	%rdx, -40(%rbp)
    testq	%rax, %rax
    jne	L23
    movl	$0, %eax
L22:
    popq	%rbp
    .cfi_def_cfa 7, 8
    ret
    .cfi_endproc
LFE4:
    .globl	__stack_chk_fail
__stack_chk_fail:
LFB5:
    .cfi_startproc
    pushq	%rbp
    .cfi_def_cfa_offset 16
    .cfi_offset 6, -16
    movq	%rsp, %rbp
    .cfi_def_cfa_register 6
    movq $-1, %rax
    jmp %rax
    
    nop
    popq	%rbp
    .cfi_def_cfa 7, 8
    ret
    .cfi_endproc
LFE5:
    .globl	exit
exit:
LFB6:
    .cfi_startproc
    pushq	%rbp
    .cfi_def_cfa_offset 16
    .cfi_offset 6, -16
    movq	%rsp, %rbp
    .cfi_def_cfa_register 6
    movl	%edi, -4(%rbp)
    movq $-1, %rax
    jmp %rax
    
    nop
    popq	%rbp
    .cfi_def_cfa 7, 8
    ret
    .cfi_endproc
LFE6:
    .globl	abort
abort:
LFB7:
    .cfi_startproc
    pushq	%rbp
    .cfi_def_cfa_offset 16
    .cfi_offset 6, -16
    movq	%rsp, %rbp
    .cfi_def_cfa_register 6
    movq $-1, %rax
    jmp %rax
    
    nop
    popq	%rbp
    .cfi_def_cfa 7, 8
    ret
    .cfi_endproc
LFE7:
    .globl	memset
memset:
LFB8:
    .cfi_startproc
    pushq	%rbp
    .cfi_def_cfa_offset 16
    .cfi_offset 6, -16
    movq	%rsp, %rbp
    .cfi_def_cfa_register 6
    movq	%rdi, -24(%rbp)
    movl	%esi, -28(%rbp)
    movq	%rdx, -40(%rbp)
    movq	-24(%rbp), %rax
    movq	%rax, -8(%rbp)
    jmp	L28
L29:
    movq	-8(%rbp), %rax
    leaq	1(%rax), %rdx
    movq	%rdx, -8(%rbp)
    movl	-28(%rbp), %edx
    movb	%dl, (%rax)
L28:
    movq	-40(%rbp), %rax
    leaq	-1(%rax), %rdx
    movq	%rdx, -40(%rbp)
    testq	%rax, %rax
    jne	L29
    movq	-24(%rbp), %rax
    popq	%rbp
    .cfi_def_cfa 7, 8
    ret
    .cfi_endproc
LFE8:
    .globl	memcpy
memcpy:
LFB9:
    .cfi_startproc
    pushq	%rbp
    .cfi_def_cfa_offset 16
    .cfi_offset 6, -16
    movq	%rsp, %rbp
    .cfi_def_cfa_register 6
    movq	%rdi, -24(%rbp)
    movq	%rsi, -32(%rbp)
    movq	%rdx, -40(%rbp)
    movq	-24(%rbp), %rax
    movq	%rax, -16(%rbp)
    movq	-32(%rbp), %rax
    movq	%rax, -8(%rbp)
    jmp	L32
L33:
    movq	-16(%rbp), %rax
    leaq	1(%rax), %rdx
    movq	%rdx, -16(%rbp)
    movq	-8(%rbp), %rdx
    leaq	1(%rdx), %rcx
    movq	%rcx, -8(%rbp)
    movzbl	(%rdx), %edx
    movb	%dl, (%rax)
L32:
    movq	-40(%rbp), %rax
    leaq	-1(%rax), %rdx
    movq	%rdx, -40(%rbp)
    testq	%rax, %rax
    jne	L33
    movq	-24(%rbp), %rax
    popq	%rbp
    .cfi_def_cfa 7, 8
    ret
    .cfi_endproc
LFE9:
    .globl	free
free:
LFB10:
    .cfi_startproc
    pushq	%rbp
    .cfi_def_cfa_offset 16
    .cfi_offset 6, -16
    movq	%rsp, %rbp
    .cfi_def_cfa_register 6
    movq	%rdi, -8(%rbp)
    nop
    popq	%rbp
    .cfi_def_cfa 7, 8
    ret
    .cfi_endproc
LFE10:
    .globl	isprint
isprint:
LFB11:
    .cfi_startproc
    pushq	%rbp
    .cfi_def_cfa_offset 16
    .cfi_offset 6, -16
    movq	%rsp, %rbp
    .cfi_def_cfa_register 6
    movl	%edi, -4(%rbp)
    cmpl	$96, -4(%rbp)
    jle	L37
    cmpl	$122, -4(%rbp)
    jg	L37
    movl	$1, %eax
    jmp	L38
L37:
    cmpl	$64, -4(%rbp)
    jle	L39
    cmpl	$90, -4(%rbp)
    jg	L39
    movl	$1, %eax
    jmp	L38
L39:
    cmpl	$47, -4(%rbp)
    jle	L40
    cmpl	$57, -4(%rbp)
    jg	L40
    movl	$1, %eax
    jmp	L38
L40:
    movl	$0, %eax
L38:
    popq	%rbp
    .cfi_def_cfa 7, 8
    ret
    .cfi_endproc
LFE11:
    .globl	sigfpe
sigfpe:
LFB12:
    .cfi_startproc
    pushq	%rbp
    .cfi_def_cfa_offset 16
    .cfi_offset 6, -16
    movq	%rsp, %rbp
    .cfi_def_cfa_register 6
    subq	$16, %rsp
    movl	%edi, -4(%rbp)
    movl	$0, %edi
    call	exit
    .cfi_endproc
LFE12:
    .comm	i,4,4
    .comm	j,4,4
    .comm	k,4,4
    .globl	main
.globl _start
_start:
LFB13:
    .cfi_startproc
    pushq	%rbp
    .cfi_def_cfa_offset 16
    .cfi_offset 6, -16
    movq	%rsp, %rbp
    .cfi_def_cfa_register 6
    movl	i(%rip), %eax
    movl	j(%rip), %ecx
    cltd
    idivl	%ecx
    movl	%eax, k(%rip)
    call	abort
    .cfi_endproc
LFE13:
