
Output/test_35.clang.o:     file format elf64-x86-64


Disassembly of section .init:

0000000000400490 <_init>:
  400490:	48 83 ec 08          	sub    $0x8,%rsp
  400494:	48 8b 05 5d 0b 20 00 	mov    0x200b5d(%rip),%rax        # 600ff8 <__gmon_start__>
  40049b:	48 85 c0             	test   %rax,%rax
  40049e:	74 02                	je     4004a2 <_init+0x12>
  4004a0:	ff d0                	callq  *%rax
  4004a2:	48 83 c4 08          	add    $0x8,%rsp
  4004a6:	c3                   	retq   

Disassembly of section .plt:

00000000004004b0 <.plt>:
  4004b0:	ff 35 52 0b 20 00    	pushq  0x200b52(%rip)        # 601008 <_GLOBAL_OFFSET_TABLE_+0x8>
  4004b6:	ff 25 54 0b 20 00    	jmpq   *0x200b54(%rip)        # 601010 <_GLOBAL_OFFSET_TABLE_+0x10>
  4004bc:	0f 1f 40 00          	nopl   0x0(%rax)

00000000004004c0 <pthread_create@plt>:
  4004c0:	ff 25 52 0b 20 00    	jmpq   *0x200b52(%rip)        # 601018 <pthread_create@GLIBC_2.2.5>
  4004c6:	68 00 00 00 00       	pushq  $0x0
  4004cb:	e9 e0 ff ff ff       	jmpq   4004b0 <.plt>

00000000004004d0 <printf@plt>:
  4004d0:	ff 25 4a 0b 20 00    	jmpq   *0x200b4a(%rip)        # 601020 <printf@GLIBC_2.2.5>
  4004d6:	68 01 00 00 00       	pushq  $0x1
  4004db:	e9 d0 ff ff ff       	jmpq   4004b0 <.plt>

00000000004004e0 <pthread_join@plt>:
  4004e0:	ff 25 42 0b 20 00    	jmpq   *0x200b42(%rip)        # 601028 <pthread_join@GLIBC_2.2.5>
  4004e6:	68 02 00 00 00       	pushq  $0x2
  4004eb:	e9 c0 ff ff ff       	jmpq   4004b0 <.plt>

Disassembly of section .text:

00000000004004f0 <_start>:
  4004f0:	31 ed                	xor    %ebp,%ebp
  4004f2:	49 89 d1             	mov    %rdx,%r9
  4004f5:	5e                   	pop    %rsi
  4004f6:	48 89 e2             	mov    %rsp,%rdx
  4004f9:	48 83 e4 f0          	and    $0xfffffffffffffff0,%rsp
  4004fd:	50                   	push   %rax
  4004fe:	54                   	push   %rsp
  4004ff:	49 c7 c0 00 07 40 00 	mov    $0x400700,%r8
  400506:	48 c7 c1 90 06 40 00 	mov    $0x400690,%rcx
  40050d:	48 c7 c7 20 06 40 00 	mov    $0x400620,%rdi
  400514:	ff 15 d6 0a 20 00    	callq  *0x200ad6(%rip)        # 600ff0 <__libc_start_main@GLIBC_2.2.5>
  40051a:	f4                   	hlt    
  40051b:	0f 1f 44 00 00       	nopl   0x0(%rax,%rax,1)

0000000000400520 <deregister_tm_clones>:
  400520:	b8 47 10 60 00       	mov    $0x601047,%eax
  400525:	55                   	push   %rbp
  400526:	48 2d 40 10 60 00    	sub    $0x601040,%rax
  40052c:	48 83 f8 0e          	cmp    $0xe,%rax
  400530:	48 89 e5             	mov    %rsp,%rbp
  400533:	76 1b                	jbe    400550 <deregister_tm_clones+0x30>
  400535:	b8 00 00 00 00       	mov    $0x0,%eax
  40053a:	48 85 c0             	test   %rax,%rax
  40053d:	74 11                	je     400550 <deregister_tm_clones+0x30>
  40053f:	5d                   	pop    %rbp
  400540:	bf 40 10 60 00       	mov    $0x601040,%edi
  400545:	ff e0                	jmpq   *%rax
  400547:	66 0f 1f 84 00 00 00 	nopw   0x0(%rax,%rax,1)
  40054e:	00 00 
  400550:	5d                   	pop    %rbp
  400551:	c3                   	retq   
  400552:	0f 1f 40 00          	nopl   0x0(%rax)
  400556:	66 2e 0f 1f 84 00 00 	nopw   %cs:0x0(%rax,%rax,1)
  40055d:	00 00 00 

0000000000400560 <register_tm_clones>:
  400560:	be 40 10 60 00       	mov    $0x601040,%esi
  400565:	55                   	push   %rbp
  400566:	48 81 ee 40 10 60 00 	sub    $0x601040,%rsi
  40056d:	48 c1 fe 03          	sar    $0x3,%rsi
  400571:	48 89 e5             	mov    %rsp,%rbp
  400574:	48 89 f0             	mov    %rsi,%rax
  400577:	48 c1 e8 3f          	shr    $0x3f,%rax
  40057b:	48 01 c6             	add    %rax,%rsi
  40057e:	48 d1 fe             	sar    %rsi
  400581:	74 15                	je     400598 <register_tm_clones+0x38>
  400583:	b8 00 00 00 00       	mov    $0x0,%eax
  400588:	48 85 c0             	test   %rax,%rax
  40058b:	74 0b                	je     400598 <register_tm_clones+0x38>
  40058d:	5d                   	pop    %rbp
  40058e:	bf 40 10 60 00       	mov    $0x601040,%edi
  400593:	ff e0                	jmpq   *%rax
  400595:	0f 1f 00             	nopl   (%rax)
  400598:	5d                   	pop    %rbp
  400599:	c3                   	retq   
  40059a:	66 0f 1f 44 00 00    	nopw   0x0(%rax,%rax,1)

00000000004005a0 <__do_global_dtors_aux>:
  4005a0:	80 3d 99 0a 20 00 00 	cmpb   $0x0,0x200a99(%rip)        # 601040 <__TMC_END__>
  4005a7:	75 11                	jne    4005ba <__do_global_dtors_aux+0x1a>
  4005a9:	55                   	push   %rbp
  4005aa:	48 89 e5             	mov    %rsp,%rbp
  4005ad:	e8 6e ff ff ff       	callq  400520 <deregister_tm_clones>
  4005b2:	5d                   	pop    %rbp
  4005b3:	c6 05 86 0a 20 00 01 	movb   $0x1,0x200a86(%rip)        # 601040 <__TMC_END__>
  4005ba:	f3 c3                	repz retq 
  4005bc:	0f 1f 40 00          	nopl   0x0(%rax)

00000000004005c0 <frame_dummy>:
  4005c0:	bf 08 0e 60 00       	mov    $0x600e08,%edi
  4005c5:	48 83 3f 00          	cmpq   $0x0,(%rdi)
  4005c9:	75 05                	jne    4005d0 <frame_dummy+0x10>
  4005cb:	eb 93                	jmp    400560 <register_tm_clones>
  4005cd:	0f 1f 00             	nopl   (%rax)
  4005d0:	b8 00 00 00 00       	mov    $0x0,%eax
  4005d5:	48 85 c0             	test   %rax,%rax
  4005d8:	74 f1                	je     4005cb <frame_dummy+0xb>
  4005da:	55                   	push   %rbp
  4005db:	48 89 e5             	mov    %rsp,%rbp
  4005de:	ff d0                	callq  *%rax
  4005e0:	5d                   	pop    %rbp
  4005e1:	e9 7a ff ff ff       	jmpq   400560 <register_tm_clones>
  4005e6:	66 2e 0f 1f 84 00 00 	nopw   %cs:0x0(%rax,%rax,1)
  4005ed:	00 00 00 

00000000004005f0 <f>:
  4005f0:	55                   	push   %rbp
  4005f1:	48 89 e5             	mov    %rsp,%rbp
  4005f4:	48 89 7d f8          	mov    %rdi,-0x8(%rbp)
  4005f8:	64 48 8b 3c 25 f8 ff 	mov    %fs:0xfffffffffffffff8,%rdi
  4005ff:	ff ff 
  400601:	48 ff c7             	inc    %rdi
  400604:	64 48 89 3c 25 f8 ff 	mov    %rdi,%fs:0xfffffffffffffff8
  40060b:	ff ff 
  40060d:	64 48 8b 04 25 f8 ff 	mov    %fs:0xfffffffffffffff8,%rax
  400614:	ff ff 
  400616:	5d                   	pop    %rbp
  400617:	c3                   	retq   
  400618:	0f 1f 84 00 00 00 00 	nopl   0x0(%rax,%rax,1)
  40061f:	00 

0000000000400620 <main>:
  400620:	55                   	push   %rbp
  400621:	48 89 e5             	mov    %rsp,%rbp
  400624:	48 83 ec 30          	sub    $0x30,%rsp
  400628:	48 8d 7d f0          	lea    -0x10(%rbp),%rdi
  40062c:	31 c0                	xor    %eax,%eax
  40062e:	89 c1                	mov    %eax,%ecx
  400630:	48 ba f0 05 40 00 00 	movabs $0x4005f0,%rdx
  400637:	00 00 00 
  40063a:	c7 45 fc 00 00 00 00 	movl   $0x0,-0x4(%rbp)
  400641:	48 89 ce             	mov    %rcx,%rsi
  400644:	e8 77 fe ff ff       	callq  4004c0 <pthread_create@plt>
  400649:	48 8d 4d e8          	lea    -0x18(%rbp),%rcx
  40064d:	48 8b 7d f0          	mov    -0x10(%rbp),%rdi
  400651:	48 89 ce             	mov    %rcx,%rsi
  400654:	89 45 e4             	mov    %eax,-0x1c(%rbp)
  400657:	e8 84 fe ff ff       	callq  4004e0 <pthread_join@plt>
  40065c:	48 bf 14 07 40 00 00 	movabs $0x400714,%rdi
  400663:	00 00 00 
  400666:	48 8b 4d e8          	mov    -0x18(%rbp),%rcx
  40066a:	41 89 c8             	mov    %ecx,%r8d
  40066d:	44 89 c6             	mov    %r8d,%esi
  400670:	89 45 e0             	mov    %eax,-0x20(%rbp)
  400673:	b0 00                	mov    $0x0,%al
  400675:	e8 56 fe ff ff       	callq  4004d0 <printf@plt>
  40067a:	31 f6                	xor    %esi,%esi
  40067c:	89 45 dc             	mov    %eax,-0x24(%rbp)
  40067f:	89 f0                	mov    %esi,%eax
  400681:	48 83 c4 30          	add    $0x30,%rsp
  400685:	5d                   	pop    %rbp
  400686:	c3                   	retq   
  400687:	66 0f 1f 84 00 00 00 	nopw   0x0(%rax,%rax,1)
  40068e:	00 00 

0000000000400690 <__libc_csu_init>:
  400690:	41 57                	push   %r15
  400692:	41 56                	push   %r14
  400694:	41 89 ff             	mov    %edi,%r15d
  400697:	41 55                	push   %r13
  400699:	41 54                	push   %r12
  40069b:	4c 8d 25 56 07 20 00 	lea    0x200756(%rip),%r12        # 600df8 <__frame_dummy_init_array_entry>
  4006a2:	55                   	push   %rbp
  4006a3:	48 8d 2d 56 07 20 00 	lea    0x200756(%rip),%rbp        # 600e00 <__init_array_end>
  4006aa:	53                   	push   %rbx
  4006ab:	49 89 f6             	mov    %rsi,%r14
  4006ae:	49 89 d5             	mov    %rdx,%r13
  4006b1:	4c 29 e5             	sub    %r12,%rbp
  4006b4:	48 83 ec 08          	sub    $0x8,%rsp
  4006b8:	48 c1 fd 03          	sar    $0x3,%rbp
  4006bc:	e8 cf fd ff ff       	callq  400490 <_init>
  4006c1:	48 85 ed             	test   %rbp,%rbp
  4006c4:	74 20                	je     4006e6 <__libc_csu_init+0x56>
  4006c6:	31 db                	xor    %ebx,%ebx
  4006c8:	0f 1f 84 00 00 00 00 	nopl   0x0(%rax,%rax,1)
  4006cf:	00 
  4006d0:	4c 89 ea             	mov    %r13,%rdx
  4006d3:	4c 89 f6             	mov    %r14,%rsi
  4006d6:	44 89 ff             	mov    %r15d,%edi
  4006d9:	41 ff 14 dc          	callq  *(%r12,%rbx,8)
  4006dd:	48 83 c3 01          	add    $0x1,%rbx
  4006e1:	48 39 dd             	cmp    %rbx,%rbp
  4006e4:	75 ea                	jne    4006d0 <__libc_csu_init+0x40>
  4006e6:	48 83 c4 08          	add    $0x8,%rsp
  4006ea:	5b                   	pop    %rbx
  4006eb:	5d                   	pop    %rbp
  4006ec:	41 5c                	pop    %r12
  4006ee:	41 5d                	pop    %r13
  4006f0:	41 5e                	pop    %r14
  4006f2:	41 5f                	pop    %r15
  4006f4:	c3                   	retq   
  4006f5:	90                   	nop
  4006f6:	66 2e 0f 1f 84 00 00 	nopw   %cs:0x0(%rax,%rax,1)
  4006fd:	00 00 00 

0000000000400700 <__libc_csu_fini>:
  400700:	f3 c3                	repz retq 

Disassembly of section .fini:

0000000000400704 <_fini>:
  400704:	48 83 ec 08          	sub    $0x8,%rsp
  400708:	48 83 c4 08          	add    $0x8,%rsp
  40070c:	c3                   	retq   
