
test_6.o:     file format elf64-x86-64


Disassembly of section .text:

0000000000000000 <main>:
   0:	55                   	push   %rbp
   1:	48 89 e5             	mov    %rsp,%rbp
   4:	48 83 ec 20          	sub    $0x20,%rsp
   8:	48 8b 55 e0          	mov    -0x20(%rbp),%rdx
   c:	8b 4d e8             	mov    -0x18(%rbp),%ecx
   f:	48 8b 75 f0          	mov    -0x10(%rbp),%rsi
  13:	8b 45 f8             	mov    -0x8(%rbp),%eax
  16:	48 89 f7             	mov    %rsi,%rdi
  19:	89 c6                	mov    %eax,%esi
  1b:	e8 00 00 00 00       	callq  20 <main+0x20>
  20:	b8 00 00 00 00       	mov    $0x0,%eax
  25:	c9                   	leaveq 
  26:	c3                   	retq   

0000000000000027 <Difference>:
  27:	55                   	push   %rbp
  28:	48 89 e5             	mov    %rsp,%rbp
  2b:	89 c8                	mov    %ecx,%eax
  2d:	48 89 7d d0          	mov    %rdi,-0x30(%rbp)
  31:	89 75 d8             	mov    %esi,-0x28(%rbp)
  34:	48 89 55 c0          	mov    %rdx,-0x40(%rbp)
  38:	89 45 c8             	mov    %eax,-0x38(%rbp)
  3b:	8b 55 c0             	mov    -0x40(%rbp),%edx
  3e:	8b 45 d0             	mov    -0x30(%rbp),%eax
  41:	39 c2                	cmp    %eax,%edx
  43:	7e 12                	jle    57 <Difference+0x30>
  45:	8b 45 d4             	mov    -0x2c(%rbp),%eax
  48:	83 e8 01             	sub    $0x1,%eax
  4b:	89 45 d4             	mov    %eax,-0x2c(%rbp)
  4e:	8b 45 d0             	mov    -0x30(%rbp),%eax
  51:	83 c0 3c             	add    $0x3c,%eax
  54:	89 45 d0             	mov    %eax,-0x30(%rbp)
  57:	8b 55 d0             	mov    -0x30(%rbp),%edx
  5a:	8b 45 c0             	mov    -0x40(%rbp),%eax
  5d:	29 c2                	sub    %eax,%edx
  5f:	89 d0                	mov    %edx,%eax
  61:	89 45 e0             	mov    %eax,-0x20(%rbp)
  64:	8b 55 c4             	mov    -0x3c(%rbp),%edx
  67:	8b 45 d4             	mov    -0x2c(%rbp),%eax
  6a:	39 c2                	cmp    %eax,%edx
  6c:	7e 12                	jle    80 <Difference+0x59>
  6e:	8b 45 d8             	mov    -0x28(%rbp),%eax
  71:	83 e8 01             	sub    $0x1,%eax
  74:	89 45 d8             	mov    %eax,-0x28(%rbp)
  77:	8b 45 d4             	mov    -0x2c(%rbp),%eax
  7a:	83 c0 3c             	add    $0x3c,%eax
  7d:	89 45 d4             	mov    %eax,-0x2c(%rbp)
  80:	8b 55 d4             	mov    -0x2c(%rbp),%edx
  83:	8b 45 c4             	mov    -0x3c(%rbp),%eax
  86:	29 c2                	sub    %eax,%edx
  88:	89 d0                	mov    %edx,%eax
  8a:	89 45 e4             	mov    %eax,-0x1c(%rbp)
  8d:	8b 55 d8             	mov    -0x28(%rbp),%edx
  90:	8b 45 c8             	mov    -0x38(%rbp),%eax
  93:	29 c2                	sub    %eax,%edx
  95:	89 d0                	mov    %edx,%eax
  97:	89 45 e8             	mov    %eax,-0x18(%rbp)
  9a:	48 8b 45 e0          	mov    -0x20(%rbp),%rax
  9e:	48 89 45 f0          	mov    %rax,-0x10(%rbp)
  a2:	8b 45 e8             	mov    -0x18(%rbp),%eax
  a5:	89 45 f8             	mov    %eax,-0x8(%rbp)
  a8:	48 8b 45 f0          	mov    -0x10(%rbp),%rax
  ac:	8b 55 f8             	mov    -0x8(%rbp),%edx
  af:	5d                   	pop    %rbp
  b0:	c3                   	retq   
