
test_6.o:     file format elf64-x86-64


Disassembly of section .text:

0000000000000000 <main>:
   0:	55                   	push   %rbp
   1:	48 89 e5             	mov    %rsp,%rbp
   4:	48 83 ec 70          	sub    $0x70,%rsp
   8:	b8 00 00 00 00       	mov    $0x0,%eax
   d:	c7 45 fc 00 00 00 00 	movl   $0x0,-0x4(%rbp)
  14:	8b 4d f8             	mov    -0x8(%rbp),%ecx
  17:	89 4d d8             	mov    %ecx,-0x28(%rbp)
  1a:	48 8b 55 f0          	mov    -0x10(%rbp),%rdx
  1e:	48 89 55 d0          	mov    %rdx,-0x30(%rbp)
  22:	48 8b 7d d0          	mov    -0x30(%rbp),%rdi
  26:	8b 75 d8             	mov    -0x28(%rbp),%esi
  29:	8b 4d e8             	mov    -0x18(%rbp),%ecx
  2c:	89 4d c8             	mov    %ecx,-0x38(%rbp)
  2f:	48 8b 55 e0          	mov    -0x20(%rbp),%rdx
  33:	48 89 55 c0          	mov    %rdx,-0x40(%rbp)
  37:	48 8b 55 c0          	mov    -0x40(%rbp),%rdx
  3b:	8b 4d c8             	mov    -0x38(%rbp),%ecx
  3e:	89 45 9c             	mov    %eax,-0x64(%rbp)
  41:	e8 2a 00 00 00       	callq  70 <Difference>
  46:	89 55 a8             	mov    %edx,-0x58(%rbp)
  49:	48 89 45 a0          	mov    %rax,-0x60(%rbp)
  4d:	48 8b 45 a0          	mov    -0x60(%rbp),%rax
  51:	48 89 45 b0          	mov    %rax,-0x50(%rbp)
  55:	8b 4d a8             	mov    -0x58(%rbp),%ecx
  58:	89 4d b8             	mov    %ecx,-0x48(%rbp)
  5b:	8b 45 9c             	mov    -0x64(%rbp),%eax
  5e:	48 83 c4 70          	add    $0x70,%rsp
  62:	5d                   	pop    %rbp
  63:	c3                   	retq   
  64:	66 66 66 2e 0f 1f 84 	data32 data32 nopw %cs:0x0(%rax,%rax,1)
  6b:	00 00 00 00 00 

0000000000000070 <Difference>:
  70:	55                   	push   %rbp
  71:	48 89 e5             	mov    %rsp,%rbp
  74:	48 89 7d d0          	mov    %rdi,-0x30(%rbp)
  78:	89 75 d8             	mov    %esi,-0x28(%rbp)
  7b:	48 8b 7d d0          	mov    -0x30(%rbp),%rdi
  7f:	48 89 7d e0          	mov    %rdi,-0x20(%rbp)
  83:	8b 75 d8             	mov    -0x28(%rbp),%esi
  86:	89 75 e8             	mov    %esi,-0x18(%rbp)
  89:	48 89 55 b0          	mov    %rdx,-0x50(%rbp)
  8d:	89 4d b8             	mov    %ecx,-0x48(%rbp)
  90:	48 8b 55 b0          	mov    -0x50(%rbp),%rdx
  94:	48 89 55 c0          	mov    %rdx,-0x40(%rbp)
  98:	8b 4d b8             	mov    -0x48(%rbp),%ecx
  9b:	89 4d c8             	mov    %ecx,-0x38(%rbp)
  9e:	8b 4d c0             	mov    -0x40(%rbp),%ecx
  a1:	3b 4d e0             	cmp    -0x20(%rbp),%ecx
  a4:	0f 8e 16 00 00 00    	jle    c0 <Difference+0x50>
  aa:	8b 45 e4             	mov    -0x1c(%rbp),%eax
  ad:	05 ff ff ff ff       	add    $0xffffffff,%eax
  b2:	89 45 e4             	mov    %eax,-0x1c(%rbp)
  b5:	8b 45 e0             	mov    -0x20(%rbp),%eax
  b8:	05 3c 00 00 00       	add    $0x3c,%eax
  bd:	89 45 e0             	mov    %eax,-0x20(%rbp)
  c0:	8b 45 e0             	mov    -0x20(%rbp),%eax
  c3:	2b 45 c0             	sub    -0x40(%rbp),%eax
  c6:	89 45 a0             	mov    %eax,-0x60(%rbp)
  c9:	8b 45 c4             	mov    -0x3c(%rbp),%eax
  cc:	3b 45 e4             	cmp    -0x1c(%rbp),%eax
  cf:	0f 8e 16 00 00 00    	jle    eb <Difference+0x7b>
  d5:	8b 45 e8             	mov    -0x18(%rbp),%eax
  d8:	05 ff ff ff ff       	add    $0xffffffff,%eax
  dd:	89 45 e8             	mov    %eax,-0x18(%rbp)
  e0:	8b 45 e4             	mov    -0x1c(%rbp),%eax
  e3:	05 3c 00 00 00       	add    $0x3c,%eax
  e8:	89 45 e4             	mov    %eax,-0x1c(%rbp)
  eb:	8b 45 e4             	mov    -0x1c(%rbp),%eax
  ee:	8b 4d c4             	mov    -0x3c(%rbp),%ecx
  f1:	29 c8                	sub    %ecx,%eax
  f3:	89 45 a4             	mov    %eax,-0x5c(%rbp)
  f6:	8b 45 e8             	mov    -0x18(%rbp),%eax
  f9:	8b 4d c8             	mov    -0x38(%rbp),%ecx
  fc:	29 c8                	sub    %ecx,%eax
  fe:	89 45 a8             	mov    %eax,-0x58(%rbp)
 101:	89 45 f8             	mov    %eax,-0x8(%rbp)
 104:	48 8b 55 a0          	mov    -0x60(%rbp),%rdx
 108:	48 89 55 f0          	mov    %rdx,-0x10(%rbp)
 10c:	8b 45 f8             	mov    -0x8(%rbp),%eax
 10f:	89 45 98             	mov    %eax,-0x68(%rbp)
 112:	48 8b 55 f0          	mov    -0x10(%rbp),%rdx
 116:	48 89 55 90          	mov    %rdx,-0x70(%rbp)
 11a:	48 8b 45 90          	mov    -0x70(%rbp),%rax
 11e:	8b 55 98             	mov    -0x68(%rbp),%edx
 121:	5d                   	pop    %rbp
 122:	c3                   	retq   
